

Microchip MPLAB XC8 Assembler V2.30 build 20200825195618 
                                                                                               Wed Dec 09 01:04:53 2020

Microchip MPLAB XC8 C Compiler v2.30 (Free license) build 20200825195618 Og1 
     1                           	processor	16F1827
     2                           	pagewidth 120
     3                           	opt	flic
     4                           	psect	nvCOMMON,global,class=COMMON,space=1,delta=1,noexec
     5                           	psect	nvBANK0,global,class=BANK0,space=1,delta=1,noexec
     6                           	psect	nvBANK1,global,class=BANK1,space=1,delta=1,noexec
     7                           	psect	cinit,global,class=CODE,merge=1,delta=2
     8                           	psect	bssCOMMON,global,class=COMMON,space=1,delta=1,noexec
     9                           	psect	bssBANK0,global,class=BANK0,space=1,delta=1,noexec
    10                           	psect	bssBANK1,global,class=BANK1,space=1,delta=1,noexec
    11                           	psect	clrtext,global,class=CODE,delta=2
    12                           	psect	cstackBANK1,global,class=BANK1,space=1,delta=1,noexec
    13                           	psect	cstackCOMMON,global,class=COMMON,space=1,delta=1,noexec
    14                           	psect	cstackBANK0,global,class=BANK0,space=1,delta=1,noexec
    15                           	psect	maintext,global,class=CODE,merge=1,split=1,delta=2
    16                           	psect	text1,local,class=CODE,merge=1,delta=2
    17                           	psect	text2,local,class=CODE,merge=1,delta=2
    18                           	psect	text3,local,class=CODE,merge=1,delta=2
    19                           	psect	text4,local,class=CODE,merge=1,delta=2
    20                           	psect	text5,local,class=CODE,merge=1,delta=2,group=1
    21                           	psect	text6,local,class=CODE,merge=1,delta=2,group=1
    22                           	psect	text7,local,class=CODE,merge=1,delta=2,group=1
    23                           	psect	text8,local,class=CODE,merge=1,delta=2,group=1
    24                           	psect	text9,local,class=CODE,merge=1,delta=2,group=1
    25                           	psect	text10,local,class=CODE,merge=1,delta=2
    26                           	psect	text11,local,class=CODE,merge=1,delta=2
    27                           	psect	text12,local,class=CODE,merge=1,delta=2
    28                           	psect	text13,local,class=CODE,merge=1,delta=2
    29                           	psect	text14,local,class=CODE,merge=1,delta=2
    30                           	psect	text15,local,class=CODE,merge=1,delta=2
    31                           	psect	text16,local,class=CODE,merge=1,delta=2
    32                           	psect	text17,local,class=CODE,merge=1,delta=2
    33                           	psect	text18,local,class=CODE,merge=1,delta=2
    34                           	psect	text19,local,class=CODE,merge=1,delta=2
    35                           	psect	text20,local,class=CODE,merge=1,delta=2
    36                           	psect	text21,local,class=CODE,merge=1,delta=2
    37                           	psect	text22,local,class=CODE,merge=1,delta=2
    38                           	psect	text23,local,class=CODE,merge=1,delta=2
    39                           	psect	text24,local,class=CODE,merge=1,delta=2
    40                           	psect	text25,local,class=CODE,merge=1,delta=2
    41                           	psect	text26,local,class=CODE,merge=1,delta=2
    42                           	psect	text27,local,class=CODE,merge=1,delta=2
    43                           	psect	text28,local,class=CODE,merge=1,delta=2
    44                           	psect	text29,local,class=CODE,merge=1,delta=2
    45                           	psect	text30,local,class=CODE,merge=1,delta=2
    46                           	psect	text31,local,class=CODE,merge=1,delta=2
    47                           	psect	text32,local,class=CODE,merge=1,delta=2
    48                           	psect	intentry,global,class=CODE,delta=2
    49                           	psect	text34,local,class=CODE,merge=1,delta=2
    50                           	psect	text35,local,class=CODE,merge=1,delta=2
    51                           	psect	text36,local,class=CODE,merge=1,delta=2
    52                           	psect	text37,local,class=CODE,merge=1,delta=2
    53                           	psect	text38,local,class=CODE,merge=1,delta=2
    54                           	psect	text39,local,class=CODE,merge=1,delta=2
    55                           	psect	text40,local,class=CODE,merge=1,delta=2
    56                           	psect	text41,local,class=CODE,merge=1,delta=2
    57                           	psect	text42,local,class=CODE,merge=1,delta=2
    58                           	psect	text43,local,class=CODE,merge=1,delta=2
    59                           	psect	text44,local,class=CODE,merge=1,delta=2
    60                           	psect	text45,local,class=CODE,merge=1,delta=2
    61                           	psect	text46,local,class=CODE,merge=1,delta=2
    62                           	psect	text47,local,class=CODE,merge=1,delta=2
    63                           	psect	text48,local,class=CODE,merge=1,delta=2
    64                           	psect	text49,local,class=CODE,merge=1,delta=2
    65                           	psect	text50,local,class=CODE,merge=1,delta=2
    66                           	psect	text51,local,class=CODE,merge=1,delta=2
    67                           	psect	text52,local,class=CODE,merge=1,delta=2
    68                           	psect	text53,local,class=CODE,merge=1,delta=2
    69                           	psect	text54,local,class=CODE,merge=1,delta=2
    70                           	psect	text55,local,class=CODE,merge=1,delta=2
    71                           	psect	config,global,abs,ovrld,class=CONFIG,space=4,delta=2,noexec
    72                           	dabs	1,0x7E,2
    73  0000                     
    74                           ; Version 2.20
    75                           ; Generated 12/02/2020 GMT
    76                           ; 
    77                           ; Copyright © 2020, Microchip Technology Inc. and its subsidiaries ("Microchip")
    78                           ; All rights reserved.
    79                           ; 
    80                           ; This software is developed by Microchip Technology Inc. and its subsidiaries ("Microch
      +                          ip").
    81                           ; 
    82                           ; Redistribution and use in source and binary forms, with or without modification, are
    83                           ; permitted provided that the following conditions are met:
    84                           ; 
    85                           ;     1. Redistributions of source code must retain the above copyright notice, this lis
      +                          t of
    86                           ;        conditions and the following disclaimer.
    87                           ; 
    88                           ;     2. Redistributions in binary form must reproduce the above copyright notice, this 
      +                          list
    89                           ;        of conditions and the following disclaimer in the documentation and/or other
    90                           ;        materials provided with the distribution.
    91                           ; 
    92                           ;     3. Microchip's name may not be used to endorse or promote products derived from th
      +                          is
    93                           ;        software without specific prior written permission.
    94                           ; 
    95                           ; THIS SOFTWARE IS PROVIDED BY MICROCHIP "AS IS" AND ANY EXPRESS OR IMPLIED WARRANTIES,
    96                           ; INCLUDING, BUT NOT LIMITED TO, THE IMPLIED WARRANTIES OF MERCHANTABILITY AND FITNESS F
      +                          OR
    97                           ; PURPOSE ARE DISCLAIMED.  IN NO EVENT SHALL MICROCHIP BE LIABLE FOR ANY DIRECT, INDIREC
      +                          T,
    98                           ; INCIDENTAL, SPECIAL, EXEMPLARY, OR CONSEQUENTIAL DAMAGES (INCLUDING BUT NOT LIMITED TO
    99                           ; PROCUREMENT OF SUBSTITUTE GOODS OR SERVICES; LOSS OF USE, DATA OR PROFITS; OR BUSINESS
   100                           ; INTERRUPTION) HOWSOEVER CAUSED AND ON ANY THEORY OF LIABILITY, WHETHER IN CONTRACT, ST
      +                          RICT
   101                           ; LIABILITY, OR TORT (INCLUDING NEGLIGENCE OR OTHERWISE) ARISING IN ANY WAY OUT OF THE U
      +                          SE OF
   102                           ; THIS SOFTWARE, EVEN IF ADVISED OF THE POSSIBILITY OF SUCH DAMAGE.
   103                           ; 
   104                           ; 
   105                           ; Code-generator required, PIC16F1827 Definitions
   106                           ; 
   107                           ; SFR Addresses
   108  0000                     	;# 
   109  0001                     	;# 
   110  0002                     	;# 
   111  0003                     	;# 
   112  0004                     	;# 
   113  0005                     	;# 
   114  0006                     	;# 
   115  0007                     	;# 
   116  0008                     	;# 
   117  0009                     	;# 
   118  000A                     	;# 
   119  000B                     	;# 
   120  000C                     	;# 
   121  000D                     	;# 
   122  0011                     	;# 
   123  0012                     	;# 
   124  0013                     	;# 
   125  0014                     	;# 
   126  0015                     	;# 
   127  0016                     	;# 
   128  0016                     	;# 
   129  0017                     	;# 
   130  0018                     	;# 
   131  0019                     	;# 
   132  001A                     	;# 
   133  001B                     	;# 
   134  001C                     	;# 
   135  001E                     	;# 
   136  001F                     	;# 
   137  008C                     	;# 
   138  008D                     	;# 
   139  0091                     	;# 
   140  0092                     	;# 
   141  0093                     	;# 
   142  0094                     	;# 
   143  0095                     	;# 
   144  0096                     	;# 
   145  0097                     	;# 
   146  0098                     	;# 
   147  0099                     	;# 
   148  009A                     	;# 
   149  009B                     	;# 
   150  009B                     	;# 
   151  009C                     	;# 
   152  009D                     	;# 
   153  009E                     	;# 
   154  010C                     	;# 
   155  010D                     	;# 
   156  0111                     	;# 
   157  0112                     	;# 
   158  0113                     	;# 
   159  0114                     	;# 
   160  0115                     	;# 
   161  0116                     	;# 
   162  0117                     	;# 
   163  0118                     	;# 
   164  0119                     	;# 
   165  011A                     	;# 
   166  011B                     	;# 
   167  011D                     	;# 
   168  011E                     	;# 
   169  018C                     	;# 
   170  018D                     	;# 
   171  0191                     	;# 
   172  0191                     	;# 
   173  0192                     	;# 
   174  0193                     	;# 
   175  0193                     	;# 
   176  0193                     	;# 
   177  0194                     	;# 
   178  0195                     	;# 
   179  0196                     	;# 
   180  0199                     	;# 
   181  019A                     	;# 
   182  019B                     	;# 
   183  019B                     	;# 
   184  019B                     	;# 
   185  019B                     	;# 
   186  019C                     	;# 
   187  019C                     	;# 
   188  019D                     	;# 
   189  019E                     	;# 
   190  019F                     	;# 
   191  020C                     	;# 
   192  020D                     	;# 
   193  0211                     	;# 
   194  0211                     	;# 
   195  0212                     	;# 
   196  0212                     	;# 
   197  0213                     	;# 
   198  0213                     	;# 
   199  0214                     	;# 
   200  0214                     	;# 
   201  0215                     	;# 
   202  0215                     	;# 
   203  0215                     	;# 
   204  0216                     	;# 
   205  0216                     	;# 
   206  0217                     	;# 
   207  0217                     	;# 
   208  0219                     	;# 
   209  021A                     	;# 
   210  021B                     	;# 
   211  021C                     	;# 
   212  021D                     	;# 
   213  021E                     	;# 
   214  021F                     	;# 
   215  0291                     	;# 
   216  0291                     	;# 
   217  0292                     	;# 
   218  0293                     	;# 
   219  0294                     	;# 
   220  0295                     	;# 
   221  0295                     	;# 
   222  0296                     	;# 
   223  0298                     	;# 
   224  0298                     	;# 
   225  0299                     	;# 
   226  029A                     	;# 
   227  029B                     	;# 
   228  029C                     	;# 
   229  029C                     	;# 
   230  029D                     	;# 
   231  029E                     	;# 
   232  029E                     	;# 
   233  0311                     	;# 
   234  0311                     	;# 
   235  0312                     	;# 
   236  0313                     	;# 
   237  0318                     	;# 
   238  0318                     	;# 
   239  0319                     	;# 
   240  031A                     	;# 
   241  0394                     	;# 
   242  0395                     	;# 
   243  0396                     	;# 
   244  039A                     	;# 
   245  039C                     	;# 
   246  039D                     	;# 
   247  039E                     	;# 
   248  039F                     	;# 
   249  0415                     	;# 
   250  0416                     	;# 
   251  0417                     	;# 
   252  041C                     	;# 
   253  041D                     	;# 
   254  041E                     	;# 
   255  0FE4                     	;# 
   256  0FE5                     	;# 
   257  0FE6                     	;# 
   258  0FE7                     	;# 
   259  0FE8                     	;# 
   260  0FE9                     	;# 
   261  0FEA                     	;# 
   262  0FEB                     	;# 
   263  0FED                     	;# 
   264  0FEE                     	;# 
   265  0FEF                     	;# 
   266  0000                     	;# 
   267  0001                     	;# 
   268  0002                     	;# 
   269  0003                     	;# 
   270  0004                     	;# 
   271  0005                     	;# 
   272  0006                     	;# 
   273  0007                     	;# 
   274  0008                     	;# 
   275  0009                     	;# 
   276  000A                     	;# 
   277  000B                     	;# 
   278  000C                     	;# 
   279  000D                     	;# 
   280  0011                     	;# 
   281  0012                     	;# 
   282  0013                     	;# 
   283  0014                     	;# 
   284  0015                     	;# 
   285  0016                     	;# 
   286  0016                     	;# 
   287  0017                     	;# 
   288  0018                     	;# 
   289  0019                     	;# 
   290  001A                     	;# 
   291  001B                     	;# 
   292  001C                     	;# 
   293  001E                     	;# 
   294  001F                     	;# 
   295  008C                     	;# 
   296  008D                     	;# 
   297  0091                     	;# 
   298  0092                     	;# 
   299  0093                     	;# 
   300  0094                     	;# 
   301  0095                     	;# 
   302  0096                     	;# 
   303  0097                     	;# 
   304  0098                     	;# 
   305  0099                     	;# 
   306  009A                     	;# 
   307  009B                     	;# 
   308  009B                     	;# 
   309  009C                     	;# 
   310  009D                     	;# 
   311  009E                     	;# 
   312  010C                     	;# 
   313  010D                     	;# 
   314  0111                     	;# 
   315  0112                     	;# 
   316  0113                     	;# 
   317  0114                     	;# 
   318  0115                     	;# 
   319  0116                     	;# 
   320  0117                     	;# 
   321  0118                     	;# 
   322  0119                     	;# 
   323  011A                     	;# 
   324  011B                     	;# 
   325  011D                     	;# 
   326  011E                     	;# 
   327  018C                     	;# 
   328  018D                     	;# 
   329  0191                     	;# 
   330  0191                     	;# 
   331  0192                     	;# 
   332  0193                     	;# 
   333  0193                     	;# 
   334  0193                     	;# 
   335  0194                     	;# 
   336  0195                     	;# 
   337  0196                     	;# 
   338  0199                     	;# 
   339  019A                     	;# 
   340  019B                     	;# 
   341  019B                     	;# 
   342  019B                     	;# 
   343  019B                     	;# 
   344  019C                     	;# 
   345  019C                     	;# 
   346  019D                     	;# 
   347  019E                     	;# 
   348  019F                     	;# 
   349  020C                     	;# 
   350  020D                     	;# 
   351  0211                     	;# 
   352  0211                     	;# 
   353  0212                     	;# 
   354  0212                     	;# 
   355  0213                     	;# 
   356  0213                     	;# 
   357  0214                     	;# 
   358  0214                     	;# 
   359  0215                     	;# 
   360  0215                     	;# 
   361  0215                     	;# 
   362  0216                     	;# 
   363  0216                     	;# 
   364  0217                     	;# 
   365  0217                     	;# 
   366  0219                     	;# 
   367  021A                     	;# 
   368  021B                     	;# 
   369  021C                     	;# 
   370  021D                     	;# 
   371  021E                     	;# 
   372  021F                     	;# 
   373  0291                     	;# 
   374  0291                     	;# 
   375  0292                     	;# 
   376  0293                     	;# 
   377  0294                     	;# 
   378  0295                     	;# 
   379  0295                     	;# 
   380  0296                     	;# 
   381  0298                     	;# 
   382  0298                     	;# 
   383  0299                     	;# 
   384  029A                     	;# 
   385  029B                     	;# 
   386  029C                     	;# 
   387  029C                     	;# 
   388  029D                     	;# 
   389  029E                     	;# 
   390  029E                     	;# 
   391  0311                     	;# 
   392  0311                     	;# 
   393  0312                     	;# 
   394  0313                     	;# 
   395  0318                     	;# 
   396  0318                     	;# 
   397  0319                     	;# 
   398  031A                     	;# 
   399  0394                     	;# 
   400  0395                     	;# 
   401  0396                     	;# 
   402  039A                     	;# 
   403  039C                     	;# 
   404  039D                     	;# 
   405  039E                     	;# 
   406  039F                     	;# 
   407  0415                     	;# 
   408  0416                     	;# 
   409  0417                     	;# 
   410  041C                     	;# 
   411  041D                     	;# 
   412  041E                     	;# 
   413  0FE4                     	;# 
   414  0FE5                     	;# 
   415  0FE6                     	;# 
   416  0FE7                     	;# 
   417  0FE8                     	;# 
   418  0FE9                     	;# 
   419  0FEA                     	;# 
   420  0FEB                     	;# 
   421  0FED                     	;# 
   422  0FEE                     	;# 
   423  0FEF                     	;# 
   424  0000                     	;# 
   425  0001                     	;# 
   426  0002                     	;# 
   427  0003                     	;# 
   428  0004                     	;# 
   429  0005                     	;# 
   430  0006                     	;# 
   431  0007                     	;# 
   432  0008                     	;# 
   433  0009                     	;# 
   434  000A                     	;# 
   435  000B                     	;# 
   436  000C                     	;# 
   437  000D                     	;# 
   438  0011                     	;# 
   439  0012                     	;# 
   440  0013                     	;# 
   441  0014                     	;# 
   442  0015                     	;# 
   443  0016                     	;# 
   444  0016                     	;# 
   445  0017                     	;# 
   446  0018                     	;# 
   447  0019                     	;# 
   448  001A                     	;# 
   449  001B                     	;# 
   450  001C                     	;# 
   451  001E                     	;# 
   452  001F                     	;# 
   453  008C                     	;# 
   454  008D                     	;# 
   455  0091                     	;# 
   456  0092                     	;# 
   457  0093                     	;# 
   458  0094                     	;# 
   459  0095                     	;# 
   460  0096                     	;# 
   461  0097                     	;# 
   462  0098                     	;# 
   463  0099                     	;# 
   464  009A                     	;# 
   465  009B                     	;# 
   466  009B                     	;# 
   467  009C                     	;# 
   468  009D                     	;# 
   469  009E                     	;# 
   470  010C                     	;# 
   471  010D                     	;# 
   472  0111                     	;# 
   473  0112                     	;# 
   474  0113                     	;# 
   475  0114                     	;# 
   476  0115                     	;# 
   477  0116                     	;# 
   478  0117                     	;# 
   479  0118                     	;# 
   480  0119                     	;# 
   481  011A                     	;# 
   482  011B                     	;# 
   483  011D                     	;# 
   484  011E                     	;# 
   485  018C                     	;# 
   486  018D                     	;# 
   487  0191                     	;# 
   488  0191                     	;# 
   489  0192                     	;# 
   490  0193                     	;# 
   491  0193                     	;# 
   492  0193                     	;# 
   493  0194                     	;# 
   494  0195                     	;# 
   495  0196                     	;# 
   496  0199                     	;# 
   497  019A                     	;# 
   498  019B                     	;# 
   499  019B                     	;# 
   500  019B                     	;# 
   501  019B                     	;# 
   502  019C                     	;# 
   503  019C                     	;# 
   504  019D                     	;# 
   505  019E                     	;# 
   506  019F                     	;# 
   507  020C                     	;# 
   508  020D                     	;# 
   509  0211                     	;# 
   510  0211                     	;# 
   511  0212                     	;# 
   512  0212                     	;# 
   513  0213                     	;# 
   514  0213                     	;# 
   515  0214                     	;# 
   516  0214                     	;# 
   517  0215                     	;# 
   518  0215                     	;# 
   519  0215                     	;# 
   520  0216                     	;# 
   521  0216                     	;# 
   522  0217                     	;# 
   523  0217                     	;# 
   524  0219                     	;# 
   525  021A                     	;# 
   526  021B                     	;# 
   527  021C                     	;# 
   528  021D                     	;# 
   529  021E                     	;# 
   530  021F                     	;# 
   531  0291                     	;# 
   532  0291                     	;# 
   533  0292                     	;# 
   534  0293                     	;# 
   535  0294                     	;# 
   536  0295                     	;# 
   537  0295                     	;# 
   538  0296                     	;# 
   539  0298                     	;# 
   540  0298                     	;# 
   541  0299                     	;# 
   542  029A                     	;# 
   543  029B                     	;# 
   544  029C                     	;# 
   545  029C                     	;# 
   546  029D                     	;# 
   547  029E                     	;# 
   548  029E                     	;# 
   549  0311                     	;# 
   550  0311                     	;# 
   551  0312                     	;# 
   552  0313                     	;# 
   553  0318                     	;# 
   554  0318                     	;# 
   555  0319                     	;# 
   556  031A                     	;# 
   557  0394                     	;# 
   558  0395                     	;# 
   559  0396                     	;# 
   560  039A                     	;# 
   561  039C                     	;# 
   562  039D                     	;# 
   563  039E                     	;# 
   564  039F                     	;# 
   565  0415                     	;# 
   566  0416                     	;# 
   567  0417                     	;# 
   568  041C                     	;# 
   569  041D                     	;# 
   570  041E                     	;# 
   571  0FE4                     	;# 
   572  0FE5                     	;# 
   573  0FE6                     	;# 
   574  0FE7                     	;# 
   575  0FE8                     	;# 
   576  0FE9                     	;# 
   577  0FEA                     	;# 
   578  0FEB                     	;# 
   579  0FED                     	;# 
   580  0FEE                     	;# 
   581  0FEF                     	;# 
   582  0000                     	;# 
   583  0001                     	;# 
   584  0002                     	;# 
   585  0003                     	;# 
   586  0004                     	;# 
   587  0005                     	;# 
   588  0006                     	;# 
   589  0007                     	;# 
   590  0008                     	;# 
   591  0009                     	;# 
   592  000A                     	;# 
   593  000B                     	;# 
   594  000C                     	;# 
   595  000D                     	;# 
   596  0011                     	;# 
   597  0012                     	;# 
   598  0013                     	;# 
   599  0014                     	;# 
   600  0015                     	;# 
   601  0016                     	;# 
   602  0016                     	;# 
   603  0017                     	;# 
   604  0018                     	;# 
   605  0019                     	;# 
   606  001A                     	;# 
   607  001B                     	;# 
   608  001C                     	;# 
   609  001E                     	;# 
   610  001F                     	;# 
   611  008C                     	;# 
   612  008D                     	;# 
   613  0091                     	;# 
   614  0092                     	;# 
   615  0093                     	;# 
   616  0094                     	;# 
   617  0095                     	;# 
   618  0096                     	;# 
   619  0097                     	;# 
   620  0098                     	;# 
   621  0099                     	;# 
   622  009A                     	;# 
   623  009B                     	;# 
   624  009B                     	;# 
   625  009C                     	;# 
   626  009D                     	;# 
   627  009E                     	;# 
   628  010C                     	;# 
   629  010D                     	;# 
   630  0111                     	;# 
   631  0112                     	;# 
   632  0113                     	;# 
   633  0114                     	;# 
   634  0115                     	;# 
   635  0116                     	;# 
   636  0117                     	;# 
   637  0118                     	;# 
   638  0119                     	;# 
   639  011A                     	;# 
   640  011B                     	;# 
   641  011D                     	;# 
   642  011E                     	;# 
   643  018C                     	;# 
   644  018D                     	;# 
   645  0191                     	;# 
   646  0191                     	;# 
   647  0192                     	;# 
   648  0193                     	;# 
   649  0193                     	;# 
   650  0193                     	;# 
   651  0194                     	;# 
   652  0195                     	;# 
   653  0196                     	;# 
   654  0199                     	;# 
   655  019A                     	;# 
   656  019B                     	;# 
   657  019B                     	;# 
   658  019B                     	;# 
   659  019B                     	;# 
   660  019C                     	;# 
   661  019C                     	;# 
   662  019D                     	;# 
   663  019E                     	;# 
   664  019F                     	;# 
   665  020C                     	;# 
   666  020D                     	;# 
   667  0211                     	;# 
   668  0211                     	;# 
   669  0212                     	;# 
   670  0212                     	;# 
   671  0213                     	;# 
   672  0213                     	;# 
   673  0214                     	;# 
   674  0214                     	;# 
   675  0215                     	;# 
   676  0215                     	;# 
   677  0215                     	;# 
   678  0216                     	;# 
   679  0216                     	;# 
   680  0217                     	;# 
   681  0217                     	;# 
   682  0219                     	;# 
   683  021A                     	;# 
   684  021B                     	;# 
   685  021C                     	;# 
   686  021D                     	;# 
   687  021E                     	;# 
   688  021F                     	;# 
   689  0291                     	;# 
   690  0291                     	;# 
   691  0292                     	;# 
   692  0293                     	;# 
   693  0294                     	;# 
   694  0295                     	;# 
   695  0295                     	;# 
   696  0296                     	;# 
   697  0298                     	;# 
   698  0298                     	;# 
   699  0299                     	;# 
   700  029A                     	;# 
   701  029B                     	;# 
   702  029C                     	;# 
   703  029C                     	;# 
   704  029D                     	;# 
   705  029E                     	;# 
   706  029E                     	;# 
   707  0311                     	;# 
   708  0311                     	;# 
   709  0312                     	;# 
   710  0313                     	;# 
   711  0318                     	;# 
   712  0318                     	;# 
   713  0319                     	;# 
   714  031A                     	;# 
   715  0394                     	;# 
   716  0395                     	;# 
   717  0396                     	;# 
   718  039A                     	;# 
   719  039C                     	;# 
   720  039D                     	;# 
   721  039E                     	;# 
   722  039F                     	;# 
   723  0415                     	;# 
   724  0416                     	;# 
   725  0417                     	;# 
   726  041C                     	;# 
   727  041D                     	;# 
   728  041E                     	;# 
   729  0FE4                     	;# 
   730  0FE5                     	;# 
   731  0FE6                     	;# 
   732  0FE7                     	;# 
   733  0FE8                     	;# 
   734  0FE9                     	;# 
   735  0FEA                     	;# 
   736  0FEB                     	;# 
   737  0FED                     	;# 
   738  0FEE                     	;# 
   739  0FEF                     	;# 
   740  0000                     	;# 
   741  0001                     	;# 
   742  0002                     	;# 
   743  0003                     	;# 
   744  0004                     	;# 
   745  0005                     	;# 
   746  0006                     	;# 
   747  0007                     	;# 
   748  0008                     	;# 
   749  0009                     	;# 
   750  000A                     	;# 
   751  000B                     	;# 
   752  000C                     	;# 
   753  000D                     	;# 
   754  0011                     	;# 
   755  0012                     	;# 
   756  0013                     	;# 
   757  0014                     	;# 
   758  0015                     	;# 
   759  0016                     	;# 
   760  0016                     	;# 
   761  0017                     	;# 
   762  0018                     	;# 
   763  0019                     	;# 
   764  001A                     	;# 
   765  001B                     	;# 
   766  001C                     	;# 
   767  001E                     	;# 
   768  001F                     	;# 
   769  008C                     	;# 
   770  008D                     	;# 
   771  0091                     	;# 
   772  0092                     	;# 
   773  0093                     	;# 
   774  0094                     	;# 
   775  0095                     	;# 
   776  0096                     	;# 
   777  0097                     	;# 
   778  0098                     	;# 
   779  0099                     	;# 
   780  009A                     	;# 
   781  009B                     	;# 
   782  009B                     	;# 
   783  009C                     	;# 
   784  009D                     	;# 
   785  009E                     	;# 
   786  010C                     	;# 
   787  010D                     	;# 
   788  0111                     	;# 
   789  0112                     	;# 
   790  0113                     	;# 
   791  0114                     	;# 
   792  0115                     	;# 
   793  0116                     	;# 
   794  0117                     	;# 
   795  0118                     	;# 
   796  0119                     	;# 
   797  011A                     	;# 
   798  011B                     	;# 
   799  011D                     	;# 
   800  011E                     	;# 
   801  018C                     	;# 
   802  018D                     	;# 
   803  0191                     	;# 
   804  0191                     	;# 
   805  0192                     	;# 
   806  0193                     	;# 
   807  0193                     	;# 
   808  0193                     	;# 
   809  0194                     	;# 
   810  0195                     	;# 
   811  0196                     	;# 
   812  0199                     	;# 
   813  019A                     	;# 
   814  019B                     	;# 
   815  019B                     	;# 
   816  019B                     	;# 
   817  019B                     	;# 
   818  019C                     	;# 
   819  019C                     	;# 
   820  019D                     	;# 
   821  019E                     	;# 
   822  019F                     	;# 
   823  020C                     	;# 
   824  020D                     	;# 
   825  0211                     	;# 
   826  0211                     	;# 
   827  0212                     	;# 
   828  0212                     	;# 
   829  0213                     	;# 
   830  0213                     	;# 
   831  0214                     	;# 
   832  0214                     	;# 
   833  0215                     	;# 
   834  0215                     	;# 
   835  0215                     	;# 
   836  0216                     	;# 
   837  0216                     	;# 
   838  0217                     	;# 
   839  0217                     	;# 
   840  0219                     	;# 
   841  021A                     	;# 
   842  021B                     	;# 
   843  021C                     	;# 
   844  021D                     	;# 
   845  021E                     	;# 
   846  021F                     	;# 
   847  0291                     	;# 
   848  0291                     	;# 
   849  0292                     	;# 
   850  0293                     	;# 
   851  0294                     	;# 
   852  0295                     	;# 
   853  0295                     	;# 
   854  0296                     	;# 
   855  0298                     	;# 
   856  0298                     	;# 
   857  0299                     	;# 
   858  029A                     	;# 
   859  029B                     	;# 
   860  029C                     	;# 
   861  029C                     	;# 
   862  029D                     	;# 
   863  029E                     	;# 
   864  029E                     	;# 
   865  0311                     	;# 
   866  0311                     	;# 
   867  0312                     	;# 
   868  0313                     	;# 
   869  0318                     	;# 
   870  0318                     	;# 
   871  0319                     	;# 
   872  031A                     	;# 
   873  0394                     	;# 
   874  0395                     	;# 
   875  0396                     	;# 
   876  039A                     	;# 
   877  039C                     	;# 
   878  039D                     	;# 
   879  039E                     	;# 
   880  039F                     	;# 
   881  0415                     	;# 
   882  0416                     	;# 
   883  0417                     	;# 
   884  041C                     	;# 
   885  041D                     	;# 
   886  041E                     	;# 
   887  0FE4                     	;# 
   888  0FE5                     	;# 
   889  0FE6                     	;# 
   890  0FE7                     	;# 
   891  0FE8                     	;# 
   892  0FE9                     	;# 
   893  0FEA                     	;# 
   894  0FEB                     	;# 
   895  0FED                     	;# 
   896  0FEE                     	;# 
   897  0FEF                     	;# 
   898  0000                     	;# 
   899  0001                     	;# 
   900  0002                     	;# 
   901  0003                     	;# 
   902  0004                     	;# 
   903  0005                     	;# 
   904  0006                     	;# 
   905  0007                     	;# 
   906  0008                     	;# 
   907  0009                     	;# 
   908  000A                     	;# 
   909  000B                     	;# 
   910  000C                     	;# 
   911  000D                     	;# 
   912  0011                     	;# 
   913  0012                     	;# 
   914  0013                     	;# 
   915  0014                     	;# 
   916  0015                     	;# 
   917  0016                     	;# 
   918  0016                     	;# 
   919  0017                     	;# 
   920  0018                     	;# 
   921  0019                     	;# 
   922  001A                     	;# 
   923  001B                     	;# 
   924  001C                     	;# 
   925  001E                     	;# 
   926  001F                     	;# 
   927  008C                     	;# 
   928  008D                     	;# 
   929  0091                     	;# 
   930  0092                     	;# 
   931  0093                     	;# 
   932  0094                     	;# 
   933  0095                     	;# 
   934  0096                     	;# 
   935  0097                     	;# 
   936  0098                     	;# 
   937  0099                     	;# 
   938  009A                     	;# 
   939  009B                     	;# 
   940  009B                     	;# 
   941  009C                     	;# 
   942  009D                     	;# 
   943  009E                     	;# 
   944  010C                     	;# 
   945  010D                     	;# 
   946  0111                     	;# 
   947  0112                     	;# 
   948  0113                     	;# 
   949  0114                     	;# 
   950  0115                     	;# 
   951  0116                     	;# 
   952  0117                     	;# 
   953  0118                     	;# 
   954  0119                     	;# 
   955  011A                     	;# 
   956  011B                     	;# 
   957  011D                     	;# 
   958  011E                     	;# 
   959  018C                     	;# 
   960  018D                     	;# 
   961  0191                     	;# 
   962  0191                     	;# 
   963  0192                     	;# 
   964  0193                     	;# 
   965  0193                     	;# 
   966  0193                     	;# 
   967  0194                     	;# 
   968  0195                     	;# 
   969  0196                     	;# 
   970  0199                     	;# 
   971  019A                     	;# 
   972  019B                     	;# 
   973  019B                     	;# 
   974  019B                     	;# 
   975  019B                     	;# 
   976  019C                     	;# 
   977  019C                     	;# 
   978  019D                     	;# 
   979  019E                     	;# 
   980  019F                     	;# 
   981  020C                     	;# 
   982  020D                     	;# 
   983  0211                     	;# 
   984  0211                     	;# 
   985  0212                     	;# 
   986  0212                     	;# 
   987  0213                     	;# 
   988  0213                     	;# 
   989  0214                     	;# 
   990  0214                     	;# 
   991  0215                     	;# 
   992  0215                     	;# 
   993  0215                     	;# 
   994  0216                     	;# 
   995  0216                     	;# 
   996  0217                     	;# 
   997  0217                     	;# 
   998  0219                     	;# 
   999  021A                     	;# 
  1000  021B                     	;# 
  1001  021C                     	;# 
  1002  021D                     	;# 
  1003  021E                     	;# 
  1004  021F                     	;# 
  1005  0291                     	;# 
  1006  0291                     	;# 
  1007  0292                     	;# 
  1008  0293                     	;# 
  1009  0294                     	;# 
  1010  0295                     	;# 
  1011  0295                     	;# 
  1012  0296                     	;# 
  1013  0298                     	;# 
  1014  0298                     	;# 
  1015  0299                     	;# 
  1016  029A                     	;# 
  1017  029B                     	;# 
  1018  029C                     	;# 
  1019  029C                     	;# 
  1020  029D                     	;# 
  1021  029E                     	;# 
  1022  029E                     	;# 
  1023  0311                     	;# 
  1024  0311                     	;# 
  1025  0312                     	;# 
  1026  0313                     	;# 
  1027  0318                     	;# 
  1028  0318                     	;# 
  1029  0319                     	;# 
  1030  031A                     	;# 
  1031  0394                     	;# 
  1032  0395                     	;# 
  1033  0396                     	;# 
  1034  039A                     	;# 
  1035  039C                     	;# 
  1036  039D                     	;# 
  1037  039E                     	;# 
  1038  039F                     	;# 
  1039  0415                     	;# 
  1040  0416                     	;# 
  1041  0417                     	;# 
  1042  041C                     	;# 
  1043  041D                     	;# 
  1044  041E                     	;# 
  1045  0FE4                     	;# 
  1046  0FE5                     	;# 
  1047  0FE6                     	;# 
  1048  0FE7                     	;# 
  1049  0FE8                     	;# 
  1050  0FE9                     	;# 
  1051  0FEA                     	;# 
  1052  0FEB                     	;# 
  1053  0FED                     	;# 
  1054  0FEE                     	;# 
  1055  0FEF                     	;# 
  1056  0000                     	;# 
  1057  0001                     	;# 
  1058  0002                     	;# 
  1059  0003                     	;# 
  1060  0004                     	;# 
  1061  0005                     	;# 
  1062  0006                     	;# 
  1063  0007                     	;# 
  1064  0008                     	;# 
  1065  0009                     	;# 
  1066  000A                     	;# 
  1067  000B                     	;# 
  1068  000C                     	;# 
  1069  000D                     	;# 
  1070  0011                     	;# 
  1071  0012                     	;# 
  1072  0013                     	;# 
  1073  0014                     	;# 
  1074  0015                     	;# 
  1075  0016                     	;# 
  1076  0016                     	;# 
  1077  0017                     	;# 
  1078  0018                     	;# 
  1079  0019                     	;# 
  1080  001A                     	;# 
  1081  001B                     	;# 
  1082  001C                     	;# 
  1083  001E                     	;# 
  1084  001F                     	;# 
  1085  008C                     	;# 
  1086  008D                     	;# 
  1087  0091                     	;# 
  1088  0092                     	;# 
  1089  0093                     	;# 
  1090  0094                     	;# 
  1091  0095                     	;# 
  1092  0096                     	;# 
  1093  0097                     	;# 
  1094  0098                     	;# 
  1095  0099                     	;# 
  1096  009A                     	;# 
  1097  009B                     	;# 
  1098  009B                     	;# 
  1099  009C                     	;# 
  1100  009D                     	;# 
  1101  009E                     	;# 
  1102  010C                     	;# 
  1103  010D                     	;# 
  1104  0111                     	;# 
  1105  0112                     	;# 
  1106  0113                     	;# 
  1107  0114                     	;# 
  1108  0115                     	;# 
  1109  0116                     	;# 
  1110  0117                     	;# 
  1111  0118                     	;# 
  1112  0119                     	;# 
  1113  011A                     	;# 
  1114  011B                     	;# 
  1115  011D                     	;# 
  1116  011E                     	;# 
  1117  018C                     	;# 
  1118  018D                     	;# 
  1119  0191                     	;# 
  1120  0191                     	;# 
  1121  0192                     	;# 
  1122  0193                     	;# 
  1123  0193                     	;# 
  1124  0193                     	;# 
  1125  0194                     	;# 
  1126  0195                     	;# 
  1127  0196                     	;# 
  1128  0199                     	;# 
  1129  019A                     	;# 
  1130  019B                     	;# 
  1131  019B                     	;# 
  1132  019B                     	;# 
  1133  019B                     	;# 
  1134  019C                     	;# 
  1135  019C                     	;# 
  1136  019D                     	;# 
  1137  019E                     	;# 
  1138  019F                     	;# 
  1139  020C                     	;# 
  1140  020D                     	;# 
  1141  0211                     	;# 
  1142  0211                     	;# 
  1143  0212                     	;# 
  1144  0212                     	;# 
  1145  0213                     	;# 
  1146  0213                     	;# 
  1147  0214                     	;# 
  1148  0214                     	;# 
  1149  0215                     	;# 
  1150  0215                     	;# 
  1151  0215                     	;# 
  1152  0216                     	;# 
  1153  0216                     	;# 
  1154  0217                     	;# 
  1155  0217                     	;# 
  1156  0219                     	;# 
  1157  021A                     	;# 
  1158  021B                     	;# 
  1159  021C                     	;# 
  1160  021D                     	;# 
  1161  021E                     	;# 
  1162  021F                     	;# 
  1163  0291                     	;# 
  1164  0291                     	;# 
  1165  0292                     	;# 
  1166  0293                     	;# 
  1167  0294                     	;# 
  1168  0295                     	;# 
  1169  0295                     	;# 
  1170  0296                     	;# 
  1171  0298                     	;# 
  1172  0298                     	;# 
  1173  0299                     	;# 
  1174  029A                     	;# 
  1175  029B                     	;# 
  1176  029C                     	;# 
  1177  029C                     	;# 
  1178  029D                     	;# 
  1179  029E                     	;# 
  1180  029E                     	;# 
  1181  0311                     	;# 
  1182  0311                     	;# 
  1183  0312                     	;# 
  1184  0313                     	;# 
  1185  0318                     	;# 
  1186  0318                     	;# 
  1187  0319                     	;# 
  1188  031A                     	;# 
  1189  0394                     	;# 
  1190  0395                     	;# 
  1191  0396                     	;# 
  1192  039A                     	;# 
  1193  039C                     	;# 
  1194  039D                     	;# 
  1195  039E                     	;# 
  1196  039F                     	;# 
  1197  0415                     	;# 
  1198  0416                     	;# 
  1199  0417                     	;# 
  1200  041C                     	;# 
  1201  041D                     	;# 
  1202  041E                     	;# 
  1203  0FE4                     	;# 
  1204  0FE5                     	;# 
  1205  0FE6                     	;# 
  1206  0FE7                     	;# 
  1207  0FE8                     	;# 
  1208  0FE9                     	;# 
  1209  0FEA                     	;# 
  1210  0FEB                     	;# 
  1211  0FED                     	;# 
  1212  0FEE                     	;# 
  1213  0FEF                     	;# 
  1214  0000                     	;# 
  1215  0001                     	;# 
  1216  0002                     	;# 
  1217  0003                     	;# 
  1218  0004                     	;# 
  1219  0005                     	;# 
  1220  0006                     	;# 
  1221  0007                     	;# 
  1222  0008                     	;# 
  1223  0009                     	;# 
  1224  000A                     	;# 
  1225  000B                     	;# 
  1226  000C                     	;# 
  1227  000D                     	;# 
  1228  0011                     	;# 
  1229  0012                     	;# 
  1230  0013                     	;# 
  1231  0014                     	;# 
  1232  0015                     	;# 
  1233  0016                     	;# 
  1234  0016                     	;# 
  1235  0017                     	;# 
  1236  0018                     	;# 
  1237  0019                     	;# 
  1238  001A                     	;# 
  1239  001B                     	;# 
  1240  001C                     	;# 
  1241  001E                     	;# 
  1242  001F                     	;# 
  1243  008C                     	;# 
  1244  008D                     	;# 
  1245  0091                     	;# 
  1246  0092                     	;# 
  1247  0093                     	;# 
  1248  0094                     	;# 
  1249  0095                     	;# 
  1250  0096                     	;# 
  1251  0097                     	;# 
  1252  0098                     	;# 
  1253  0099                     	;# 
  1254  009A                     	;# 
  1255  009B                     	;# 
  1256  009B                     	;# 
  1257  009C                     	;# 
  1258  009D                     	;# 
  1259  009E                     	;# 
  1260  010C                     	;# 
  1261  010D                     	;# 
  1262  0111                     	;# 
  1263  0112                     	;# 
  1264  0113                     	;# 
  1265  0114                     	;# 
  1266  0115                     	;# 
  1267  0116                     	;# 
  1268  0117                     	;# 
  1269  0118                     	;# 
  1270  0119                     	;# 
  1271  011A                     	;# 
  1272  011B                     	;# 
  1273  011D                     	;# 
  1274  011E                     	;# 
  1275  018C                     	;# 
  1276  018D                     	;# 
  1277  0191                     	;# 
  1278  0191                     	;# 
  1279  0192                     	;# 
  1280  0193                     	;# 
  1281  0193                     	;# 
  1282  0193                     	;# 
  1283  0194                     	;# 
  1284  0195                     	;# 
  1285  0196                     	;# 
  1286  0199                     	;# 
  1287  019A                     	;# 
  1288  019B                     	;# 
  1289  019B                     	;# 
  1290  019B                     	;# 
  1291  019B                     	;# 
  1292  019C                     	;# 
  1293  019C                     	;# 
  1294  019D                     	;# 
  1295  019E                     	;# 
  1296  019F                     	;# 
  1297  020C                     	;# 
  1298  020D                     	;# 
  1299  0211                     	;# 
  1300  0211                     	;# 
  1301  0212                     	;# 
  1302  0212                     	;# 
  1303  0213                     	;# 
  1304  0213                     	;# 
  1305  0214                     	;# 
  1306  0214                     	;# 
  1307  0215                     	;# 
  1308  0215                     	;# 
  1309  0215                     	;# 
  1310  0216                     	;# 
  1311  0216                     	;# 
  1312  0217                     	;# 
  1313  0217                     	;# 
  1314  0219                     	;# 
  1315  021A                     	;# 
  1316  021B                     	;# 
  1317  021C                     	;# 
  1318  021D                     	;# 
  1319  021E                     	;# 
  1320  021F                     	;# 
  1321  0291                     	;# 
  1322  0291                     	;# 
  1323  0292                     	;# 
  1324  0293                     	;# 
  1325  0294                     	;# 
  1326  0295                     	;# 
  1327  0295                     	;# 
  1328  0296                     	;# 
  1329  0298                     	;# 
  1330  0298                     	;# 
  1331  0299                     	;# 
  1332  029A                     	;# 
  1333  029B                     	;# 
  1334  029C                     	;# 
  1335  029C                     	;# 
  1336  029D                     	;# 
  1337  029E                     	;# 
  1338  029E                     	;# 
  1339  0311                     	;# 
  1340  0311                     	;# 
  1341  0312                     	;# 
  1342  0313                     	;# 
  1343  0318                     	;# 
  1344  0318                     	;# 
  1345  0319                     	;# 
  1346  031A                     	;# 
  1347  0394                     	;# 
  1348  0395                     	;# 
  1349  0396                     	;# 
  1350  039A                     	;# 
  1351  039C                     	;# 
  1352  039D                     	;# 
  1353  039E                     	;# 
  1354  039F                     	;# 
  1355  0415                     	;# 
  1356  0416                     	;# 
  1357  0417                     	;# 
  1358  041C                     	;# 
  1359  041D                     	;# 
  1360  041E                     	;# 
  1361  0FE4                     	;# 
  1362  0FE5                     	;# 
  1363  0FE6                     	;# 
  1364  0FE7                     	;# 
  1365  0FE8                     	;# 
  1366  0FE9                     	;# 
  1367  0FEA                     	;# 
  1368  0FEB                     	;# 
  1369  0FED                     	;# 
  1370  0FEE                     	;# 
  1371  0FEF                     	;# 
  1372  0000                     	;# 
  1373  0001                     	;# 
  1374  0002                     	;# 
  1375  0003                     	;# 
  1376  0004                     	;# 
  1377  0005                     	;# 
  1378  0006                     	;# 
  1379  0007                     	;# 
  1380  0008                     	;# 
  1381  0009                     	;# 
  1382  000A                     	;# 
  1383  000B                     	;# 
  1384  000C                     	;# 
  1385  000D                     	;# 
  1386  0011                     	;# 
  1387  0012                     	;# 
  1388  0013                     	;# 
  1389  0014                     	;# 
  1390  0015                     	;# 
  1391  0016                     	;# 
  1392  0016                     	;# 
  1393  0017                     	;# 
  1394  0018                     	;# 
  1395  0019                     	;# 
  1396  001A                     	;# 
  1397  001B                     	;# 
  1398  001C                     	;# 
  1399  001E                     	;# 
  1400  001F                     	;# 
  1401  008C                     	;# 
  1402  008D                     	;# 
  1403  0091                     	;# 
  1404  0092                     	;# 
  1405  0093                     	;# 
  1406  0094                     	;# 
  1407  0095                     	;# 
  1408  0096                     	;# 
  1409  0097                     	;# 
  1410  0098                     	;# 
  1411  0099                     	;# 
  1412  009A                     	;# 
  1413  009B                     	;# 
  1414  009B                     	;# 
  1415  009C                     	;# 
  1416  009D                     	;# 
  1417  009E                     	;# 
  1418  010C                     	;# 
  1419  010D                     	;# 
  1420  0111                     	;# 
  1421  0112                     	;# 
  1422  0113                     	;# 
  1423  0114                     	;# 
  1424  0115                     	;# 
  1425  0116                     	;# 
  1426  0117                     	;# 
  1427  0118                     	;# 
  1428  0119                     	;# 
  1429  011A                     	;# 
  1430  011B                     	;# 
  1431  011D                     	;# 
  1432  011E                     	;# 
  1433  018C                     	;# 
  1434  018D                     	;# 
  1435  0191                     	;# 
  1436  0191                     	;# 
  1437  0192                     	;# 
  1438  0193                     	;# 
  1439  0193                     	;# 
  1440  0193                     	;# 
  1441  0194                     	;# 
  1442  0195                     	;# 
  1443  0196                     	;# 
  1444  0199                     	;# 
  1445  019A                     	;# 
  1446  019B                     	;# 
  1447  019B                     	;# 
  1448  019B                     	;# 
  1449  019B                     	;# 
  1450  019C                     	;# 
  1451  019C                     	;# 
  1452  019D                     	;# 
  1453  019E                     	;# 
  1454  019F                     	;# 
  1455  020C                     	;# 
  1456  020D                     	;# 
  1457  0211                     	;# 
  1458  0211                     	;# 
  1459  0212                     	;# 
  1460  0212                     	;# 
  1461  0213                     	;# 
  1462  0213                     	;# 
  1463  0214                     	;# 
  1464  0214                     	;# 
  1465  0215                     	;# 
  1466  0215                     	;# 
  1467  0215                     	;# 
  1468  0216                     	;# 
  1469  0216                     	;# 
  1470  0217                     	;# 
  1471  0217                     	;# 
  1472  0219                     	;# 
  1473  021A                     	;# 
  1474  021B                     	;# 
  1475  021C                     	;# 
  1476  021D                     	;# 
  1477  021E                     	;# 
  1478  021F                     	;# 
  1479  0291                     	;# 
  1480  0291                     	;# 
  1481  0292                     	;# 
  1482  0293                     	;# 
  1483  0294                     	;# 
  1484  0295                     	;# 
  1485  0295                     	;# 
  1486  0296                     	;# 
  1487  0298                     	;# 
  1488  0298                     	;# 
  1489  0299                     	;# 
  1490  029A                     	;# 
  1491  029B                     	;# 
  1492  029C                     	;# 
  1493  029C                     	;# 
  1494  029D                     	;# 
  1495  029E                     	;# 
  1496  029E                     	;# 
  1497  0311                     	;# 
  1498  0311                     	;# 
  1499  0312                     	;# 
  1500  0313                     	;# 
  1501  0318                     	;# 
  1502  0318                     	;# 
  1503  0319                     	;# 
  1504  031A                     	;# 
  1505  0394                     	;# 
  1506  0395                     	;# 
  1507  0396                     	;# 
  1508  039A                     	;# 
  1509  039C                     	;# 
  1510  039D                     	;# 
  1511  039E                     	;# 
  1512  039F                     	;# 
  1513  0415                     	;# 
  1514  0416                     	;# 
  1515  0417                     	;# 
  1516  041C                     	;# 
  1517  041D                     	;# 
  1518  041E                     	;# 
  1519  0FE4                     	;# 
  1520  0FE5                     	;# 
  1521  0FE6                     	;# 
  1522  0FE7                     	;# 
  1523  0FE8                     	;# 
  1524  0FE9                     	;# 
  1525  0FEA                     	;# 
  1526  0FEB                     	;# 
  1527  0FED                     	;# 
  1528  0FEE                     	;# 
  1529  0FEF                     	;# 
  1530  0000                     	;# 
  1531  0001                     	;# 
  1532  0002                     	;# 
  1533  0003                     	;# 
  1534  0004                     	;# 
  1535  0005                     	;# 
  1536  0006                     	;# 
  1537  0007                     	;# 
  1538  0008                     	;# 
  1539  0009                     	;# 
  1540  000A                     	;# 
  1541  000B                     	;# 
  1542  000C                     	;# 
  1543  000D                     	;# 
  1544  0011                     	;# 
  1545  0012                     	;# 
  1546  0013                     	;# 
  1547  0014                     	;# 
  1548  0015                     	;# 
  1549  0016                     	;# 
  1550  0016                     	;# 
  1551  0017                     	;# 
  1552  0018                     	;# 
  1553  0019                     	;# 
  1554  001A                     	;# 
  1555  001B                     	;# 
  1556  001C                     	;# 
  1557  001E                     	;# 
  1558  001F                     	;# 
  1559  008C                     	;# 
  1560  008D                     	;# 
  1561  0091                     	;# 
  1562  0092                     	;# 
  1563  0093                     	;# 
  1564  0094                     	;# 
  1565  0095                     	;# 
  1566  0096                     	;# 
  1567  0097                     	;# 
  1568  0098                     	;# 
  1569  0099                     	;# 
  1570  009A                     	;# 
  1571  009B                     	;# 
  1572  009B                     	;# 
  1573  009C                     	;# 
  1574  009D                     	;# 
  1575  009E                     	;# 
  1576  010C                     	;# 
  1577  010D                     	;# 
  1578  0111                     	;# 
  1579  0112                     	;# 
  1580  0113                     	;# 
  1581  0114                     	;# 
  1582  0115                     	;# 
  1583  0116                     	;# 
  1584  0117                     	;# 
  1585  0118                     	;# 
  1586  0119                     	;# 
  1587  011A                     	;# 
  1588  011B                     	;# 
  1589  011D                     	;# 
  1590  011E                     	;# 
  1591  018C                     	;# 
  1592  018D                     	;# 
  1593  0191                     	;# 
  1594  0191                     	;# 
  1595  0192                     	;# 
  1596  0193                     	;# 
  1597  0193                     	;# 
  1598  0193                     	;# 
  1599  0194                     	;# 
  1600  0195                     	;# 
  1601  0196                     	;# 
  1602  0199                     	;# 
  1603  019A                     	;# 
  1604  019B                     	;# 
  1605  019B                     	;# 
  1606  019B                     	;# 
  1607  019B                     	;# 
  1608  019C                     	;# 
  1609  019C                     	;# 
  1610  019D                     	;# 
  1611  019E                     	;# 
  1612  019F                     	;# 
  1613  020C                     	;# 
  1614  020D                     	;# 
  1615  0211                     	;# 
  1616  0211                     	;# 
  1617  0212                     	;# 
  1618  0212                     	;# 
  1619  0213                     	;# 
  1620  0213                     	;# 
  1621  0214                     	;# 
  1622  0214                     	;# 
  1623  0215                     	;# 
  1624  0215                     	;# 
  1625  0215                     	;# 
  1626  0216                     	;# 
  1627  0216                     	;# 
  1628  0217                     	;# 
  1629  0217                     	;# 
  1630  0219                     	;# 
  1631  021A                     	;# 
  1632  021B                     	;# 
  1633  021C                     	;# 
  1634  021D                     	;# 
  1635  021E                     	;# 
  1636  021F                     	;# 
  1637  0291                     	;# 
  1638  0291                     	;# 
  1639  0292                     	;# 
  1640  0293                     	;# 
  1641  0294                     	;# 
  1642  0295                     	;# 
  1643  0295                     	;# 
  1644  0296                     	;# 
  1645  0298                     	;# 
  1646  0298                     	;# 
  1647  0299                     	;# 
  1648  029A                     	;# 
  1649  029B                     	;# 
  1650  029C                     	;# 
  1651  029C                     	;# 
  1652  029D                     	;# 
  1653  029E                     	;# 
  1654  029E                     	;# 
  1655  0311                     	;# 
  1656  0311                     	;# 
  1657  0312                     	;# 
  1658  0313                     	;# 
  1659  0318                     	;# 
  1660  0318                     	;# 
  1661  0319                     	;# 
  1662  031A                     	;# 
  1663  0394                     	;# 
  1664  0395                     	;# 
  1665  0396                     	;# 
  1666  039A                     	;# 
  1667  039C                     	;# 
  1668  039D                     	;# 
  1669  039E                     	;# 
  1670  039F                     	;# 
  1671  0415                     	;# 
  1672  0416                     	;# 
  1673  0417                     	;# 
  1674  041C                     	;# 
  1675  041D                     	;# 
  1676  041E                     	;# 
  1677  0FE4                     	;# 
  1678  0FE5                     	;# 
  1679  0FE6                     	;# 
  1680  0FE7                     	;# 
  1681  0FE8                     	;# 
  1682  0FE9                     	;# 
  1683  0FEA                     	;# 
  1684  0FEB                     	;# 
  1685  0FED                     	;# 
  1686  0FEE                     	;# 
  1687  0FEF                     	;# 
  1688  0000                     	;# 
  1689  0001                     	;# 
  1690  0002                     	;# 
  1691  0003                     	;# 
  1692  0004                     	;# 
  1693  0005                     	;# 
  1694  0006                     	;# 
  1695  0007                     	;# 
  1696  0008                     	;# 
  1697  0009                     	;# 
  1698  000A                     	;# 
  1699  000B                     	;# 
  1700  000C                     	;# 
  1701  000D                     	;# 
  1702  0011                     	;# 
  1703  0012                     	;# 
  1704  0013                     	;# 
  1705  0014                     	;# 
  1706  0015                     	;# 
  1707  0016                     	;# 
  1708  0016                     	;# 
  1709  0017                     	;# 
  1710  0018                     	;# 
  1711  0019                     	;# 
  1712  001A                     	;# 
  1713  001B                     	;# 
  1714  001C                     	;# 
  1715  001E                     	;# 
  1716  001F                     	;# 
  1717  008C                     	;# 
  1718  008D                     	;# 
  1719  0091                     	;# 
  1720  0092                     	;# 
  1721  0093                     	;# 
  1722  0094                     	;# 
  1723  0095                     	;# 
  1724  0096                     	;# 
  1725  0097                     	;# 
  1726  0098                     	;# 
  1727  0099                     	;# 
  1728  009A                     	;# 
  1729  009B                     	;# 
  1730  009B                     	;# 
  1731  009C                     	;# 
  1732  009D                     	;# 
  1733  009E                     	;# 
  1734  010C                     	;# 
  1735  010D                     	;# 
  1736  0111                     	;# 
  1737  0112                     	;# 
  1738  0113                     	;# 
  1739  0114                     	;# 
  1740  0115                     	;# 
  1741  0116                     	;# 
  1742  0117                     	;# 
  1743  0118                     	;# 
  1744  0119                     	;# 
  1745  011A                     	;# 
  1746  011B                     	;# 
  1747  011D                     	;# 
  1748  011E                     	;# 
  1749  018C                     	;# 
  1750  018D                     	;# 
  1751  0191                     	;# 
  1752  0191                     	;# 
  1753  0192                     	;# 
  1754  0193                     	;# 
  1755  0193                     	;# 
  1756  0193                     	;# 
  1757  0194                     	;# 
  1758  0195                     	;# 
  1759  0196                     	;# 
  1760  0199                     	;# 
  1761  019A                     	;# 
  1762  019B                     	;# 
  1763  019B                     	;# 
  1764  019B                     	;# 
  1765  019B                     	;# 
  1766  019C                     	;# 
  1767  019C                     	;# 
  1768  019D                     	;# 
  1769  019E                     	;# 
  1770  019F                     	;# 
  1771  020C                     	;# 
  1772  020D                     	;# 
  1773  0211                     	;# 
  1774  0211                     	;# 
  1775  0212                     	;# 
  1776  0212                     	;# 
  1777  0213                     	;# 
  1778  0213                     	;# 
  1779  0214                     	;# 
  1780  0214                     	;# 
  1781  0215                     	;# 
  1782  0215                     	;# 
  1783  0215                     	;# 
  1784  0216                     	;# 
  1785  0216                     	;# 
  1786  0217                     	;# 
  1787  0217                     	;# 
  1788  0219                     	;# 
  1789  021A                     	;# 
  1790  021B                     	;# 
  1791  021C                     	;# 
  1792  021D                     	;# 
  1793  021E                     	;# 
  1794  021F                     	;# 
  1795  0291                     	;# 
  1796  0291                     	;# 
  1797  0292                     	;# 
  1798  0293                     	;# 
  1799  0294                     	;# 
  1800  0295                     	;# 
  1801  0295                     	;# 
  1802  0296                     	;# 
  1803  0298                     	;# 
  1804  0298                     	;# 
  1805  0299                     	;# 
  1806  029A                     	;# 
  1807  029B                     	;# 
  1808  029C                     	;# 
  1809  029C                     	;# 
  1810  029D                     	;# 
  1811  029E                     	;# 
  1812  029E                     	;# 
  1813  0311                     	;# 
  1814  0311                     	;# 
  1815  0312                     	;# 
  1816  0313                     	;# 
  1817  0318                     	;# 
  1818  0318                     	;# 
  1819  0319                     	;# 
  1820  031A                     	;# 
  1821  0394                     	;# 
  1822  0395                     	;# 
  1823  0396                     	;# 
  1824  039A                     	;# 
  1825  039C                     	;# 
  1826  039D                     	;# 
  1827  039E                     	;# 
  1828  039F                     	;# 
  1829  0415                     	;# 
  1830  0416                     	;# 
  1831  0417                     	;# 
  1832  041C                     	;# 
  1833  041D                     	;# 
  1834  041E                     	;# 
  1835  0FE4                     	;# 
  1836  0FE5                     	;# 
  1837  0FE6                     	;# 
  1838  0FE7                     	;# 
  1839  0FE8                     	;# 
  1840  0FE9                     	;# 
  1841  0FEA                     	;# 
  1842  0FEB                     	;# 
  1843  0FED                     	;# 
  1844  0FEE                     	;# 
  1845  0FEF                     	;# 
  1846  0000                     	;# 
  1847  0001                     	;# 
  1848  0002                     	;# 
  1849  0003                     	;# 
  1850  0004                     	;# 
  1851  0005                     	;# 
  1852  0006                     	;# 
  1853  0007                     	;# 
  1854  0008                     	;# 
  1855  0009                     	;# 
  1856  000A                     	;# 
  1857  000B                     	;# 
  1858  000C                     	;# 
  1859  000D                     	;# 
  1860  0011                     	;# 
  1861  0012                     	;# 
  1862  0013                     	;# 
  1863  0014                     	;# 
  1864  0015                     	;# 
  1865  0016                     	;# 
  1866  0016                     	;# 
  1867  0017                     	;# 
  1868  0018                     	;# 
  1869  0019                     	;# 
  1870  001A                     	;# 
  1871  001B                     	;# 
  1872  001C                     	;# 
  1873  001E                     	;# 
  1874  001F                     	;# 
  1875  008C                     	;# 
  1876  008D                     	;# 
  1877  0091                     	;# 
  1878  0092                     	;# 
  1879  0093                     	;# 
  1880  0094                     	;# 
  1881  0095                     	;# 
  1882  0096                     	;# 
  1883  0097                     	;# 
  1884  0098                     	;# 
  1885  0099                     	;# 
  1886  009A                     	;# 
  1887  009B                     	;# 
  1888  009B                     	;# 
  1889  009C                     	;# 
  1890  009D                     	;# 
  1891  009E                     	;# 
  1892  010C                     	;# 
  1893  010D                     	;# 
  1894  0111                     	;# 
  1895  0112                     	;# 
  1896  0113                     	;# 
  1897  0114                     	;# 
  1898  0115                     	;# 
  1899  0116                     	;# 
  1900  0117                     	;# 
  1901  0118                     	;# 
  1902  0119                     	;# 
  1903  011A                     	;# 
  1904  011B                     	;# 
  1905  011D                     	;# 
  1906  011E                     	;# 
  1907  018C                     	;# 
  1908  018D                     	;# 
  1909  0191                     	;# 
  1910  0191                     	;# 
  1911  0192                     	;# 
  1912  0193                     	;# 
  1913  0193                     	;# 
  1914  0193                     	;# 
  1915  0194                     	;# 
  1916  0195                     	;# 
  1917  0196                     	;# 
  1918  0199                     	;# 
  1919  019A                     	;# 
  1920  019B                     	;# 
  1921  019B                     	;# 
  1922  019B                     	;# 
  1923  019B                     	;# 
  1924  019C                     	;# 
  1925  019C                     	;# 
  1926  019D                     	;# 
  1927  019E                     	;# 
  1928  019F                     	;# 
  1929  020C                     	;# 
  1930  020D                     	;# 
  1931  0211                     	;# 
  1932  0211                     	;# 
  1933  0212                     	;# 
  1934  0212                     	;# 
  1935  0213                     	;# 
  1936  0213                     	;# 
  1937  0214                     	;# 
  1938  0214                     	;# 
  1939  0215                     	;# 
  1940  0215                     	;# 
  1941  0215                     	;# 
  1942  0216                     	;# 
  1943  0216                     	;# 
  1944  0217                     	;# 
  1945  0217                     	;# 
  1946  0219                     	;# 
  1947  021A                     	;# 
  1948  021B                     	;# 
  1949  021C                     	;# 
  1950  021D                     	;# 
  1951  021E                     	;# 
  1952  021F                     	;# 
  1953  0291                     	;# 
  1954  0291                     	;# 
  1955  0292                     	;# 
  1956  0293                     	;# 
  1957  0294                     	;# 
  1958  0295                     	;# 
  1959  0295                     	;# 
  1960  0296                     	;# 
  1961  0298                     	;# 
  1962  0298                     	;# 
  1963  0299                     	;# 
  1964  029A                     	;# 
  1965  029B                     	;# 
  1966  029C                     	;# 
  1967  029C                     	;# 
  1968  029D                     	;# 
  1969  029E                     	;# 
  1970  029E                     	;# 
  1971  0311                     	;# 
  1972  0311                     	;# 
  1973  0312                     	;# 
  1974  0313                     	;# 
  1975  0318                     	;# 
  1976  0318                     	;# 
  1977  0319                     	;# 
  1978  031A                     	;# 
  1979  0394                     	;# 
  1980  0395                     	;# 
  1981  0396                     	;# 
  1982  039A                     	;# 
  1983  039C                     	;# 
  1984  039D                     	;# 
  1985  039E                     	;# 
  1986  039F                     	;# 
  1987  0415                     	;# 
  1988  0416                     	;# 
  1989  0417                     	;# 
  1990  041C                     	;# 
  1991  041D                     	;# 
  1992  041E                     	;# 
  1993  0FE4                     	;# 
  1994  0FE5                     	;# 
  1995  0FE6                     	;# 
  1996  0FE7                     	;# 
  1997  0FE8                     	;# 
  1998  0FE9                     	;# 
  1999  0FEA                     	;# 
  2000  0FEB                     	;# 
  2001  0FED                     	;# 
  2002  0FEE                     	;# 
  2003  0FEF                     	;# 
  2004  0000                     	;# 
  2005  0001                     	;# 
  2006  0002                     	;# 
  2007  0003                     	;# 
  2008  0004                     	;# 
  2009  0005                     	;# 
  2010  0006                     	;# 
  2011  0007                     	;# 
  2012  0008                     	;# 
  2013  0009                     	;# 
  2014  000A                     	;# 
  2015  000B                     	;# 
  2016  000C                     	;# 
  2017  000D                     	;# 
  2018  0011                     	;# 
  2019  0012                     	;# 
  2020  0013                     	;# 
  2021  0014                     	;# 
  2022  0015                     	;# 
  2023  0016                     	;# 
  2024  0016                     	;# 
  2025  0017                     	;# 
  2026  0018                     	;# 
  2027  0019                     	;# 
  2028  001A                     	;# 
  2029  001B                     	;# 
  2030  001C                     	;# 
  2031  001E                     	;# 
  2032  001F                     	;# 
  2033  008C                     	;# 
  2034  008D                     	;# 
  2035  0091                     	;# 
  2036  0092                     	;# 
  2037  0093                     	;# 
  2038  0094                     	;# 
  2039  0095                     	;# 
  2040  0096                     	;# 
  2041  0097                     	;# 
  2042  0098                     	;# 
  2043  0099                     	;# 
  2044  009A                     	;# 
  2045  009B                     	;# 
  2046  009B                     	;# 
  2047  009C                     	;# 
  2048  009D                     	;# 
  2049  009E                     	;# 
  2050  010C                     	;# 
  2051  010D                     	;# 
  2052  0111                     	;# 
  2053  0112                     	;# 
  2054  0113                     	;# 
  2055  0114                     	;# 
  2056  0115                     	;# 
  2057  0116                     	;# 
  2058  0117                     	;# 
  2059  0118                     	;# 
  2060  0119                     	;# 
  2061  011A                     	;# 
  2062  011B                     	;# 
  2063  011D                     	;# 
  2064  011E                     	;# 
  2065  018C                     	;# 
  2066  018D                     	;# 
  2067  0191                     	;# 
  2068  0191                     	;# 
  2069  0192                     	;# 
  2070  0193                     	;# 
  2071  0193                     	;# 
  2072  0193                     	;# 
  2073  0194                     	;# 
  2074  0195                     	;# 
  2075  0196                     	;# 
  2076  0199                     	;# 
  2077  019A                     	;# 
  2078  019B                     	;# 
  2079  019B                     	;# 
  2080  019B                     	;# 
  2081  019B                     	;# 
  2082  019C                     	;# 
  2083  019C                     	;# 
  2084  019D                     	;# 
  2085  019E                     	;# 
  2086  019F                     	;# 
  2087  020C                     	;# 
  2088  020D                     	;# 
  2089  0211                     	;# 
  2090  0211                     	;# 
  2091  0212                     	;# 
  2092  0212                     	;# 
  2093  0213                     	;# 
  2094  0213                     	;# 
  2095  0214                     	;# 
  2096  0214                     	;# 
  2097  0215                     	;# 
  2098  0215                     	;# 
  2099  0215                     	;# 
  2100  0216                     	;# 
  2101  0216                     	;# 
  2102  0217                     	;# 
  2103  0217                     	;# 
  2104  0219                     	;# 
  2105  021A                     	;# 
  2106  021B                     	;# 
  2107  021C                     	;# 
  2108  021D                     	;# 
  2109  021E                     	;# 
  2110  021F                     	;# 
  2111  0291                     	;# 
  2112  0291                     	;# 
  2113  0292                     	;# 
  2114  0293                     	;# 
  2115  0294                     	;# 
  2116  0295                     	;# 
  2117  0295                     	;# 
  2118  0296                     	;# 
  2119  0298                     	;# 
  2120  0298                     	;# 
  2121  0299                     	;# 
  2122  029A                     	;# 
  2123  029B                     	;# 
  2124  029C                     	;# 
  2125  029C                     	;# 
  2126  029D                     	;# 
  2127  029E                     	;# 
  2128  029E                     	;# 
  2129  0311                     	;# 
  2130  0311                     	;# 
  2131  0312                     	;# 
  2132  0313                     	;# 
  2133  0318                     	;# 
  2134  0318                     	;# 
  2135  0319                     	;# 
  2136  031A                     	;# 
  2137  0394                     	;# 
  2138  0395                     	;# 
  2139  0396                     	;# 
  2140  039A                     	;# 
  2141  039C                     	;# 
  2142  039D                     	;# 
  2143  039E                     	;# 
  2144  039F                     	;# 
  2145  0415                     	;# 
  2146  0416                     	;# 
  2147  0417                     	;# 
  2148  041C                     	;# 
  2149  041D                     	;# 
  2150  041E                     	;# 
  2151  0FE4                     	;# 
  2152  0FE5                     	;# 
  2153  0FE6                     	;# 
  2154  0FE7                     	;# 
  2155  0FE8                     	;# 
  2156  0FE9                     	;# 
  2157  0FEA                     	;# 
  2158  0FEB                     	;# 
  2159  0FED                     	;# 
  2160  0FEE                     	;# 
  2161  0FEF                     	;# 
  2162                           
  2163 ;; Function _EUSART_DefaultFramingErrorHandler is unused but had its address taken
  2164  0000                     
  2165 ;; Function _EUSART_DefaultOverrunErrorHandler is unused but had its address taken
  2166  0000                     
  2167 ;; Function _EUSART_DefaultErrorHandler is unused but had its address taken
  2168  0000                     
  2169                           	psect	nvCOMMON
  2170  007B                     __pnvCOMMON:
  2171  007B                     _timer1ReloadVal:
  2172  007B                     	ds	2
  2173                           
  2174                           	psect	nvBANK0
  2175  0069                     __pnvBANK0:
  2176  0069                     _IOCBF3_InterruptHandler:
  2177  0069                     	ds	2
  2178  006B                     _IOCBF0_InterruptHandler:
  2179  006B                     	ds	2
  2180  006D                     _TMR4_InterruptHandler:
  2181  006D                     	ds	2
  2182                           
  2183                           	psect	nvBANK1
  2184  00B7                     __pnvBANK1:
  2185  00B7                     _IOCBF5_InterruptHandler:
  2186  00B7                     	ds	2
  2187  00B9                     _IOCBF4_InterruptHandler:
  2188  00B9                     	ds	2
  2189  00BB                     _CCP4_CallBack:
  2190  00BB                     	ds	2
  2191  00BD                     _EUSART_ErrorHandler:
  2192  00BD                     	ds	2
  2193  00BF                     _EUSART_OverrunErrorHandler:
  2194  00BF                     	ds	2
  2195  00C1                     _EUSART_FramingErrorHandler:
  2196  00C1                     	ds	2
  2197  000B                     _INTCONbits	set	11
  2198  0013                     _PIR3bits	set	19
  2199  001C                     _T2CONbits	set	28
  2200  001C                     _T2CON	set	28
  2201  001A                     _TMR2	set	26
  2202  001B                     _PR2	set	27
  2203  0019                     _T1GCONbits	set	25
  2204  0018                     _T1CONbits	set	24
  2205  0018                     _T1CON	set	24
  2206  0016                     _TMR1L	set	22
  2207  0017                     _TMR1H	set	23
  2208  0019                     _T1GCON	set	25
  2209  0011                     _PIR1bits	set	17
  2210  0095                     _OPTION_REGbits	set	149
  2211  008D                     _TRISB	set	141
  2212  008C                     _TRISA	set	140
  2213  009D                     _ADCON0bits	set	157
  2214  009D                     _ADCON0	set	157
  2215  009C                     _ADRESH	set	156
  2216  009B                     _ADRESL	set	155
  2217  009E                     _ADCON1	set	158
  2218  0093                     _PIE3bits	set	147
  2219  0097                     _WDTCON	set	151
  2220  0098                     _OSCTUNE	set	152
  2221  0099                     _OSCCON	set	153
  2222  011E                     _APFCON1	set	286
  2223  011D                     _APFCON0	set	285
  2224  010D                     _LATB	set	269
  2225  010C                     _LATA	set	268
  2226  0117                     _FVRCONbits	set	279
  2227  0117                     _FVRCON	set	279
  2228  0116                     _BORCON	set	278
  2229  018C                     _ANSELA	set	396
  2230  018D                     _ANSELB	set	397
  2231  019A                     _TXREG	set	410
  2232  0199                     _RCREG	set	409
  2233  019D                     _RCSTAbits	set	413
  2234  019E                     _TXSTAbits	set	414
  2235  019C                     _SPBRGH	set	412
  2236  019B                     _SPBRGL	set	411
  2237  019E                     _TXSTA	set	414
  2238  019D                     _RCSTA	set	413
  2239  019F                     _BAUDCON	set	415
  2240  020C                     _WPUA	set	524
  2241  020D                     _WPUB	set	525
  2242  029E                     _CCPTMRS0bits	set	670
  2243  0312                     _CCPR3H	set	786
  2244  0311                     _CCPR3L	set	785
  2245  0313                     _CCP3CON	set	787
  2246  0319                     _CCPR4H	set	793
  2247  0318                     _CCPR4L	set	792
  2248  031A                     _CCP4CON	set	794
  2249  0394                     _IOCBPbits	set	916
  2250  0395                     _IOCBNbits	set	917
  2251  0396                     _IOCBFbits	set	918
  2252  0417                     _T4CONbits	set	1047
  2253  0417                     _T4CON	set	1047
  2254  0415                     _TMR4	set	1045
  2255  0416                     _PR4	set	1046
  2256                           
  2257                           	psect	cinit
  2258  0036                     start_initialization:	
  2259                           ; #config settings
  2260                           
  2261  0036                     __initialization:
  2262                           
  2263                           ; Clear objects allocated to COMMON
  2264  0036  01F7               	clrf	__pbssCOMMON& (0+127)
  2265  0037  01F8               	clrf	(__pbssCOMMON+1)& (0+127)
  2266  0038  01F9               	clrf	(__pbssCOMMON+2)& (0+127)
  2267  0039  01FA               	clrf	(__pbssCOMMON+3)& (0+127)
  2268                           
  2269                           ; Clear objects allocated to BANK0
  2270  003A  0020               	movlb	0	; select bank0
  2271  003B  01EF               	clrf	__pbssBANK0& (0+127)
  2272                           
  2273                           ; Clear objects allocated to BANK1
  2274  003C  30A0               	movlw	low __pbssBANK1
  2275  003D  0084               	movwf	4
  2276  003E  3000               	movlw	high __pbssBANK1
  2277  003F  0085               	movwf	5
  2278  0040  3017               	movlw	23
  2279  0041  318E  265B  3180   	fcall	clear_ram0
  2280  0044                     end_of_initialization:	
  2281                           ;End of C runtime variable initialization code
  2282                           
  2283  0044                     __end_of__initialization:
  2284  0044  107E               	bcf	int$flags,0	;clear compiler interrupt flag (level 1)
  2285  0045  0020               	movlb	0
  2286  0046  3187  2F4E         	ljmp	_main	;jump to C main() function
  2287                           
  2288                           	psect	bssCOMMON
  2289  0077                     __pbssCOMMON:
  2290  0077                     _aux_tempo:
  2291  0077                     	ds	2
  2292  0079                     _ADC_InterruptHandler:
  2293  0079                     	ds	2
  2294                           
  2295                           	psect	bssBANK0
  2296  006F                     __pbssBANK0:
  2297  006F                     _eusartRxLastError:
  2298  006F                     	ds	1
  2299                           
  2300                           	psect	bssBANK1
  2301  00A0                     __pbssBANK1:
  2302  00A0                     _byte:
  2303  00A0                     	ds	5
  2304  00A5                     _and_origem:
  2305  00A5                     	ds	2
  2306  00A7                     _and_dst:
  2307  00A7                     	ds	2
  2308  00A9                     _and_ating:
  2309  00A9                     	ds	1
  2310  00AA                     _state_motor:
  2311  00AA                     	ds	1
  2312  00AB                     _temp_mt:
  2313  00AB                     	ds	4
  2314  00AF                     _I_m:
  2315  00AF                     	ds	4
  2316  00B3                     _ccp_value:
  2317  00B3                     	ds	2
  2318  00B5                     _pulses:
  2319  00B5                     	ds	2
  2320                           
  2321                           	psect	clrtext
  2322  0E5B                     clear_ram0:	
  2323                           ;	Called with FSR0 containing the base address, and
  2324                           ;	WREG with the size to clear
  2325                           
  2326  0E5B  0064               	clrwdt	;clear the watchdog before getting into this loop
  2327  0E5C                     clrloop0:
  2328  0E5C  0180               	clrf	0	;clear RAM location pointed to by FSR
  2329  0E5D  3101               	addfsr 0,1
  2330  0E5E  0B89               	decfsz	9,f	;Have we reached the end of clearing yet?
  2331  0E5F  2E5C               	goto	clrloop0	;have we reached the end yet?
  2332  0E60  3400               	retlw	0	;all done for this memory range, return
  2333                           
  2334                           	psect	cstackBANK1
  2335  00C3                     __pcstackBANK1:
  2336  00C3                     comunicacao@speed:
  2337                           
  2338                           ; 4 bytes @ 0x0
  2339  00C3                     	ds	4
  2340  00C7                     comunicacao@position:
  2341                           
  2342                           ; 4 bytes @ 0x4
  2343  00C7                     	ds	4
  2344  00CB                     comunicacao@aux:
  2345                           
  2346                           ; 1 bytes @ 0x8
  2347  00CB                     	ds	1
  2348                           
  2349                           	psect	cstackCOMMON
  2350  0070                     __pcstackCOMMON:
  2351  0070                     ?_PIN_MANAGER_Initialize:
  2352  0070                     ?_OSCILLATOR_Initialize:	
  2353                           ; 1 bytes @ 0x0
  2354                           
  2355  0070                     ?_WDT_Initialize:	
  2356                           ; 1 bytes @ 0x0
  2357                           
  2358  0070                     ?_FVR_Initialize:	
  2359                           ; 1 bytes @ 0x0
  2360                           
  2361  0070                     ?_CCP4_Initialize:	
  2362                           ; 1 bytes @ 0x0
  2363                           
  2364  0070                     ?_ADC_Initialize:	
  2365                           ; 1 bytes @ 0x0
  2366                           
  2367  0070                     ?_TMR4_Initialize:	
  2368                           ; 1 bytes @ 0x0
  2369                           
  2370  0070                     ?_PWM3_Initialize:	
  2371                           ; 1 bytes @ 0x0
  2372                           
  2373  0070                     ?_TMR2_Initialize:	
  2374                           ; 1 bytes @ 0x0
  2375                           
  2376  0070                     ?_TMR1_Initialize:	
  2377                           ; 1 bytes @ 0x0
  2378                           
  2379  0070                     ?_TMR4_DefaultInterruptHandler:	
  2380                           ; 1 bytes @ 0x0
  2381                           
  2382  0070                     ??_TMR4_DefaultInterruptHandler:	
  2383                           ; 1 bytes @ 0x0
  2384                           
  2385  0070                     ?_PIN_MANAGER_IOC:	
  2386                           ; 1 bytes @ 0x0
  2387                           
  2388  0070                     ?_CCP4_CaptureISR:	
  2389                           ; 1 bytes @ 0x0
  2390                           
  2391  0070                     ?_IOCBF0_DefaultInterruptHandler:	
  2392                           ; 1 bytes @ 0x0
  2393                           
  2394  0070                     ??_IOCBF0_DefaultInterruptHandler:	
  2395                           ; 1 bytes @ 0x0
  2396                           
  2397  0070                     ?_IOCBF3_DefaultInterruptHandler:	
  2398                           ; 1 bytes @ 0x0
  2399                           
  2400  0070                     ??_IOCBF3_DefaultInterruptHandler:	
  2401                           ; 1 bytes @ 0x0
  2402                           
  2403  0070                     ?_IOCBF4_DefaultInterruptHandler:	
  2404                           ; 1 bytes @ 0x0
  2405                           
  2406  0070                     ??_IOCBF4_DefaultInterruptHandler:	
  2407                           ; 1 bytes @ 0x0
  2408                           
  2409  0070                     ?_IOCBF5_DefaultInterruptHandler:	
  2410                           ; 1 bytes @ 0x0
  2411                           
  2412  0070                     ??_IOCBF5_DefaultInterruptHandler:	
  2413                           ; 1 bytes @ 0x0
  2414                           
  2415  0070                     ?_IOCBF0_ISR:	
  2416                           ; 1 bytes @ 0x0
  2417                           
  2418  0070                     ??_IOCBF0_ISR:	
  2419                           ; 1 bytes @ 0x0
  2420                           
  2421  0070                     ?_IOCBF3_ISR:	
  2422                           ; 1 bytes @ 0x0
  2423                           
  2424  0070                     ??_IOCBF3_ISR:	
  2425                           ; 1 bytes @ 0x0
  2426                           
  2427  0070                     ?_IOCBF4_ISR:	
  2428                           ; 1 bytes @ 0x0
  2429                           
  2430  0070                     ?_IOCBF5_ISR:	
  2431                           ; 1 bytes @ 0x0
  2432                           
  2433  0070                     ?_comunicacao:	
  2434                           ; 1 bytes @ 0x0
  2435                           
  2436  0070                     ?_controle:	
  2437                           ; 1 bytes @ 0x0
  2438                           
  2439  0070                     ?_gerenciamento:	
  2440                           ; 1 bytes @ 0x0
  2441                           
  2442  0070                     ?_EUSART_Initialize:	
  2443                           ; 1 bytes @ 0x0
  2444                           
  2445  0070                     ?_EUSART_is_tx_ready:	
  2446                           ; 1 bytes @ 0x0
  2447                           
  2448  0070                     ??_EUSART_is_tx_ready:	
  2449                           ; 1 bytes @ 0x0
  2450                           
  2451  0070                     ?_EUSART_is_rx_ready:	
  2452                           ; 1 bytes @ 0x0
  2453                           
  2454  0070                     ?_EUSART_Read:	
  2455                           ; 1 bytes @ 0x0
  2456                           
  2457  0070                     ?_EUSART_Write:	
  2458                           ; 1 bytes @ 0x0
  2459                           
  2460  0070                     ??_EUSART_Write:	
  2461                           ; 1 bytes @ 0x0
  2462                           
  2463  0070                     ?_SYSTEM_Initialize:	
  2464                           ; 1 bytes @ 0x0
  2465                           
  2466  0070                     ?_TMR1_WriteTimer:	
  2467                           ; 1 bytes @ 0x0
  2468                           
  2469  0070                     ?_TMR4_ISR:	
  2470                           ; 1 bytes @ 0x0
  2471                           
  2472  0070                     ?_INTERRUPT_InterruptManager:	
  2473                           ; 1 bytes @ 0x0
  2474                           
  2475  0070                     ?_send_data:	
  2476                           ; 1 bytes @ 0x0
  2477                           
  2478  0070                     ?_sensor1:	
  2479                           ; 1 bytes @ 0x0
  2480                           
  2481  0070                     ??_sensor1:	
  2482                           ; 1 bytes @ 0x0
  2483                           
  2484  0070                     ?_sensor2:	
  2485                           ; 1 bytes @ 0x0
  2486                           
  2487  0070                     ??_sensor2:	
  2488                           ; 1 bytes @ 0x0
  2489                           
  2490  0070                     ?_sensor3:	
  2491                           ; 1 bytes @ 0x0
  2492                           
  2493  0070                     ??_sensor3:	
  2494                           ; 1 bytes @ 0x0
  2495                           
  2496  0070                     ?_sensor4:	
  2497                           ; 1 bytes @ 0x0
  2498                           
  2499  0070                     ??_sensor4:	
  2500                           ; 1 bytes @ 0x0
  2501                           
  2502  0070                     ?_main:	
  2503                           ; 1 bytes @ 0x0
  2504                           
  2505  0070                     _EUSART_is_tx_ready$167:	
  2506                           ; 1 bytes @ 0x0
  2507                           
  2508  0070                     EUSART_Write@txData:	
  2509                           ; 1 bytes @ 0x0
  2510                           
  2511  0070                     TMR1_WriteTimer@timerVal:	
  2512                           ; 1 bytes @ 0x0
  2513                           
  2514                           
  2515                           ; 2 bytes @ 0x0
  2516  0070                     	ds	1
  2517  0071                     ??_PIN_MANAGER_IOC:
  2518  0071                     ??_IOCBF4_ISR:	
  2519                           ; 1 bytes @ 0x1
  2520                           
  2521  0071                     ??_IOCBF5_ISR:	
  2522                           ; 1 bytes @ 0x1
  2523                           
  2524  0071                     ??_send_data:	
  2525                           ; 1 bytes @ 0x1
  2526                           
  2527                           
  2528                           ; 1 bytes @ 0x1
  2529  0071                     	ds	1
  2530  0072                     ??_TMR1_WriteTimer:
  2531  0072                     ?_CCP4_DefaultCallBack:	
  2532                           ; 1 bytes @ 0x2
  2533                           
  2534  0072                     ?_get_pulse:	
  2535                           ; 1 bytes @ 0x2
  2536                           
  2537  0072                     CCP4_DefaultCallBack@capturedValue:	
  2538                           ; 1 bytes @ 0x2
  2539                           
  2540  0072                     send_data@i:	
  2541                           ; 2 bytes @ 0x2
  2542                           
  2543  0072                     get_pulse@capturedValue:	
  2544                           ; 2 bytes @ 0x2
  2545                           
  2546                           
  2547                           ; 2 bytes @ 0x2
  2548  0072                     	ds	2
  2549  0074                     ??_CCP4_CaptureISR:
  2550  0074                     ??_TMR4_ISR:	
  2551                           ; 1 bytes @ 0x4
  2552                           
  2553  0074                     ??_CCP4_DefaultCallBack:	
  2554                           ; 1 bytes @ 0x4
  2555                           
  2556  0074                     ??_get_pulse:	
  2557                           ; 1 bytes @ 0x4
  2558                           
  2559                           
  2560                           ; 1 bytes @ 0x4
  2561  0074                     	ds	1
  2562  0075                     CCP4_CaptureISR@module:
  2563                           
  2564                           ; 2 bytes @ 0x5
  2565  0075                     	ds	2
  2566  0077                     ??_INTERRUPT_InterruptManager:
  2567                           
  2568                           	psect	cstackBANK0
  2569  0020                     __pcstackBANK0:	
  2570                           ; 1 bytes @ 0x7
  2571                           
  2572  0020                     ?_EUSART_SetFramingErrorHandler:
  2573  0020                     ?_EUSART_SetOverrunErrorHandler:	
  2574                           ; 1 bytes @ 0x0
  2575                           
  2576  0020                     ?_EUSART_SetErrorHandler:	
  2577                           ; 1 bytes @ 0x0
  2578                           
  2579  0020                     ??_OSCILLATOR_Initialize:	
  2580                           ; 1 bytes @ 0x0
  2581                           
  2582  0020                     ??_WDT_Initialize:	
  2583                           ; 1 bytes @ 0x0
  2584                           
  2585  0020                     ??_FVR_Initialize:	
  2586                           ; 1 bytes @ 0x0
  2587                           
  2588  0020                     ??_ADC_Initialize:	
  2589                           ; 1 bytes @ 0x0
  2590                           
  2591  0020                     ??_PWM3_Initialize:	
  2592                           ; 1 bytes @ 0x0
  2593                           
  2594  0020                     ??_TMR2_Initialize:	
  2595                           ; 1 bytes @ 0x0
  2596                           
  2597  0020                     ??_TMR1_Initialize:	
  2598                           ; 1 bytes @ 0x0
  2599                           
  2600  0020                     ?_TMR4_SetInterruptHandler:	
  2601                           ; 1 bytes @ 0x0
  2602                           
  2603  0020                     ?_CCP4_SetCallBack:	
  2604                           ; 1 bytes @ 0x0
  2605                           
  2606  0020                     ?_IOCBF0_SetInterruptHandler:	
  2607                           ; 1 bytes @ 0x0
  2608                           
  2609  0020                     ?_IOCBF3_SetInterruptHandler:	
  2610                           ; 1 bytes @ 0x0
  2611                           
  2612  0020                     ?_IOCBF4_SetInterruptHandler:	
  2613                           ; 1 bytes @ 0x0
  2614                           
  2615  0020                     ?_IOCBF5_SetInterruptHandler:	
  2616                           ; 1 bytes @ 0x0
  2617                           
  2618  0020                     ??_gerenciamento:	
  2619                           ; 1 bytes @ 0x0
  2620                           
  2621  0020                     ??_EUSART_is_rx_ready:	
  2622                           ; 1 bytes @ 0x0
  2623                           
  2624  0020                     ??_EUSART_Read:	
  2625                           ; 1 bytes @ 0x0
  2626                           
  2627  0020                     ?__Umul8_16:	
  2628                           ; 1 bytes @ 0x0
  2629                           
  2630  0020                     ?_ADC_GetConversion:	
  2631                           ; 2 bytes @ 0x0
  2632                           
  2633  0020                     ?___fltol:	
  2634                           ; 2 bytes @ 0x0
  2635                           
  2636  0020                     __Umul8_16@multiplicand:	
  2637                           ; 4 bytes @ 0x0
  2638                           
  2639  0020                     EUSART_SetFramingErrorHandler@interruptHandler:	
  2640                           ; 1 bytes @ 0x0
  2641                           
  2642  0020                     EUSART_SetOverrunErrorHandler@interruptHandler:	
  2643                           ; 2 bytes @ 0x0
  2644                           
  2645  0020                     EUSART_SetErrorHandler@interruptHandler:	
  2646                           ; 2 bytes @ 0x0
  2647                           
  2648  0020                     TMR4_SetInterruptHandler@InterruptHandler:	
  2649                           ; 2 bytes @ 0x0
  2650                           
  2651  0020                     CCP4_SetCallBack@customCallBack:	
  2652                           ; 2 bytes @ 0x0
  2653                           
  2654  0020                     IOCBF0_SetInterruptHandler@InterruptHandler:	
  2655                           ; 2 bytes @ 0x0
  2656                           
  2657  0020                     IOCBF3_SetInterruptHandler@InterruptHandler:	
  2658                           ; 2 bytes @ 0x0
  2659                           
  2660  0020                     IOCBF4_SetInterruptHandler@InterruptHandler:	
  2661                           ; 2 bytes @ 0x0
  2662                           
  2663  0020                     IOCBF5_SetInterruptHandler@InterruptHandler:	
  2664                           ; 2 bytes @ 0x0
  2665                           
  2666  0020                     ___fltol@f1:	
  2667                           ; 2 bytes @ 0x0
  2668                           
  2669                           
  2670                           ; 4 bytes @ 0x0
  2671  0020                     	ds	2
  2672  0022                     ??_EUSART_SetFramingErrorHandler:
  2673  0022                     ??_EUSART_SetOverrunErrorHandler:	
  2674                           ; 1 bytes @ 0x2
  2675                           
  2676  0022                     ??_EUSART_SetErrorHandler:	
  2677                           ; 1 bytes @ 0x2
  2678                           
  2679  0022                     ??_PIN_MANAGER_Initialize:	
  2680                           ; 1 bytes @ 0x2
  2681                           
  2682  0022                     ??_CCP4_Initialize:	
  2683                           ; 1 bytes @ 0x2
  2684                           
  2685  0022                     ??_TMR4_Initialize:	
  2686                           ; 1 bytes @ 0x2
  2687                           
  2688  0022                     ??_TMR4_SetInterruptHandler:	
  2689                           ; 1 bytes @ 0x2
  2690                           
  2691  0022                     ??_CCP4_SetCallBack:	
  2692                           ; 1 bytes @ 0x2
  2693                           
  2694  0022                     ??_IOCBF0_SetInterruptHandler:	
  2695                           ; 1 bytes @ 0x2
  2696                           
  2697  0022                     ??_IOCBF3_SetInterruptHandler:	
  2698                           ; 1 bytes @ 0x2
  2699                           
  2700  0022                     ??_IOCBF4_SetInterruptHandler:	
  2701                           ; 1 bytes @ 0x2
  2702                           
  2703  0022                     ??_IOCBF5_SetInterruptHandler:	
  2704                           ; 1 bytes @ 0x2
  2705                           
  2706  0022                     ??__Umul8_16:	
  2707                           ; 1 bytes @ 0x2
  2708                           
  2709  0022                     ??_EUSART_Initialize:	
  2710                           ; 1 bytes @ 0x2
  2711                           
  2712  0022                     ??_SYSTEM_Initialize:	
  2713                           ; 1 bytes @ 0x2
  2714                           
  2715  0022                     ??_ADC_GetConversion:	
  2716                           ; 1 bytes @ 0x2
  2717                           
  2718                           
  2719                           ; 1 bytes @ 0x2
  2720  0022                     	ds	1
  2721  0023                     ADC_GetConversion@channel:
  2722                           
  2723                           ; 1 bytes @ 0x3
  2724  0023                     	ds	1
  2725  0024                     ??___fltol:
  2726  0024                     ?___xxtofl:	
  2727                           ; 1 bytes @ 0x4
  2728                           
  2729  0024                     __Umul8_16@product:	
  2730                           ; 4 bytes @ 0x4
  2731                           
  2732  0024                     ___xxtofl@val:	
  2733                           ; 2 bytes @ 0x4
  2734                           
  2735                           
  2736                           ; 4 bytes @ 0x4
  2737  0024                     	ds	2
  2738  0026                     __Umul8_16@word_mpld:
  2739                           
  2740                           ; 2 bytes @ 0x6
  2741  0026                     	ds	2
  2742  0028                     ??___xxtofl:
  2743  0028                     __Umul8_16@multiplier:	
  2744                           ; 1 bytes @ 0x8
  2745                           
  2746                           
  2747                           ; 1 bytes @ 0x8
  2748  0028                     	ds	1
  2749  0029                     ___fltol@sign1:
  2750                           
  2751                           ; 1 bytes @ 0x9
  2752  0029                     	ds	1
  2753  002A                     ___fltol@exp1:
  2754                           
  2755                           ; 1 bytes @ 0xA
  2756  002A                     	ds	2
  2757  002C                     ___xxtofl@sign:
  2758                           
  2759                           ; 1 bytes @ 0xC
  2760  002C                     	ds	1
  2761  002D                     ___xxtofl@exp:
  2762                           
  2763                           ; 1 bytes @ 0xD
  2764  002D                     	ds	1
  2765  002E                     ___xxtofl@arg:
  2766                           
  2767                           ; 4 bytes @ 0xE
  2768  002E                     	ds	4
  2769  0032                     ?___flmul:
  2770  0032                     ___flmul@b:	
  2771                           ; 4 bytes @ 0x12
  2772                           
  2773                           
  2774                           ; 4 bytes @ 0x12
  2775  0032                     	ds	4
  2776  0036                     ___flmul@a:
  2777                           
  2778                           ; 4 bytes @ 0x16
  2779  0036                     	ds	4
  2780  003A                     ??___flmul:
  2781                           
  2782                           ; 1 bytes @ 0x1A
  2783  003A                     	ds	5
  2784  003F                     ___flmul@sign:
  2785                           
  2786                           ; 1 bytes @ 0x1F
  2787  003F                     	ds	1
  2788  0040                     ___flmul@grs:
  2789                           
  2790                           ; 4 bytes @ 0x20
  2791  0040                     	ds	4
  2792  0044                     ___flmul@aexp:
  2793                           
  2794                           ; 1 bytes @ 0x24
  2795  0044                     	ds	1
  2796  0045                     ___flmul@bexp:
  2797                           
  2798                           ; 1 bytes @ 0x25
  2799  0045                     	ds	1
  2800  0046                     ___flmul@prod:
  2801                           
  2802                           ; 4 bytes @ 0x26
  2803  0046                     	ds	4
  2804  004A                     ___flmul@temp:
  2805                           
  2806                           ; 2 bytes @ 0x2A
  2807  004A                     	ds	2
  2808  004C                     ??_controle:
  2809  004C                     ?___fldiv:	
  2810                           ; 1 bytes @ 0x2C
  2811                           
  2812  004C                     ___fldiv@a:	
  2813                           ; 4 bytes @ 0x2C
  2814                           
  2815                           
  2816                           ; 4 bytes @ 0x2C
  2817  004C                     	ds	4
  2818  0050                     ___fldiv@b:
  2819                           
  2820                           ; 4 bytes @ 0x30
  2821  0050                     	ds	4
  2822  0054                     ??___fldiv:
  2823                           
  2824                           ; 1 bytes @ 0x34
  2825  0054                     	ds	5
  2826  0059                     ___fldiv@rem:
  2827                           
  2828                           ; 4 bytes @ 0x39
  2829  0059                     	ds	4
  2830  005D                     ___fldiv@sign:
  2831                           
  2832                           ; 1 bytes @ 0x3D
  2833  005D                     	ds	1
  2834  005E                     ___fldiv@new_exp:
  2835                           
  2836                           ; 2 bytes @ 0x3E
  2837  005E                     	ds	2
  2838  0060                     ___fldiv@grs:
  2839                           
  2840                           ; 4 bytes @ 0x40
  2841  0060                     	ds	4
  2842  0064                     ___fldiv@bexp:
  2843                           
  2844                           ; 1 bytes @ 0x44
  2845  0064                     	ds	1
  2846  0065                     ___fldiv@aexp:
  2847                           
  2848                           ; 1 bytes @ 0x45
  2849  0065                     	ds	1
  2850  0066                     ??_comunicacao:
  2851                           
  2852                           ; 1 bytes @ 0x46
  2853  0066                     	ds	3
  2854  0069                     ??_main:
  2855                           
  2856                           	psect	maintext
  2857  074E                     __pmaintext:	
  2858                           ; 1 bytes @ 0x49
  2859 ;;
  2860 ;;Main: autosize = 0, tempsize = 0, incstack = 0, save=0
  2861 ;;
  2862 ;; *************** function _main *****************
  2863 ;; Defined at:
  2864 ;;		line 91 in file "main.c"
  2865 ;; Parameters:    Size  Location     Type
  2866 ;;		None
  2867 ;; Auto vars:     Size  Location     Type
  2868 ;;		None
  2869 ;; Return value:  Size  Location     Type
  2870 ;;                  1    wreg      void 
  2871 ;; Registers used:
  2872 ;;		wreg, status,2, status,0, pclath, cstack
  2873 ;; Tracked objects:
  2874 ;;		On entry : B1F/0
  2875 ;;		On exit  : 0/0
  2876 ;;		Unchanged: 0/0
  2877 ;; Data sizes:     COMMON   BANK0   BANK1   BANK2   BANK3   BANK4
  2878 ;;      Params:         0       0       0       0       0       0
  2879 ;;      Locals:         0       0       0       0       0       0
  2880 ;;      Temps:          0       0       0       0       0       0
  2881 ;;      Totals:         0       0       0       0       0       0
  2882 ;;Total ram usage:        0 bytes
  2883 ;; Hardware stack levels required when called:    7
  2884 ;; This function calls:
  2885 ;;		_CCP4_SetCallBack
  2886 ;;		_IOCBF0_SetInterruptHandler
  2887 ;;		_IOCBF3_SetInterruptHandler
  2888 ;;		_IOCBF4_SetInterruptHandler
  2889 ;;		_IOCBF5_SetInterruptHandler
  2890 ;;		_SYSTEM_Initialize
  2891 ;;		_TMR4_SetInterruptHandler
  2892 ;;		_comunicacao
  2893 ;;		_controle
  2894 ;;		_gerenciamento
  2895 ;; This function is called by:
  2896 ;;		Startup code after reset
  2897 ;; This function uses a non-reentrant model
  2898 ;;
  2899                           
  2900                           
  2901                           ;psect for function _main
  2902  074E                     _main:
  2903  074E                     l2792:	
  2904                           ;incstack = 0
  2905                           ; Regs used in _main: [wreg+status,2+status,0+pclath+cstack]
  2906                           
  2907                           
  2908                           ;main.c: 95:     SYSTEM_Initialize();
  2909  074E  318F  27BA  3187   	fcall	_SYSTEM_Initialize
  2910  0751                     l2794:
  2911                           
  2912                           ;main.c: 96:     (INTCONbits.GIE = 1);
  2913  0751  178B               	bsf	11,7	;volatile
  2914  0752                     l2796:
  2915                           
  2916                           ;main.c: 97:     (INTCONbits.PEIE = 1);
  2917  0752  170B               	bsf	11,6	;volatile
  2918                           
  2919                           ;main.c: 100:     TMR4_SetInterruptHandler(send_data);
  2920  0753  308F               	movlw	low _send_data
  2921  0754  0020               	movlb	0	; select bank0
  2922  0755  00A0               	movwf	TMR4_SetInterruptHandler@InterruptHandler
  2923  0756  3007               	movlw	high _send_data
  2924  0757  00A1               	movwf	TMR4_SetInterruptHandler@InterruptHandler+1
  2925  0758  318E  2655  3187   	fcall	_TMR4_SetInterruptHandler
  2926                           
  2927                           ;main.c: 101:     IOCBF0_SetInterruptHandler(sensor1);
  2928  075B  302D               	movlw	low _sensor1
  2929  075C  0020               	movlb	0	; select bank0
  2930  075D  00A0               	movwf	IOCBF0_SetInterruptHandler@InterruptHandler
  2931  075E  300E               	movlw	high _sensor1
  2932  075F  00A1               	movwf	IOCBF0_SetInterruptHandler@InterruptHandler+1
  2933  0760  318E  2649  3187   	fcall	_IOCBF0_SetInterruptHandler
  2934                           
  2935                           ;main.c: 102:     IOCBF3_SetInterruptHandler(sensor2);
  2936  0763  3030               	movlw	low _sensor2
  2937  0764  0020               	movlb	0	; select bank0
  2938  0765  00A0               	movwf	IOCBF3_SetInterruptHandler@InterruptHandler
  2939  0766  300E               	movlw	high _sensor2
  2940  0767  00A1               	movwf	IOCBF3_SetInterruptHandler@InterruptHandler+1
  2941  0768  318E  264F  3187   	fcall	_IOCBF3_SetInterruptHandler
  2942                           
  2943                           ;main.c: 103:     IOCBF4_SetInterruptHandler(sensor3);
  2944  076B  303D               	movlw	low _sensor3
  2945  076C  0020               	movlb	0	; select bank0
  2946  076D  00A0               	movwf	IOCBF4_SetInterruptHandler@InterruptHandler
  2947  076E  300E               	movlw	high _sensor3
  2948  076F  00A1               	movwf	IOCBF4_SetInterruptHandler@InterruptHandler+1
  2949  0770  318E  269C  3187   	fcall	_IOCBF4_SetInterruptHandler
  2950                           
  2951                           ;main.c: 104:     IOCBF5_SetInterruptHandler(sensor4);
  2952  0773  3043               	movlw	low _sensor4
  2953  0774  0020               	movlb	0	; select bank0
  2954  0775  00A0               	movwf	IOCBF5_SetInterruptHandler@InterruptHandler
  2955  0776  300E               	movlw	high _sensor4
  2956  0777  00A1               	movwf	IOCBF5_SetInterruptHandler@InterruptHandler+1
  2957  0778  318E  26A5  3187   	fcall	_IOCBF5_SetInterruptHandler
  2958                           
  2959                           ;main.c: 105:     CCP4_SetCallBack(get_pulse);
  2960  077B  30C1               	movlw	low _get_pulse
  2961  077C  0020               	movlb	0	; select bank0
  2962  077D  00A0               	movwf	CCP4_SetCallBack@customCallBack
  2963  077E  300E               	movlw	high _get_pulse
  2964  077F  00A1               	movwf	CCP4_SetCallBack@customCallBack+1
  2965  0780  318E  2678  3187   	fcall	_CCP4_SetCallBack
  2966  0783                     l557:	
  2967                           ;main.c: 113:     while (1)
  2968                           
  2969                           
  2970                           ;main.c: 114:     {;main.c: 115:        comunicacao ();
  2971  0783  3184  2453  3187   	fcall	_comunicacao
  2972                           
  2973                           ;main.c: 116:        controle();
  2974  0786  3186  261C  3187   	fcall	_controle
  2975  0789                     l2798:
  2976                           
  2977                           ;main.c: 117:        gerenciamento();
  2978  0789  3180  2003  3187   	fcall	_gerenciamento
  2979  078C  2F83               	goto	l557
  2980  078D  3180  2834         	ljmp	start
  2981  078F                     __end_of_main:
  2982                           
  2983                           	psect	text1
  2984  0003                     __ptext1:	
  2985 ;; *************** function _gerenciamento *****************
  2986 ;; Defined at:
  2987 ;;		line 158 in file "main.c"
  2988 ;; Parameters:    Size  Location     Type
  2989 ;;		None
  2990 ;; Auto vars:     Size  Location     Type
  2991 ;;		None
  2992 ;; Return value:  Size  Location     Type
  2993 ;;                  1    wreg      void 
  2994 ;; Registers used:
  2995 ;;		None
  2996 ;; Tracked objects:
  2997 ;;		On entry : 0/0
  2998 ;;		On exit  : 0/0
  2999 ;;		Unchanged: 0/0
  3000 ;; Data sizes:     COMMON   BANK0   BANK1   BANK2   BANK3   BANK4
  3001 ;;      Params:         0       0       0       0       0       0
  3002 ;;      Locals:         0       0       0       0       0       0
  3003 ;;      Temps:          0       0       0       0       0       0
  3004 ;;      Totals:         0       0       0       0       0       0
  3005 ;;Total ram usage:        0 bytes
  3006 ;; Hardware stack levels used:    1
  3007 ;; Hardware stack levels required when called:    4
  3008 ;; This function calls:
  3009 ;;		Nothing
  3010 ;; This function is called by:
  3011 ;;		_main
  3012 ;; This function uses a non-reentrant model
  3013 ;;
  3014                           
  3015                           
  3016                           ;psect for function _gerenciamento
  3017  0003                     _gerenciamento:
  3018  0003                     l570:	
  3019                           ;incstack = 0
  3020                           ; Regs used in _gerenciamento: []
  3021                           
  3022  0003  0008               	return
  3023  0004                     __end_of_gerenciamento:
  3024                           
  3025                           	psect	text2
  3026  061C                     __ptext2:	
  3027 ;; *************** function _controle *****************
  3028 ;; Defined at:
  3029 ;;		line 152 in file "main.c"
  3030 ;; Parameters:    Size  Location     Type
  3031 ;;		None
  3032 ;; Auto vars:     Size  Location     Type
  3033 ;;		None
  3034 ;; Return value:  Size  Location     Type
  3035 ;;                  1    wreg      void 
  3036 ;; Registers used:
  3037 ;;		wreg, status,2, status,0, pclath, cstack
  3038 ;; Tracked objects:
  3039 ;;		On entry : 0/0
  3040 ;;		On exit  : 0/0
  3041 ;;		Unchanged: 0/0
  3042 ;; Data sizes:     COMMON   BANK0   BANK1   BANK2   BANK3   BANK4
  3043 ;;      Params:         0       0       0       0       0       0
  3044 ;;      Locals:         0       0       0       0       0       0
  3045 ;;      Temps:          0       4       0       0       0       0
  3046 ;;      Totals:         0       4       0       0       0       0
  3047 ;;Total ram usage:        4 bytes
  3048 ;; Hardware stack levels used:    1
  3049 ;; Hardware stack levels required when called:    6
  3050 ;; This function calls:
  3051 ;;		_ADC_GetConversion
  3052 ;;		___flmul
  3053 ;;		___xxtofl
  3054 ;; This function is called by:
  3055 ;;		_main
  3056 ;; This function uses a non-reentrant model
  3057 ;;
  3058                           
  3059                           
  3060                           ;psect for function _controle
  3061  061C                     _controle:
  3062  061C                     l2588:	
  3063                           ;incstack = 0
  3064                           ; Regs used in _controle: [wreg+status,2+status,0+pclath+cstack]
  3065                           
  3066                           
  3067                           ;main.c: 154:    I_m = 0.1*ADC_GetConversion(0);
  3068  061C  303D               	movlw	61
  3069  061D  0020               	movlb	0	; select bank0
  3070  061E  00B5               	movwf	___flmul@b+3
  3071  061F  30CC               	movlw	204
  3072  0620  00B4               	movwf	___flmul@b+2
  3073  0621  30CC               	movlw	204
  3074  0622  00B3               	movwf	___flmul@b+1
  3075  0623  30CD               	movlw	205
  3076  0624  00B2               	movwf	___flmul@b
  3077  0625  3000               	movlw	0
  3078  0626  318F  2799  3186   	fcall	_ADC_GetConversion
  3079  0629  0020               	movlb	0	; select bank0
  3080  062A  0820               	movf	?_ADC_GetConversion,w
  3081  062B  00CC               	movwf	??_controle
  3082  062C  0821               	movf	?_ADC_GetConversion+1,w
  3083  062D  00CD               	movwf	??_controle+1
  3084  062E  01CE               	clrf	??_controle+2
  3085  062F  01CF               	clrf	??_controle+3
  3086  0630  084F               	movf	??_controle+3,w
  3087  0631  00A7               	movwf	___xxtofl@val+3
  3088  0632  084E               	movf	??_controle+2,w
  3089  0633  00A6               	movwf	___xxtofl@val+2
  3090  0634  084D               	movf	??_controle+1,w
  3091  0635  00A5               	movwf	___xxtofl@val+1
  3092  0636  084C               	movf	??_controle,w
  3093  0637  00A4               	movwf	___xxtofl@val
  3094  0638  3000               	movlw	0
  3095  0639  3185  256F  3186   	fcall	___xxtofl
  3096  063C  0020               	movlb	0	; select bank0
  3097  063D  0827               	movf	?___xxtofl+3,w
  3098  063E  00B9               	movwf	___flmul@a+3
  3099  063F  0826               	movf	?___xxtofl+2,w
  3100  0640  00B8               	movwf	___flmul@a+2
  3101  0641  0825               	movf	?___xxtofl+1,w
  3102  0642  00B7               	movwf	___flmul@a+1
  3103  0643  0824               	movf	?___xxtofl,w
  3104  0644  00B6               	movwf	___flmul@a
  3105  0645  3180  2048  3186   	fcall	___flmul
  3106  0648  0020               	movlb	0	; select bank0
  3107  0649  0835               	movf	?___flmul+3,w
  3108  064A  0021               	movlb	1	; select bank1
  3109  064B  00B2               	movwf	(_I_m+3)^(0+128)
  3110  064C  0020               	movlb	0	; select bank0
  3111  064D  0834               	movf	?___flmul+2,w
  3112  064E  0021               	movlb	1	; select bank1
  3113  064F  00B1               	movwf	(_I_m+2)^(0+128)
  3114  0650  0020               	movlb	0	; select bank0
  3115  0651  0833               	movf	?___flmul+1,w
  3116  0652  0021               	movlb	1	; select bank1
  3117  0653  00B0               	movwf	(_I_m+1)^(0+128)
  3118  0654  0020               	movlb	0	; select bank0
  3119  0655  0832               	movf	?___flmul,w
  3120  0656  0021               	movlb	1	; select bank1
  3121  0657  00AF               	movwf	_I_m^(0+128)
  3122                           
  3123                           ;main.c: 155:    temp_mt = 0.3*ADC_GetConversion(1);
  3124  0658  303E               	movlw	62
  3125  0659  0020               	movlb	0	; select bank0
  3126  065A  00B5               	movwf	___flmul@b+3
  3127  065B  3099               	movlw	153
  3128  065C  00B4               	movwf	___flmul@b+2
  3129  065D  3099               	movlw	153
  3130  065E  00B3               	movwf	___flmul@b+1
  3131  065F  309A               	movlw	154
  3132  0660  00B2               	movwf	___flmul@b
  3133  0661  3001               	movlw	1
  3134  0662  318F  2799  3186   	fcall	_ADC_GetConversion
  3135  0665  0020               	movlb	0	; select bank0
  3136  0666  0820               	movf	?_ADC_GetConversion,w
  3137  0667  00CC               	movwf	??_controle
  3138  0668  0821               	movf	?_ADC_GetConversion+1,w
  3139  0669  00CD               	movwf	??_controle+1
  3140  066A  01CE               	clrf	??_controle+2
  3141  066B  01CF               	clrf	??_controle+3
  3142  066C  084F               	movf	??_controle+3,w
  3143  066D  00A7               	movwf	___xxtofl@val+3
  3144  066E  084E               	movf	??_controle+2,w
  3145  066F  00A6               	movwf	___xxtofl@val+2
  3146  0670  084D               	movf	??_controle+1,w
  3147  0671  00A5               	movwf	___xxtofl@val+1
  3148  0672  084C               	movf	??_controle,w
  3149  0673  00A4               	movwf	___xxtofl@val
  3150  0674  3000               	movlw	0
  3151  0675  3185  256F  3186   	fcall	___xxtofl
  3152  0678  0020               	movlb	0	; select bank0
  3153  0679  0827               	movf	?___xxtofl+3,w
  3154  067A  00B9               	movwf	___flmul@a+3
  3155  067B  0826               	movf	?___xxtofl+2,w
  3156  067C  00B8               	movwf	___flmul@a+2
  3157  067D  0825               	movf	?___xxtofl+1,w
  3158  067E  00B7               	movwf	___flmul@a+1
  3159  067F  0824               	movf	?___xxtofl,w
  3160  0680  00B6               	movwf	___flmul@a
  3161  0681  3180  2048  3186   	fcall	___flmul
  3162  0684  0020               	movlb	0	; select bank0
  3163  0685  0835               	movf	?___flmul+3,w
  3164  0686  0021               	movlb	1	; select bank1
  3165  0687  00AE               	movwf	(_temp_mt+3)^(0+128)
  3166  0688  0020               	movlb	0	; select bank0
  3167  0689  0834               	movf	?___flmul+2,w
  3168  068A  0021               	movlb	1	; select bank1
  3169  068B  00AD               	movwf	(_temp_mt+2)^(0+128)
  3170  068C  0020               	movlb	0	; select bank0
  3171  068D  0833               	movf	?___flmul+1,w
  3172  068E  0021               	movlb	1	; select bank1
  3173  068F  00AC               	movwf	(_temp_mt+1)^(0+128)
  3174  0690  0020               	movlb	0	; select bank0
  3175  0691  0832               	movf	?___flmul,w
  3176  0692  0021               	movlb	1	; select bank1
  3177  0693  00AB               	movwf	_temp_mt^(0+128)
  3178  0694                     l567:
  3179  0694  0008               	return
  3180  0695                     __end_of_controle:
  3181                           
  3182                           	psect	text3
  3183  0F99                     __ptext3:	
  3184 ;; *************** function _ADC_GetConversion *****************
  3185 ;; Defined at:
  3186 ;;		line 112 in file "mcc_generated_files/adc.c"
  3187 ;; Parameters:    Size  Location     Type
  3188 ;;  channel         1    wreg     enum E2476
  3189 ;; Auto vars:     Size  Location     Type
  3190 ;;  channel         1    3[BANK0 ] enum E2476
  3191 ;; Return value:  Size  Location     Type
  3192 ;;                  2    0[BANK0 ] unsigned short 
  3193 ;; Registers used:
  3194 ;;		wreg, status,2, status,0
  3195 ;; Tracked objects:
  3196 ;;		On entry : 0/0
  3197 ;;		On exit  : 0/0
  3198 ;;		Unchanged: 0/0
  3199 ;; Data sizes:     COMMON   BANK0   BANK1   BANK2   BANK3   BANK4
  3200 ;;      Params:         0       2       0       0       0       0
  3201 ;;      Locals:         0       1       0       0       0       0
  3202 ;;      Temps:          0       1       0       0       0       0
  3203 ;;      Totals:         0       4       0       0       0       0
  3204 ;;Total ram usage:        4 bytes
  3205 ;; Hardware stack levels used:    1
  3206 ;; Hardware stack levels required when called:    4
  3207 ;; This function calls:
  3208 ;;		Nothing
  3209 ;; This function is called by:
  3210 ;;		_controle
  3211 ;; This function uses a non-reentrant model
  3212 ;;
  3213                           
  3214                           
  3215                           ;psect for function _ADC_GetConversion
  3216  0F99                     _ADC_GetConversion:
  3217                           
  3218                           ;incstack = 0
  3219                           ; Regs used in _ADC_GetConversion: [wreg+status,2+status,0]
  3220                           ;ADC_GetConversion@channel stored from wreg
  3221  0F99  0020               	movlb	0	; select bank0
  3222  0F9A  00A3               	movwf	ADC_GetConversion@channel
  3223  0F9B                     l2124:
  3224                           
  3225                           ;mcc_generated_files/adc.c: 112: adc_result_t ADC_GetConversion(adc_channel_t channel);m
      +                          cc_generated_files/adc.c: 113: {;mcc_generated_files/adc.c: 115:     ADCON0bits.CHS = ch
      +                          annel;
  3226  0F9B  0823               	movf	ADC_GetConversion@channel,w
  3227  0F9C  00A2               	movwf	??_ADC_GetConversion
  3228  0F9D  0DA2               	rlf	??_ADC_GetConversion,f
  3229  0F9E  0DA2               	rlf	??_ADC_GetConversion,f
  3230  0F9F  0021               	movlb	1	; select bank1
  3231  0FA0  081D               	movf	29,w	;volatile
  3232  0FA1  0020               	movlb	0	; select bank0
  3233  0FA2  0622               	xorwf	??_ADC_GetConversion,w
  3234  0FA3  3983               	andlw	-125
  3235  0FA4  0622               	xorwf	??_ADC_GetConversion,w
  3236  0FA5  0021               	movlb	1	; select bank1
  3237  0FA6  009D               	movwf	29	;volatile
  3238  0FA7                     l2126:
  3239                           
  3240                           ;mcc_generated_files/adc.c: 118:     ADCON0bits.ADON = 1;
  3241  0FA7  141D               	bsf	29,0	;volatile
  3242  0FA8                     l2128:
  3243                           
  3244                           ;mcc_generated_files/adc.c: 121:     _delay((unsigned long)((5)*(8000000/4000000.0)));
  3245  0FA8  3003               	movlw	3
  3246  0FA9                     u2277:
  3247  0FA9  0B89               	decfsz	9,f
  3248  0FAA  2FA9               	goto	u2277
  3249  0FAB  0000               	nop
  3250  0FAC                     l2130:
  3251                           
  3252                           ;mcc_generated_files/adc.c: 124:     ADCON0bits.GO_nDONE = 1;
  3253  0FAC  0021               	movlb	1	; select bank1
  3254  0FAD  149D               	bsf	29,1	;volatile
  3255  0FAE                     l282:	
  3256                           ;mcc_generated_files/adc.c: 128:     {;mcc_generated_files/adc.c: 129:     }
  3257                           
  3258                           
  3259                           ;mcc_generated_files/adc.c: 127:     while (ADCON0bits.GO_nDONE)
  3260  0FAE  189D               	btfsc	29,1	;volatile
  3261  0FAF  2FB1               	goto	u1221
  3262  0FB0  2FB2               	goto	u1220
  3263  0FB1                     u1221:
  3264  0FB1  2FAE               	goto	l282
  3265  0FB2                     u1220:
  3266  0FB2                     l2132:
  3267                           
  3268                           ;mcc_generated_files/adc.c: 132:     return ((adc_result_t)((ADRESH << 8) + ADRESL));
  3269  0FB2  081C               	movf	28,w	;volatile
  3270  0FB3  0020               	movlb	0	; select bank0
  3271  0FB4  00A1               	movwf	?_ADC_GetConversion+1
  3272  0FB5  0021               	movlb	1	; select bank1
  3273  0FB6  081B               	movf	27,w	;volatile
  3274  0FB7  0020               	movlb	0	; select bank0
  3275  0FB8  00A0               	movwf	?_ADC_GetConversion
  3276  0FB9                     l285:
  3277  0FB9  0008               	return
  3278  0FBA                     __end_of_ADC_GetConversion:
  3279                           
  3280                           	psect	text4
  3281  0453                     __ptext4:	
  3282 ;; *************** function _comunicacao *****************
  3283 ;; Defined at:
  3284 ;;		line 123 in file "main.c"
  3285 ;; Parameters:    Size  Location     Type
  3286 ;;		None
  3287 ;; Auto vars:     Size  Location     Type
  3288 ;;  position        4    4[BANK1 ] float 
  3289 ;;  speed           4    0[BANK1 ] float 
  3290 ;;  aux             1    8[BANK1 ] unsigned char 
  3291 ;; Return value:  Size  Location     Type
  3292 ;;                  1    wreg      void 
  3293 ;; Registers used:
  3294 ;;		wreg, status,2, status,0, pclath, cstack
  3295 ;; Tracked objects:
  3296 ;;		On entry : 0/0
  3297 ;;		On exit  : 0/0
  3298 ;;		Unchanged: 0/0
  3299 ;; Data sizes:     COMMON   BANK0   BANK1   BANK2   BANK3   BANK4
  3300 ;;      Params:         0       0       0       0       0       0
  3301 ;;      Locals:         0       0       9       0       0       0
  3302 ;;      Temps:          0       3       0       0       0       0
  3303 ;;      Totals:         0       3       9       0       0       0
  3304 ;;Total ram usage:       12 bytes
  3305 ;; Hardware stack levels used:    1
  3306 ;; Hardware stack levels required when called:    6
  3307 ;; This function calls:
  3308 ;;		_EUSART_Read
  3309 ;;		_EUSART_is_rx_ready
  3310 ;;		___fldiv
  3311 ;;		___flmul
  3312 ;;		___fltol
  3313 ;;		___xxtofl
  3314 ;; This function is called by:
  3315 ;;		_main
  3316 ;; This function uses a non-reentrant model
  3317 ;;
  3318                           
  3319                           
  3320                           ;psect for function _comunicacao
  3321  0453                     _comunicacao:
  3322  0453                     l2774:	
  3323                           ;incstack = 0
  3324                           ; Regs used in _comunicacao: [wreg+status,2+status,0+pclath+cstack]
  3325                           
  3326                           
  3327                           ;main.c: 127:     uint8_t aux;;main.c: 128:     float speed = 3.75/(((float)ccp_value)*0
      +                          .0000005);
  3328  0453  3035               	movlw	53
  3329  0454  0020               	movlb	0	; select bank0
  3330  0455  00B5               	movwf	___flmul@b+3
  3331  0456  3006               	movlw	6
  3332  0457  00B4               	movwf	___flmul@b+2
  3333  0458  3037               	movlw	55
  3334  0459  00B3               	movwf	___flmul@b+1
  3335  045A  30BD               	movlw	189
  3336  045B  00B2               	movwf	___flmul@b
  3337  045C  0021               	movlb	1	; select bank1
  3338  045D  0833               	movf	_ccp_value^(0+128),w
  3339  045E  0020               	movlb	0	; select bank0
  3340  045F  00A4               	movwf	___xxtofl@val
  3341  0460  0021               	movlb	1	; select bank1
  3342  0461  0834               	movf	(_ccp_value+1)^(0+128),w
  3343  0462  0020               	movlb	0	; select bank0
  3344  0463  00A5               	movwf	___xxtofl@val+1
  3345  0464  01A6               	clrf	___xxtofl@val+2
  3346  0465  01A7               	clrf	___xxtofl@val+3
  3347  0466  3000               	movlw	0
  3348  0467  3185  256F  3184   	fcall	___xxtofl
  3349  046A  0020               	movlb	0	; select bank0
  3350  046B  0827               	movf	?___xxtofl+3,w
  3351  046C  00B9               	movwf	___flmul@a+3
  3352  046D  0826               	movf	?___xxtofl+2,w
  3353  046E  00B8               	movwf	___flmul@a+2
  3354  046F  0825               	movf	?___xxtofl+1,w
  3355  0470  00B7               	movwf	___flmul@a+1
  3356  0471  0824               	movf	?___xxtofl,w
  3357  0472  00B6               	movwf	___flmul@a
  3358  0473  3180  2048  3184   	fcall	___flmul
  3359  0476  0020               	movlb	0	; select bank0
  3360  0477  0835               	movf	?___flmul+3,w
  3361  0478  00CF               	movwf	___fldiv@a+3
  3362  0479  0834               	movf	?___flmul+2,w
  3363  047A  00CE               	movwf	___fldiv@a+2
  3364  047B  0833               	movf	?___flmul+1,w
  3365  047C  00CD               	movwf	___fldiv@a+1
  3366  047D  0832               	movf	?___flmul,w
  3367  047E  00CC               	movwf	___fldiv@a
  3368  047F  3040               	movlw	64
  3369  0480  00D3               	movwf	___fldiv@b+3
  3370  0481  3070               	movlw	112
  3371  0482  00D2               	movwf	___fldiv@b+2
  3372  0483  3000               	movlw	0
  3373  0484  00D1               	movwf	___fldiv@b+1
  3374  0485  3000               	movlw	0
  3375  0486  00D0               	movwf	___fldiv@b
  3376  0487  3182  229F  3184   	fcall	___fldiv
  3377  048A  0020               	movlb	0	; select bank0
  3378  048B  084F               	movf	?___fldiv+3,w
  3379  048C  0021               	movlb	1	; select bank1
  3380  048D  00C6               	movwf	(comunicacao@speed+3)^(0+128)
  3381  048E  0020               	movlb	0	; select bank0
  3382  048F  084E               	movf	?___fldiv+2,w
  3383  0490  0021               	movlb	1	; select bank1
  3384  0491  00C5               	movwf	(comunicacao@speed+2)^(0+128)
  3385  0492  0020               	movlb	0	; select bank0
  3386  0493  084D               	movf	?___fldiv+1,w
  3387  0494  0021               	movlb	1	; select bank1
  3388  0495  00C4               	movwf	(comunicacao@speed+1)^(0+128)
  3389  0496  0020               	movlb	0	; select bank0
  3390  0497  084C               	movf	?___fldiv,w
  3391  0498  0021               	movlb	1	; select bank1
  3392  0499  00C3               	movwf	comunicacao@speed^(0+128)
  3393                           
  3394                           ;main.c: 129:     float position = 1.5*pulses;
  3395  049A  303F               	movlw	63
  3396  049B  0020               	movlb	0	; select bank0
  3397  049C  00B5               	movwf	___flmul@b+3
  3398  049D  30C0               	movlw	192
  3399  049E  00B4               	movwf	___flmul@b+2
  3400  049F  3000               	movlw	0
  3401  04A0  00B3               	movwf	___flmul@b+1
  3402  04A1  3000               	movlw	0
  3403  04A2  00B2               	movwf	___flmul@b
  3404  04A3  0021               	movlb	1	; select bank1
  3405  04A4  0835               	movf	_pulses^(0+128),w
  3406  04A5  0020               	movlb	0	; select bank0
  3407  04A6  00A4               	movwf	___xxtofl@val
  3408  04A7  0021               	movlb	1	; select bank1
  3409  04A8  0836               	movf	(_pulses+1)^(0+128),w
  3410  04A9  0020               	movlb	0	; select bank0
  3411  04AA  00A5               	movwf	___xxtofl@val+1
  3412  04AB  0D89               	rlf	9,f
  3413  04AC  3B89               	subwfb	9,f
  3414  04AD  0989               	comf	9,f
  3415  04AE  00A6               	movwf	___xxtofl@val+2
  3416  04AF  00A7               	movwf	___xxtofl@val+3
  3417  04B0  3001               	movlw	1
  3418  04B1  3185  256F  3184   	fcall	___xxtofl
  3419  04B4  0020               	movlb	0	; select bank0
  3420  04B5  0827               	movf	?___xxtofl+3,w
  3421  04B6  00B9               	movwf	___flmul@a+3
  3422  04B7  0826               	movf	?___xxtofl+2,w
  3423  04B8  00B8               	movwf	___flmul@a+2
  3424  04B9  0825               	movf	?___xxtofl+1,w
  3425  04BA  00B7               	movwf	___flmul@a+1
  3426  04BB  0824               	movf	?___xxtofl,w
  3427  04BC  00B6               	movwf	___flmul@a
  3428  04BD  3180  2048  3184   	fcall	___flmul
  3429  04C0  0020               	movlb	0	; select bank0
  3430  04C1  0835               	movf	?___flmul+3,w
  3431  04C2  0021               	movlb	1	; select bank1
  3432  04C3  00CA               	movwf	(comunicacao@position+3)^(0+128)
  3433  04C4  0020               	movlb	0	; select bank0
  3434  04C5  0834               	movf	?___flmul+2,w
  3435  04C6  0021               	movlb	1	; select bank1
  3436  04C7  00C9               	movwf	(comunicacao@position+2)^(0+128)
  3437  04C8  0020               	movlb	0	; select bank0
  3438  04C9  0833               	movf	?___flmul+1,w
  3439  04CA  0021               	movlb	1	; select bank1
  3440  04CB  00C8               	movwf	(comunicacao@position+1)^(0+128)
  3441  04CC  0020               	movlb	0	; select bank0
  3442  04CD  0832               	movf	?___flmul,w
  3443  04CE  0021               	movlb	1	; select bank1
  3444  04CF  00C7               	movwf	comunicacao@position^(0+128)
  3445                           
  3446                           ;main.c: 130:     if(EUSART_is_rx_ready())
  3447  04D0  318E  2638  3184   	fcall	_EUSART_is_rx_ready
  3448  04D3  3A00               	xorlw	0
  3449  04D4  1903               	skipnz
  3450  04D5  2CD7               	goto	u2251
  3451  04D6  2CD8               	goto	u2250
  3452  04D7                     u2251:
  3453  04D7  2CFE               	goto	l2782
  3454  04D8                     u2250:
  3455  04D8                     l2776:
  3456                           
  3457                           ;main.c: 131:         {;main.c: 132:             aux= EUSART_Read();
  3458  04D8  318F  2732  3184   	fcall	_EUSART_Read
  3459  04DB  0020               	movlb	0	; select bank0
  3460  04DC  00E6               	movwf	??_comunicacao
  3461  04DD  0866               	movf	??_comunicacao,w
  3462  04DE  0021               	movlb	1	; select bank1
  3463  04DF  00CB               	movwf	comunicacao@aux^(0+128)
  3464  04E0                     l2778:
  3465                           
  3466                           ;main.c: 133:             and_origem = (int)((aux & 0x0C)>>2);
  3467  04E0  084B               	movf	comunicacao@aux^(0+128),w
  3468  04E1  0020               	movlb	0	; select bank0
  3469  04E2  00E6               	movwf	??_comunicacao
  3470  04E3  3002               	movlw	2
  3471  04E4                     u2265:
  3472  04E4  36E6               	lsrf	??_comunicacao,f
  3473  04E5  0B89               	decfsz	9,f
  3474  04E6  2CE4               	goto	u2265
  3475  04E7  0866               	movf	??_comunicacao,w
  3476  04E8  3903               	andlw	3
  3477  04E9  00E7               	movwf	??_comunicacao+1
  3478  04EA  01E8               	clrf	??_comunicacao+2
  3479  04EB  0867               	movf	??_comunicacao+1,w
  3480  04EC  0021               	movlb	1	; select bank1
  3481  04ED  00A5               	movwf	_and_origem^(0+128)
  3482  04EE  0020               	movlb	0	; select bank0
  3483  04EF  0868               	movf	??_comunicacao+2,w
  3484  04F0  0021               	movlb	1	; select bank1
  3485  04F1  00A6               	movwf	(_and_origem+1)^(0+128)
  3486  04F2                     l2780:
  3487                           
  3488                           ;main.c: 134:             and_dst = (int)(aux & 0x02);
  3489  04F2  084B               	movf	comunicacao@aux^(0+128),w
  3490  04F3  3902               	andlw	2
  3491  04F4  0020               	movlb	0	; select bank0
  3492  04F5  00E6               	movwf	??_comunicacao
  3493  04F6  01E7               	clrf	??_comunicacao+1
  3494  04F7  0866               	movf	??_comunicacao,w
  3495  04F8  0021               	movlb	1	; select bank1
  3496  04F9  00A7               	movwf	_and_dst^(0+128)
  3497  04FA  0020               	movlb	0	; select bank0
  3498  04FB  0867               	movf	??_comunicacao+1,w
  3499  04FC  0021               	movlb	1	; select bank1
  3500  04FD  00A8               	movwf	(_and_dst+1)^(0+128)
  3501  04FE                     l2782:
  3502                           
  3503                           ;main.c: 144:     byte[0] = ((state_motor<<4)& 0x20)|(and_ating & 0x02);
  3504  04FE  0021               	movlb	1	; select bank1
  3505  04FF  0829               	movf	_and_ating^(0+128),w
  3506  0500  3902               	andlw	2
  3507  0501  0020               	movlb	0	; select bank0
  3508  0502  00E6               	movwf	??_comunicacao
  3509  0503  0866               	movf	??_comunicacao,w
  3510  0504  0021               	movlb	1	; select bank1
  3511  0505  00A0               	movwf	_byte^(0+128)
  3512  0506                     l2784:
  3513                           
  3514                           ;main.c: 145:     byte[1] = 0x80 |((((uint8_t)position)>>1)& 0x7F);
  3515  0506  084A               	movf	(comunicacao@position+3)^(0+128),w
  3516  0507  0020               	movlb	0	; select bank0
  3517  0508  00A3               	movwf	___fltol@f1+3
  3518  0509  0021               	movlb	1	; select bank1
  3519  050A  0849               	movf	(comunicacao@position+2)^(0+128),w
  3520  050B  0020               	movlb	0	; select bank0
  3521  050C  00A2               	movwf	___fltol@f1+2
  3522  050D  0021               	movlb	1	; select bank1
  3523  050E  0848               	movf	(comunicacao@position+1)^(0+128),w
  3524  050F  0020               	movlb	0	; select bank0
  3525  0510  00A1               	movwf	___fltol@f1+1
  3526  0511  0021               	movlb	1	; select bank1
  3527  0512  0847               	movf	comunicacao@position^(0+128),w
  3528  0513  0020               	movlb	0	; select bank0
  3529  0514  00A0               	movwf	___fltol@f1
  3530  0515  3186  2695  3184   	fcall	___fltol
  3531  0518  0020               	movlb	0	; select bank0
  3532  0519  3620               	lsrf	?___fltol,w
  3533  051A  397F               	andlw	127
  3534  051B  3880               	iorlw	128
  3535  051C  00E6               	movwf	??_comunicacao
  3536  051D  0866               	movf	??_comunicacao,w
  3537  051E  0021               	movlb	1	; select bank1
  3538  051F  00A1               	movwf	(_byte^(0+128)+1)
  3539  0520                     l2786:
  3540                           
  3541                           ;main.c: 146:     byte[2] = 0x80 |((((uint8_t)speed)>>1)& 0x7F);
  3542  0520  0846               	movf	(comunicacao@speed+3)^(0+128),w
  3543  0521  0020               	movlb	0	; select bank0
  3544  0522  00A3               	movwf	___fltol@f1+3
  3545  0523  0021               	movlb	1	; select bank1
  3546  0524  0845               	movf	(comunicacao@speed+2)^(0+128),w
  3547  0525  0020               	movlb	0	; select bank0
  3548  0526  00A2               	movwf	___fltol@f1+2
  3549  0527  0021               	movlb	1	; select bank1
  3550  0528  0844               	movf	(comunicacao@speed+1)^(0+128),w
  3551  0529  0020               	movlb	0	; select bank0
  3552  052A  00A1               	movwf	___fltol@f1+1
  3553  052B  0021               	movlb	1	; select bank1
  3554  052C  0843               	movf	comunicacao@speed^(0+128),w
  3555  052D  0020               	movlb	0	; select bank0
  3556  052E  00A0               	movwf	___fltol@f1
  3557  052F  3186  2695  3184   	fcall	___fltol
  3558  0532  0020               	movlb	0	; select bank0
  3559  0533  3620               	lsrf	?___fltol,w
  3560  0534  397F               	andlw	127
  3561  0535  3880               	iorlw	128
  3562  0536  00E6               	movwf	??_comunicacao
  3563  0537  0866               	movf	??_comunicacao,w
  3564  0538  0021               	movlb	1	; select bank1
  3565  0539  00A2               	movwf	(_byte^(0+128)+2)
  3566  053A                     l2788:
  3567                           
  3568                           ;main.c: 147:     byte[3] = 0x80 |((((uint8_t)I_m)>>1)& 0x7F);
  3569  053A  0832               	movf	(_I_m+3)^(0+128),w
  3570  053B  0020               	movlb	0	; select bank0
  3571  053C  00A3               	movwf	___fltol@f1+3
  3572  053D  0021               	movlb	1	; select bank1
  3573  053E  0831               	movf	(_I_m+2)^(0+128),w
  3574  053F  0020               	movlb	0	; select bank0
  3575  0540  00A2               	movwf	___fltol@f1+2
  3576  0541  0021               	movlb	1	; select bank1
  3577  0542  0830               	movf	(_I_m+1)^(0+128),w
  3578  0543  0020               	movlb	0	; select bank0
  3579  0544  00A1               	movwf	___fltol@f1+1
  3580  0545  0021               	movlb	1	; select bank1
  3581  0546  082F               	movf	_I_m^(0+128),w
  3582  0547  0020               	movlb	0	; select bank0
  3583  0548  00A0               	movwf	___fltol@f1
  3584  0549  3186  2695  3184   	fcall	___fltol
  3585  054C  0020               	movlb	0	; select bank0
  3586  054D  3620               	lsrf	?___fltol,w
  3587  054E  397F               	andlw	127
  3588  054F  3880               	iorlw	128
  3589  0550  00E6               	movwf	??_comunicacao
  3590  0551  0866               	movf	??_comunicacao,w
  3591  0552  0021               	movlb	1	; select bank1
  3592  0553  00A3               	movwf	(_byte^(0+128)+3)
  3593  0554                     l2790:
  3594                           
  3595                           ;main.c: 148:     byte[4] = 0x80 |((((uint8_t)temp_mt)>>1)& 0x7F);
  3596  0554  082E               	movf	(_temp_mt+3)^(0+128),w
  3597  0555  0020               	movlb	0	; select bank0
  3598  0556  00A3               	movwf	___fltol@f1+3
  3599  0557  0021               	movlb	1	; select bank1
  3600  0558  082D               	movf	(_temp_mt+2)^(0+128),w
  3601  0559  0020               	movlb	0	; select bank0
  3602  055A  00A2               	movwf	___fltol@f1+2
  3603  055B  0021               	movlb	1	; select bank1
  3604  055C  082C               	movf	(_temp_mt+1)^(0+128),w
  3605  055D  0020               	movlb	0	; select bank0
  3606  055E  00A1               	movwf	___fltol@f1+1
  3607  055F  0021               	movlb	1	; select bank1
  3608  0560  082B               	movf	_temp_mt^(0+128),w
  3609  0561  0020               	movlb	0	; select bank0
  3610  0562  00A0               	movwf	___fltol@f1
  3611  0563  3186  2695  3184   	fcall	___fltol
  3612  0566  0020               	movlb	0	; select bank0
  3613  0567  3620               	lsrf	?___fltol,w
  3614  0568  397F               	andlw	127
  3615  0569  3880               	iorlw	128
  3616  056A  00E6               	movwf	??_comunicacao
  3617  056B  0866               	movf	??_comunicacao,w
  3618  056C  0021               	movlb	1	; select bank1
  3619  056D  00A4               	movwf	(_byte^(0+128)+4)
  3620  056E                     l564:
  3621  056E  0008               	return
  3622  056F                     __end_of_comunicacao:
  3623                           
  3624                           	psect	text5
  3625  056F                     __ptext5:	
  3626 ;; *************** function ___xxtofl *****************
  3627 ;; Defined at:
  3628 ;;		line 10 in file "C:\Program Files\Microchip\xc8\v2.30\pic\sources\c99\common\xxtofl.c"
  3629 ;; Parameters:    Size  Location     Type
  3630 ;;  sign            1    wreg     unsigned char 
  3631 ;;  val             4    4[BANK0 ] long 
  3632 ;; Auto vars:     Size  Location     Type
  3633 ;;  sign            1   12[BANK0 ] unsigned char 
  3634 ;;  arg             4   14[BANK0 ] unsigned long 
  3635 ;;  exp             1   13[BANK0 ] unsigned char 
  3636 ;; Return value:  Size  Location     Type
  3637 ;;                  4    4[BANK0 ] unsigned char 
  3638 ;; Registers used:
  3639 ;;		wreg, status,2, status,0
  3640 ;; Tracked objects:
  3641 ;;		On entry : 0/0
  3642 ;;		On exit  : 0/0
  3643 ;;		Unchanged: 0/0
  3644 ;; Data sizes:     COMMON   BANK0   BANK1   BANK2   BANK3   BANK4
  3645 ;;      Params:         0       4       0       0       0       0
  3646 ;;      Locals:         0       6       0       0       0       0
  3647 ;;      Temps:          0       4       0       0       0       0
  3648 ;;      Totals:         0      14       0       0       0       0
  3649 ;;Total ram usage:       14 bytes
  3650 ;; Hardware stack levels used:    1
  3651 ;; Hardware stack levels required when called:    4
  3652 ;; This function calls:
  3653 ;;		Nothing
  3654 ;; This function is called by:
  3655 ;;		_comunicacao
  3656 ;;		_controle
  3657 ;; This function uses a non-reentrant model
  3658 ;;
  3659                           
  3660                           
  3661                           ;psect for function ___xxtofl
  3662  056F                     ___xxtofl:
  3663                           
  3664                           ;incstack = 0
  3665                           ; Regs used in ___xxtofl: [wreg+status,2+status,0]
  3666                           ;___xxtofl@sign stored from wreg
  3667  056F  0020               	movlb	0	; select bank0
  3668  0570  00AC               	movwf	___xxtofl@sign
  3669  0571                     l2496:
  3670  0571  082C               	movf	___xxtofl@sign,w
  3671  0572  1903               	btfsc	3,2
  3672  0573  2D75               	goto	u1951
  3673  0574  2D76               	goto	u1950
  3674  0575                     u1951:
  3675  0575  2D8A               	goto	l2502
  3676  0576                     u1950:
  3677  0576                     l2498:
  3678  0576  1FA7               	btfss	___xxtofl@val+3,7
  3679  0577  2D79               	goto	u1961
  3680  0578  2D7A               	goto	u1960
  3681  0579                     u1961:
  3682  0579  2D8A               	goto	l2502
  3683  057A                     u1960:
  3684  057A                     l2500:
  3685  057A  0924               	comf	___xxtofl@val,w
  3686  057B  00AE               	movwf	___xxtofl@arg
  3687  057C  0925               	comf	___xxtofl@val+1,w
  3688  057D  00AF               	movwf	___xxtofl@arg+1
  3689  057E  0926               	comf	___xxtofl@val+2,w
  3690  057F  00B0               	movwf	___xxtofl@arg+2
  3691  0580  0927               	comf	___xxtofl@val+3,w
  3692  0581  00B1               	movwf	___xxtofl@arg+3
  3693  0582  0AAE               	incf	___xxtofl@arg,f
  3694  0583  1903               	skipnz
  3695  0584  0AAF               	incf	___xxtofl@arg+1,f
  3696  0585  1903               	skipnz
  3697  0586  0AB0               	incf	___xxtofl@arg+2,f
  3698  0587  1903               	skipnz
  3699  0588  0AB1               	incf	___xxtofl@arg+3,f
  3700  0589  2D92               	goto	l1161
  3701  058A                     l2502:
  3702  058A  0827               	movf	___xxtofl@val+3,w
  3703  058B  00B1               	movwf	___xxtofl@arg+3
  3704  058C  0826               	movf	___xxtofl@val+2,w
  3705  058D  00B0               	movwf	___xxtofl@arg+2
  3706  058E  0825               	movf	___xxtofl@val+1,w
  3707  058F  00AF               	movwf	___xxtofl@arg+1
  3708  0590  0824               	movf	___xxtofl@val,w
  3709  0591  00AE               	movwf	___xxtofl@arg
  3710  0592                     l1161:
  3711  0592  0827               	movf	___xxtofl@val+3,w
  3712  0593  0426               	iorwf	___xxtofl@val+2,w
  3713  0594  0425               	iorwf	___xxtofl@val+1,w
  3714  0595  0424               	iorwf	___xxtofl@val,w
  3715  0596  1D03               	skipz
  3716  0597  2D99               	goto	u1971
  3717  0598  2D9A               	goto	u1970
  3718  0599                     u1971:
  3719  0599  2DA3               	goto	l2508
  3720  059A                     u1970:
  3721  059A                     l2504:
  3722  059A  3000               	movlw	0
  3723  059B  00A7               	movwf	?___xxtofl+3
  3724  059C  3000               	movlw	0
  3725  059D  00A6               	movwf	?___xxtofl+2
  3726  059E  3000               	movlw	0
  3727  059F  00A5               	movwf	?___xxtofl+1
  3728  05A0  3000               	movlw	0
  3729  05A1  00A4               	movwf	?___xxtofl
  3730  05A2  2E1B               	goto	l1163
  3731  05A3                     l2508:
  3732  05A3  3096               	movlw	150
  3733  05A4  00A8               	movwf	??___xxtofl
  3734  05A5  0828               	movf	??___xxtofl,w
  3735  05A6  00AD               	movwf	___xxtofl@exp
  3736  05A7  2DB3               	goto	l2512
  3737  05A8                     l2510:
  3738  05A8  3001               	movlw	1
  3739  05A9  00A8               	movwf	??___xxtofl
  3740  05AA  0828               	movf	??___xxtofl,w
  3741  05AB  07AD               	addwf	___xxtofl@exp,f
  3742  05AC  3001               	movlw	1
  3743  05AD                     u1985:
  3744  05AD  36B1               	lsrf	___xxtofl@arg+3,f
  3745  05AE  0CB0               	rrf	___xxtofl@arg+2,f
  3746  05AF  0CAF               	rrf	___xxtofl@arg+1,f
  3747  05B0  0CAE               	rrf	___xxtofl@arg,f
  3748  05B1  0B89               	decfsz	9,f
  3749  05B2  2DAD               	goto	u1985
  3750  05B3                     l2512:
  3751  05B3  30FE               	movlw	254
  3752  05B4  0531               	andwf	___xxtofl@arg+3,w
  3753  05B5  1D03               	btfss	3,2
  3754  05B6  2DB8               	goto	u1991
  3755  05B7  2DB9               	goto	u1990
  3756  05B8                     u1991:
  3757  05B8  2DA8               	goto	l2510
  3758  05B9                     u1990:
  3759  05B9  2DCD               	goto	l1167
  3760  05BA                     l2514:
  3761  05BA  3001               	movlw	1
  3762  05BB  00A8               	movwf	??___xxtofl
  3763  05BC  0828               	movf	??___xxtofl,w
  3764  05BD  07AD               	addwf	___xxtofl@exp,f
  3765  05BE                     l2516:
  3766  05BE  3001               	movlw	1
  3767  05BF  07AE               	addwf	___xxtofl@arg,f
  3768  05C0  3000               	movlw	0
  3769  05C1  3DAF               	addwfc	___xxtofl@arg+1,f
  3770  05C2  3000               	movlw	0
  3771  05C3  3DB0               	addwfc	___xxtofl@arg+2,f
  3772  05C4  3000               	movlw	0
  3773  05C5  3DB1               	addwfc	___xxtofl@arg+3,f
  3774  05C6                     l2518:
  3775  05C6  3001               	movlw	1
  3776  05C7                     u2005:
  3777  05C7  36B1               	lsrf	___xxtofl@arg+3,f
  3778  05C8  0CB0               	rrf	___xxtofl@arg+2,f
  3779  05C9  0CAF               	rrf	___xxtofl@arg+1,f
  3780  05CA  0CAE               	rrf	___xxtofl@arg,f
  3781  05CB  0B89               	decfsz	9,f
  3782  05CC  2DC7               	goto	u2005
  3783  05CD                     l1167:
  3784  05CD  30FF               	movlw	255
  3785  05CE  0531               	andwf	___xxtofl@arg+3,w
  3786  05CF  1D03               	btfss	3,2
  3787  05D0  2DD2               	goto	u2011
  3788  05D1  2DD3               	goto	u2010
  3789  05D2                     u2011:
  3790  05D2  2DBA               	goto	l2514
  3791  05D3                     u2010:
  3792  05D3  2DDD               	goto	l2522
  3793  05D4                     l2520:
  3794  05D4  3001               	movlw	1
  3795  05D5  02AD               	subwf	___xxtofl@exp,f
  3796  05D6  3001               	movlw	1
  3797  05D7                     u2025:
  3798  05D7  35AE               	lslf	___xxtofl@arg,f
  3799  05D8  0DAF               	rlf	___xxtofl@arg+1,f
  3800  05D9  0DB0               	rlf	___xxtofl@arg+2,f
  3801  05DA  0DB1               	rlf	___xxtofl@arg+3,f
  3802  05DB  0B89               	decfsz	9,f
  3803  05DC  2DD7               	goto	u2025
  3804  05DD                     l2522:
  3805  05DD  1BB0               	btfsc	___xxtofl@arg+2,7
  3806  05DE  2DE0               	goto	u2031
  3807  05DF  2DE1               	goto	u2030
  3808  05E0                     u2031:
  3809  05E0  2DE7               	goto	l1174
  3810  05E1                     u2030:
  3811  05E1                     l2524:
  3812  05E1  3002               	movlw	2
  3813  05E2  022D               	subwf	___xxtofl@exp,w
  3814  05E3  1803               	skipnc
  3815  05E4  2DE6               	goto	u2041
  3816  05E5  2DE7               	goto	u2040
  3817  05E6                     u2041:
  3818  05E6  2DD4               	goto	l2520
  3819  05E7                     u2040:
  3820  05E7                     l1174:
  3821  05E7  182D               	btfsc	___xxtofl@exp,0
  3822  05E8  2DEA               	goto	u2051
  3823  05E9  2DEB               	goto	u2050
  3824  05EA                     u2051:
  3825  05EA  2DF3               	goto	l1175
  3826  05EB                     u2050:
  3827  05EB                     l2526:
  3828  05EB  30FF               	movlw	255
  3829  05EC  05AE               	andwf	___xxtofl@arg,f
  3830  05ED  30FF               	movlw	255
  3831  05EE  05AF               	andwf	___xxtofl@arg+1,f
  3832  05EF  307F               	movlw	127
  3833  05F0  05B0               	andwf	___xxtofl@arg+2,f
  3834  05F1  30FF               	movlw	255
  3835  05F2  05B1               	andwf	___xxtofl@arg+3,f
  3836  05F3                     l1175:
  3837  05F3  1003               	clrc
  3838  05F4  0CAD               	rrf	___xxtofl@exp,f
  3839  05F5                     l2528:
  3840  05F5  082D               	movf	___xxtofl@exp,w
  3841  05F6  00A8               	movwf	??___xxtofl
  3842  05F7  01A9               	clrf	??___xxtofl+1
  3843  05F8  01AA               	clrf	??___xxtofl+2
  3844  05F9  01AB               	clrf	??___xxtofl+3
  3845  05FA  3018               	movlw	24
  3846  05FB                     u2065:
  3847  05FB  35A8               	lslf	??___xxtofl,f
  3848  05FC  0DA9               	rlf	??___xxtofl+1,f
  3849  05FD  0DAA               	rlf	??___xxtofl+2,f
  3850  05FE  0DAB               	rlf	??___xxtofl+3,f
  3851  05FF                     u2060:
  3852  05FF  0B89               	decfsz	9,f
  3853  0600  2DFB               	goto	u2065
  3854  0601  0828               	movf	??___xxtofl,w
  3855  0602  04AE               	iorwf	___xxtofl@arg,f
  3856  0603  0829               	movf	??___xxtofl+1,w
  3857  0604  04AF               	iorwf	___xxtofl@arg+1,f
  3858  0605  082A               	movf	??___xxtofl+2,w
  3859  0606  04B0               	iorwf	___xxtofl@arg+2,f
  3860  0607  082B               	movf	??___xxtofl+3,w
  3861  0608  04B1               	iorwf	___xxtofl@arg+3,f
  3862  0609                     l2530:
  3863  0609  082C               	movf	___xxtofl@sign,w
  3864  060A  1903               	btfsc	3,2
  3865  060B  2E0D               	goto	u2071
  3866  060C  2E0E               	goto	u2070
  3867  060D                     u2071:
  3868  060D  2E13               	goto	l2536
  3869  060E                     u2070:
  3870  060E                     l2532:
  3871  060E  1FA7               	btfss	___xxtofl@val+3,7
  3872  060F  2E11               	goto	u2081
  3873  0610  2E12               	goto	u2080
  3874  0611                     u2081:
  3875  0611  2E13               	goto	l2536
  3876  0612                     u2080:
  3877  0612                     l2534:
  3878  0612  17B1               	bsf	___xxtofl@arg+3,7
  3879  0613                     l2536:
  3880  0613  0831               	movf	___xxtofl@arg+3,w
  3881  0614  00A7               	movwf	?___xxtofl+3
  3882  0615  0830               	movf	___xxtofl@arg+2,w
  3883  0616  00A6               	movwf	?___xxtofl+2
  3884  0617  082F               	movf	___xxtofl@arg+1,w
  3885  0618  00A5               	movwf	?___xxtofl+1
  3886  0619  082E               	movf	___xxtofl@arg,w
  3887  061A  00A4               	movwf	?___xxtofl
  3888  061B                     l1163:
  3889  061B  0008               	return
  3890  061C                     __end_of___xxtofl:
  3891                           
  3892                           	psect	text6
  3893  0695                     __ptext6:	
  3894 ;; *************** function ___fltol *****************
  3895 ;; Defined at:
  3896 ;;		line 43 in file "C:\Program Files\Microchip\xc8\v2.30\pic\sources\c99\common\fltol.c"
  3897 ;; Parameters:    Size  Location     Type
  3898 ;;  f1              4    0[BANK0 ] unsigned char 
  3899 ;; Auto vars:     Size  Location     Type
  3900 ;;  exp1            1   10[BANK0 ] unsigned char 
  3901 ;;  sign1           1    9[BANK0 ] unsigned char 
  3902 ;; Return value:  Size  Location     Type
  3903 ;;                  4    0[BANK0 ] long 
  3904 ;; Registers used:
  3905 ;;		wreg, status,2, status,0
  3906 ;; Tracked objects:
  3907 ;;		On entry : 0/0
  3908 ;;		On exit  : 0/0
  3909 ;;		Unchanged: 0/0
  3910 ;; Data sizes:     COMMON   BANK0   BANK1   BANK2   BANK3   BANK4
  3911 ;;      Params:         0       4       0       0       0       0
  3912 ;;      Locals:         0       2       0       0       0       0
  3913 ;;      Temps:          0       5       0       0       0       0
  3914 ;;      Totals:         0      11       0       0       0       0
  3915 ;;Total ram usage:       11 bytes
  3916 ;; Hardware stack levels used:    1
  3917 ;; Hardware stack levels required when called:    4
  3918 ;; This function calls:
  3919 ;;		Nothing
  3920 ;; This function is called by:
  3921 ;;		_comunicacao
  3922 ;; This function uses a non-reentrant model
  3923 ;;
  3924                           
  3925                           
  3926                           ;psect for function ___fltol
  3927  0695                     ___fltol:
  3928  0695                     l2180:	
  3929                           ;incstack = 0
  3930                           ; Regs used in ___fltol: [wreg+status,2+status,0]
  3931                           
  3932  0695  1003               	clrc
  3933  0696  0020               	movlb	0	; select bank0
  3934  0697  0D22               	rlf	___fltol@f1+2,w
  3935  0698  0D23               	rlf	___fltol@f1+3,w
  3936  0699  00A4               	movwf	??___fltol
  3937  069A  0824               	movf	??___fltol,w
  3938  069B  00AA               	movwf	___fltol@exp1
  3939  069C  082A               	movf	___fltol@exp1,w
  3940  069D  1D03               	btfss	3,2
  3941  069E  2EA0               	goto	u1301
  3942  069F  2EA1               	goto	u1300
  3943  06A0                     u1301:
  3944  06A0  2EAA               	goto	l2186
  3945  06A1                     u1300:
  3946  06A1                     l2182:
  3947  06A1  3000               	movlw	0
  3948  06A2  00A3               	movwf	?___fltol+3
  3949  06A3  3000               	movlw	0
  3950  06A4  00A2               	movwf	?___fltol+2
  3951  06A5  3000               	movlw	0
  3952  06A6  00A1               	movwf	?___fltol+1
  3953  06A7  3000               	movlw	0
  3954  06A8  00A0               	movwf	?___fltol
  3955  06A9  2F09               	goto	l914
  3956  06AA                     l2186:
  3957  06AA  0820               	movf	___fltol@f1,w
  3958  06AB  00A4               	movwf	??___fltol
  3959  06AC  0821               	movf	___fltol@f1+1,w
  3960  06AD  00A5               	movwf	??___fltol+1
  3961  06AE  0822               	movf	___fltol@f1+2,w
  3962  06AF  00A6               	movwf	??___fltol+2
  3963  06B0  0823               	movf	___fltol@f1+3,w
  3964  06B1  00A7               	movwf	??___fltol+3
  3965  06B2  301F               	movlw	31
  3966  06B3                     u1315:
  3967  06B3  36A7               	lsrf	??___fltol+3,f
  3968  06B4  0CA6               	rrf	??___fltol+2,f
  3969  06B5  0CA5               	rrf	??___fltol+1,f
  3970  06B6  0CA4               	rrf	??___fltol,f
  3971  06B7                     u1310:
  3972  06B7  0B89               	decfsz	9,f
  3973  06B8  2EB3               	goto	u1315
  3974  06B9  0824               	movf	??___fltol,w
  3975  06BA  00A8               	movwf	??___fltol+4
  3976  06BB  0828               	movf	??___fltol+4,w
  3977  06BC  00A9               	movwf	___fltol@sign1
  3978  06BD                     l2188:
  3979  06BD  17A2               	bsf	___fltol@f1+2,7
  3980  06BE                     l2190:
  3981  06BE  30FF               	movlw	255
  3982  06BF  05A0               	andwf	___fltol@f1,f
  3983  06C0  30FF               	movlw	255
  3984  06C1  05A1               	andwf	___fltol@f1+1,f
  3985  06C2  30FF               	movlw	255
  3986  06C3  05A2               	andwf	___fltol@f1+2,f
  3987  06C4  3000               	movlw	0
  3988  06C5  05A3               	andwf	___fltol@f1+3,f
  3989  06C6                     l2192:
  3990  06C6  3096               	movlw	150
  3991  06C7  02AA               	subwf	___fltol@exp1,f
  3992  06C8                     l2194:
  3993  06C8  1FAA               	btfss	___fltol@exp1,7
  3994  06C9  2ECB               	goto	u1321
  3995  06CA  2ECC               	goto	u1320
  3996  06CB                     u1321:
  3997  06CB  2EE4               	goto	l2204
  3998  06CC                     u1320:
  3999  06CC                     l2196:
  4000  06CC  082A               	movf	___fltol@exp1,w
  4001  06CD  3A80               	xorlw	128
  4002  06CE  3E97               	addlw	151
  4003  06CF  1803               	skipnc
  4004  06D0  2ED2               	goto	u1331
  4005  06D1  2ED3               	goto	u1330
  4006  06D2                     u1331:
  4007  06D2  2ED4               	goto	l2202
  4008  06D3                     u1330:
  4009  06D3  2EA1               	goto	l2182
  4010  06D4                     l2202:
  4011  06D4  3001               	movlw	1
  4012  06D5                     u1345:
  4013  06D5  36A3               	lsrf	___fltol@f1+3,f
  4014  06D6  0CA2               	rrf	___fltol@f1+2,f
  4015  06D7  0CA1               	rrf	___fltol@f1+1,f
  4016  06D8  0CA0               	rrf	___fltol@f1,f
  4017  06D9  0B89               	decfsz	9,f
  4018  06DA  2ED5               	goto	u1345
  4019  06DB  3001               	movlw	1
  4020  06DC  00A4               	movwf	??___fltol
  4021  06DD  0824               	movf	??___fltol,w
  4022  06DE  07AA               	addwf	___fltol@exp1,f
  4023  06DF  1D03               	btfss	3,2
  4024  06E0  2EE2               	goto	u1351
  4025  06E1  2EE3               	goto	u1350
  4026  06E2                     u1351:
  4027  06E2  2ED4               	goto	l2202
  4028  06E3                     u1350:
  4029  06E3  2EF9               	goto	l2212
  4030  06E4                     l2204:
  4031  06E4  3020               	movlw	32
  4032  06E5  022A               	subwf	___fltol@exp1,w
  4033  06E6  1C03               	skipc
  4034  06E7  2EE9               	goto	u1361
  4035  06E8  2EEA               	goto	u1360
  4036  06E9                     u1361:
  4037  06E9  2EF4               	goto	l921
  4038  06EA                     u1360:
  4039  06EA  2EA1               	goto	l2182
  4040  06EB                     l2210:
  4041  06EB  3001               	movlw	1
  4042  06EC                     u1375:
  4043  06EC  35A0               	lslf	___fltol@f1,f
  4044  06ED  0DA1               	rlf	___fltol@f1+1,f
  4045  06EE  0DA2               	rlf	___fltol@f1+2,f
  4046  06EF  0DA3               	rlf	___fltol@f1+3,f
  4047  06F0  0B89               	decfsz	9,f
  4048  06F1  2EEC               	goto	u1375
  4049  06F2  3001               	movlw	1
  4050  06F3  02AA               	subwf	___fltol@exp1,f
  4051  06F4                     l921:
  4052  06F4  082A               	movf	___fltol@exp1,w
  4053  06F5  1D03               	btfss	3,2
  4054  06F6  2EF8               	goto	u1381
  4055  06F7  2EF9               	goto	u1380
  4056  06F8                     u1381:
  4057  06F8  2EEB               	goto	l2210
  4058  06F9                     u1380:
  4059  06F9                     l2212:
  4060  06F9  0829               	movf	___fltol@sign1,w
  4061  06FA  1903               	btfsc	3,2
  4062  06FB  2EFD               	goto	u1391
  4063  06FC  2EFE               	goto	u1390
  4064  06FD                     u1391:
  4065  06FD  2F09               	goto	l924
  4066  06FE                     u1390:
  4067  06FE                     l2214:
  4068  06FE  09A0               	comf	___fltol@f1,f
  4069  06FF  09A1               	comf	___fltol@f1+1,f
  4070  0700  09A2               	comf	___fltol@f1+2,f
  4071  0701  09A3               	comf	___fltol@f1+3,f
  4072  0702  0AA0               	incf	___fltol@f1,f
  4073  0703  1903               	skipnz
  4074  0704  0AA1               	incf	___fltol@f1+1,f
  4075  0705  1903               	skipnz
  4076  0706  0AA2               	incf	___fltol@f1+2,f
  4077  0707  1903               	skipnz
  4078  0708  0AA3               	incf	___fltol@f1+3,f
  4079  0709                     l924:
  4080  0709                     l914:
  4081  0709  0008               	return
  4082  070A                     __end_of___fltol:
  4083                           
  4084                           	psect	text7
  4085  0048                     __ptext7:	
  4086 ;; *************** function ___flmul *****************
  4087 ;; Defined at:
  4088 ;;		line 8 in file "C:\Program Files\Microchip\xc8\v2.30\pic\sources\c99\common\sprcmul.c"
  4089 ;; Parameters:    Size  Location     Type
  4090 ;;  b               4   18[BANK0 ] long 
  4091 ;;  a               4   22[BANK0 ] long 
  4092 ;; Auto vars:     Size  Location     Type
  4093 ;;  prod            4   38[BANK0 ] struct .
  4094 ;;  grs             4   32[BANK0 ] unsigned long 
  4095 ;;  temp            2   42[BANK0 ] struct .
  4096 ;;  bexp            1   37[BANK0 ] unsigned char 
  4097 ;;  aexp            1   36[BANK0 ] unsigned char 
  4098 ;;  sign            1   31[BANK0 ] unsigned char 
  4099 ;; Return value:  Size  Location     Type
  4100 ;;                  4   18[BANK0 ] unsigned char 
  4101 ;; Registers used:
  4102 ;;		wreg, status,2, status,0, pclath, cstack
  4103 ;; Tracked objects:
  4104 ;;		On entry : 0/0
  4105 ;;		On exit  : 0/0
  4106 ;;		Unchanged: 0/0
  4107 ;; Data sizes:     COMMON   BANK0   BANK1   BANK2   BANK3   BANK4
  4108 ;;      Params:         0       8       0       0       0       0
  4109 ;;      Locals:         0      13       0       0       0       0
  4110 ;;      Temps:          0       5       0       0       0       0
  4111 ;;      Totals:         0      26       0       0       0       0
  4112 ;;Total ram usage:       26 bytes
  4113 ;; Hardware stack levels used:    1
  4114 ;; Hardware stack levels required when called:    5
  4115 ;; This function calls:
  4116 ;;		__Umul8_16
  4117 ;; This function is called by:
  4118 ;;		_comunicacao
  4119 ;;		_controle
  4120 ;; This function uses a non-reentrant model
  4121 ;;
  4122                           
  4123                           
  4124                           ;psect for function ___flmul
  4125  0048                     ___flmul:
  4126  0048                     l2356:	
  4127                           ;incstack = 0
  4128                           ; Regs used in ___flmul: [wreg+status,2+status,0+pclath+cstack]
  4129                           
  4130  0048  0020               	movlb	0	; select bank0
  4131  0049  0835               	movf	___flmul@b+3,w
  4132  004A  3980               	andlw	128
  4133  004B  00BA               	movwf	??___flmul
  4134  004C  083A               	movf	??___flmul,w
  4135  004D  00BF               	movwf	___flmul@sign
  4136  004E                     l2358:
  4137  004E  3535               	lslf	___flmul@b+3,w
  4138  004F  00BA               	movwf	??___flmul
  4139  0050  083A               	movf	??___flmul,w
  4140  0051  00C5               	movwf	___flmul@bexp
  4141  0052                     l2360:
  4142  0052  1FB4               	btfss	___flmul@b+2,7
  4143  0053  2855               	goto	u1691
  4144  0054  2856               	goto	u1690
  4145  0055                     u1691:
  4146  0055  2857               	goto	l2364
  4147  0056                     u1690:
  4148  0056                     l2362:
  4149  0056  1445               	bsf	___flmul@bexp,0
  4150  0057                     l2364:
  4151  0057  0845               	movf	___flmul@bexp,w
  4152  0058  1903               	btfsc	3,2
  4153  0059  285B               	goto	u1701
  4154  005A  285C               	goto	u1700
  4155  005B                     u1701:
  4156  005B  286B               	goto	l2372
  4157  005C                     u1700:
  4158  005C                     l2366:
  4159  005C  0A45               	incf	___flmul@bexp,w
  4160  005D  1D03               	btfss	3,2
  4161  005E  2860               	goto	u1711
  4162  005F  2861               	goto	u1710
  4163  0060                     u1711:
  4164  0060  2869               	goto	l2370
  4165  0061                     u1710:
  4166  0061                     l2368:
  4167  0061  3000               	movlw	0
  4168  0062  00B5               	movwf	___flmul@b+3
  4169  0063  3000               	movlw	0
  4170  0064  00B4               	movwf	___flmul@b+2
  4171  0065  3000               	movlw	0
  4172  0066  00B3               	movwf	___flmul@b+1
  4173  0067  3000               	movlw	0
  4174  0068  00B2               	movwf	___flmul@b
  4175  0069                     l2370:
  4176  0069  17B4               	bsf	___flmul@b+2,7
  4177  006A  2873               	goto	l2374
  4178  006B                     l2372:
  4179  006B  3000               	movlw	0
  4180  006C  00B5               	movwf	___flmul@b+3
  4181  006D  3000               	movlw	0
  4182  006E  00B4               	movwf	___flmul@b+2
  4183  006F  3000               	movlw	0
  4184  0070  00B3               	movwf	___flmul@b+1
  4185  0071  3000               	movlw	0
  4186  0072  00B2               	movwf	___flmul@b
  4187  0073                     l2374:
  4188  0073  0839               	movf	___flmul@a+3,w
  4189  0074  3980               	andlw	128
  4190  0075  00BA               	movwf	??___flmul
  4191  0076  083A               	movf	??___flmul,w
  4192  0077  06BF               	xorwf	___flmul@sign,f
  4193  0078                     l2376:
  4194  0078  3539               	lslf	___flmul@a+3,w
  4195  0079  00BA               	movwf	??___flmul
  4196  007A  083A               	movf	??___flmul,w
  4197  007B  00C4               	movwf	___flmul@aexp
  4198  007C                     l2378:
  4199  007C  1FB8               	btfss	___flmul@a+2,7
  4200  007D  287F               	goto	u1721
  4201  007E  2880               	goto	u1720
  4202  007F                     u1721:
  4203  007F  2881               	goto	l2382
  4204  0080                     u1720:
  4205  0080                     l2380:
  4206  0080  1444               	bsf	___flmul@aexp,0
  4207  0081                     l2382:
  4208  0081  0844               	movf	___flmul@aexp,w
  4209  0082  1903               	btfsc	3,2
  4210  0083  2885               	goto	u1731
  4211  0084  2886               	goto	u1730
  4212  0085                     u1731:
  4213  0085  2895               	goto	l2390
  4214  0086                     u1730:
  4215  0086                     l2384:
  4216  0086  0A44               	incf	___flmul@aexp,w
  4217  0087  1D03               	btfss	3,2
  4218  0088  288A               	goto	u1741
  4219  0089  288B               	goto	u1740
  4220  008A                     u1741:
  4221  008A  2893               	goto	l2388
  4222  008B                     u1740:
  4223  008B                     l2386:
  4224  008B  3000               	movlw	0
  4225  008C  00B9               	movwf	___flmul@a+3
  4226  008D  3000               	movlw	0
  4227  008E  00B8               	movwf	___flmul@a+2
  4228  008F  3000               	movlw	0
  4229  0090  00B7               	movwf	___flmul@a+1
  4230  0091  3000               	movlw	0
  4231  0092  00B6               	movwf	___flmul@a
  4232  0093                     l2388:
  4233  0093  17B8               	bsf	___flmul@a+2,7
  4234  0094  289D               	goto	l2392
  4235  0095                     l2390:
  4236  0095  3000               	movlw	0
  4237  0096  00B9               	movwf	___flmul@a+3
  4238  0097  3000               	movlw	0
  4239  0098  00B8               	movwf	___flmul@a+2
  4240  0099  3000               	movlw	0
  4241  009A  00B7               	movwf	___flmul@a+1
  4242  009B  3000               	movlw	0
  4243  009C  00B6               	movwf	___flmul@a
  4244  009D                     l2392:
  4245  009D  0844               	movf	___flmul@aexp,w
  4246  009E  1903               	btfsc	3,2
  4247  009F  28A1               	goto	u1751
  4248  00A0  28A2               	goto	u1750
  4249  00A1                     u1751:
  4250  00A1  28A7               	goto	l2396
  4251  00A2                     u1750:
  4252  00A2                     l2394:
  4253  00A2  0845               	movf	___flmul@bexp,w
  4254  00A3  1D03               	btfss	3,2
  4255  00A4  28A6               	goto	u1761
  4256  00A5  28A7               	goto	u1760
  4257  00A6                     u1761:
  4258  00A6  28B0               	goto	l2400
  4259  00A7                     u1760:
  4260  00A7                     l2396:
  4261  00A7  3000               	movlw	0
  4262  00A8  00B5               	movwf	?___flmul+3
  4263  00A9  3000               	movlw	0
  4264  00AA  00B4               	movwf	?___flmul+2
  4265  00AB  3000               	movlw	0
  4266  00AC  00B3               	movwf	?___flmul+1
  4267  00AD  3000               	movlw	0
  4268  00AE  00B2               	movwf	?___flmul
  4269  00AF  2A9E               	goto	l1117
  4270  00B0                     l2400:
  4271  00B0  0832               	movf	___flmul@b,w
  4272  00B1  00BA               	movwf	??___flmul
  4273  00B2  083A               	movf	??___flmul,w
  4274  00B3  00A0               	movwf	__Umul8_16@multiplicand
  4275  00B4  0838               	movf	___flmul@a+2,w
  4276  00B5  318F  27DC  3180   	fcall	__Umul8_16
  4277  00B8  0020               	movlb	0	; select bank0
  4278  00B9  0821               	movf	?__Umul8_16+1,w
  4279  00BA  00CB               	movwf	___flmul@temp+1
  4280  00BB  0820               	movf	?__Umul8_16,w
  4281  00BC  00CA               	movwf	___flmul@temp
  4282  00BD                     l2402:
  4283  00BD  084A               	movf	___flmul@temp,w
  4284  00BE  00BA               	movwf	??___flmul
  4285  00BF  01BB               	clrf	??___flmul+1
  4286  00C0  01BC               	clrf	??___flmul+2
  4287  00C1  01BD               	clrf	??___flmul+3
  4288  00C2  083D               	movf	??___flmul+3,w
  4289  00C3  00C3               	movwf	___flmul@grs+3
  4290  00C4  083C               	movf	??___flmul+2,w
  4291  00C5  00C2               	movwf	___flmul@grs+2
  4292  00C6  083B               	movf	??___flmul+1,w
  4293  00C7  00C1               	movwf	___flmul@grs+1
  4294  00C8  083A               	movf	??___flmul,w
  4295  00C9  00C0               	movwf	___flmul@grs
  4296  00CA                     l2404:
  4297  00CA  084B               	movf	___flmul@temp+1,w
  4298  00CB  00BA               	movwf	??___flmul
  4299  00CC  01BB               	clrf	??___flmul+1
  4300  00CD  01BC               	clrf	??___flmul+2
  4301  00CE  01BD               	clrf	??___flmul+3
  4302  00CF  083D               	movf	??___flmul+3,w
  4303  00D0  00C9               	movwf	___flmul@prod+3
  4304  00D1  083C               	movf	??___flmul+2,w
  4305  00D2  00C8               	movwf	___flmul@prod+2
  4306  00D3  083B               	movf	??___flmul+1,w
  4307  00D4  00C7               	movwf	___flmul@prod+1
  4308  00D5  083A               	movf	??___flmul,w
  4309  00D6  00C6               	movwf	___flmul@prod
  4310  00D7  0833               	movf	___flmul@b+1,w
  4311  00D8  00BA               	movwf	??___flmul
  4312  00D9  083A               	movf	??___flmul,w
  4313  00DA  00A0               	movwf	__Umul8_16@multiplicand
  4314  00DB  0837               	movf	___flmul@a+1,w
  4315  00DC  318F  27DC  3180   	fcall	__Umul8_16
  4316  00DF  0020               	movlb	0	; select bank0
  4317  00E0  0821               	movf	?__Umul8_16+1,w
  4318  00E1  00CB               	movwf	___flmul@temp+1
  4319  00E2  0820               	movf	?__Umul8_16,w
  4320  00E3  00CA               	movwf	___flmul@temp
  4321  00E4                     l2406:
  4322  00E4  084A               	movf	___flmul@temp,w
  4323  00E5  00BA               	movwf	??___flmul
  4324  00E6  01BB               	clrf	??___flmul+1
  4325  00E7  01BC               	clrf	??___flmul+2
  4326  00E8  01BD               	clrf	??___flmul+3
  4327  00E9  083A               	movf	??___flmul,w
  4328  00EA  07C0               	addwf	___flmul@grs,f
  4329  00EB  083B               	movf	??___flmul+1,w
  4330  00EC  3DC1               	addwfc	___flmul@grs+1,f
  4331  00ED  083C               	movf	??___flmul+2,w
  4332  00EE  3DC2               	addwfc	___flmul@grs+2,f
  4333  00EF  083D               	movf	??___flmul+3,w
  4334  00F0  3DC3               	addwfc	___flmul@grs+3,f
  4335  00F1                     l2408:
  4336  00F1  084B               	movf	___flmul@temp+1,w
  4337  00F2  00BA               	movwf	??___flmul
  4338  00F3  01BB               	clrf	??___flmul+1
  4339  00F4  01BC               	clrf	??___flmul+2
  4340  00F5  01BD               	clrf	??___flmul+3
  4341  00F6  083A               	movf	??___flmul,w
  4342  00F7  07C6               	addwf	___flmul@prod,f
  4343  00F8  083B               	movf	??___flmul+1,w
  4344  00F9  3DC7               	addwfc	___flmul@prod+1,f
  4345  00FA  083C               	movf	??___flmul+2,w
  4346  00FB  3DC8               	addwfc	___flmul@prod+2,f
  4347  00FC  083D               	movf	??___flmul+3,w
  4348  00FD  3DC9               	addwfc	___flmul@prod+3,f
  4349  00FE  0834               	movf	___flmul@b+2,w
  4350  00FF  00BA               	movwf	??___flmul
  4351  0100  083A               	movf	??___flmul,w
  4352  0101  00A0               	movwf	__Umul8_16@multiplicand
  4353  0102  0836               	movf	___flmul@a,w
  4354  0103  318F  27DC  3180   	fcall	__Umul8_16
  4355  0106  0020               	movlb	0	; select bank0
  4356  0107  0821               	movf	?__Umul8_16+1,w
  4357  0108  00CB               	movwf	___flmul@temp+1
  4358  0109  0820               	movf	?__Umul8_16,w
  4359  010A  00CA               	movwf	___flmul@temp
  4360  010B                     l2410:
  4361  010B  084A               	movf	___flmul@temp,w
  4362  010C  00BA               	movwf	??___flmul
  4363  010D  01BB               	clrf	??___flmul+1
  4364  010E  01BC               	clrf	??___flmul+2
  4365  010F  01BD               	clrf	??___flmul+3
  4366  0110  083A               	movf	??___flmul,w
  4367  0111  07C0               	addwf	___flmul@grs,f
  4368  0112  083B               	movf	??___flmul+1,w
  4369  0113  3DC1               	addwfc	___flmul@grs+1,f
  4370  0114  083C               	movf	??___flmul+2,w
  4371  0115  3DC2               	addwfc	___flmul@grs+2,f
  4372  0116  083D               	movf	??___flmul+3,w
  4373  0117  3DC3               	addwfc	___flmul@grs+3,f
  4374  0118                     l2412:
  4375  0118  084B               	movf	___flmul@temp+1,w
  4376  0119  00BA               	movwf	??___flmul
  4377  011A  01BB               	clrf	??___flmul+1
  4378  011B  01BC               	clrf	??___flmul+2
  4379  011C  01BD               	clrf	??___flmul+3
  4380  011D  083A               	movf	??___flmul,w
  4381  011E  07C6               	addwf	___flmul@prod,f
  4382  011F  083B               	movf	??___flmul+1,w
  4383  0120  3DC7               	addwfc	___flmul@prod+1,f
  4384  0121  083C               	movf	??___flmul+2,w
  4385  0122  3DC8               	addwfc	___flmul@prod+2,f
  4386  0123  083D               	movf	??___flmul+3,w
  4387  0124  3DC9               	addwfc	___flmul@prod+3,f
  4388  0125                     l2414:
  4389  0125  3008               	movlw	8
  4390  0126                     u1775:
  4391  0126  35C0               	lslf	___flmul@grs,f
  4392  0127  0DC1               	rlf	___flmul@grs+1,f
  4393  0128  0DC2               	rlf	___flmul@grs+2,f
  4394  0129  0DC3               	rlf	___flmul@grs+3,f
  4395  012A  0B89               	decfsz	9,f
  4396  012B  2926               	goto	u1775
  4397  012C                     l2416:
  4398  012C  0833               	movf	___flmul@b+1,w
  4399  012D  00BA               	movwf	??___flmul
  4400  012E  083A               	movf	??___flmul,w
  4401  012F  00A0               	movwf	__Umul8_16@multiplicand
  4402  0130  0836               	movf	___flmul@a,w
  4403  0131  318F  27DC  3180   	fcall	__Umul8_16
  4404  0134  0020               	movlb	0	; select bank0
  4405  0135  0821               	movf	?__Umul8_16+1,w
  4406  0136  00CB               	movwf	___flmul@temp+1
  4407  0137  0820               	movf	?__Umul8_16,w
  4408  0138  00CA               	movwf	___flmul@temp
  4409  0139                     l2418:
  4410  0139  084A               	movf	___flmul@temp,w
  4411  013A  07C0               	addwf	___flmul@grs,f
  4412  013B  084B               	movf	___flmul@temp+1,w
  4413  013C  3DC1               	addwfc	___flmul@grs+1,f
  4414  013D  3000               	movlw	0
  4415  013E  3DC2               	addwfc	___flmul@grs+2,f
  4416  013F  3DC3               	addwfc	___flmul@grs+3,f
  4417  0140                     l2420:
  4418  0140  0832               	movf	___flmul@b,w
  4419  0141  00BA               	movwf	??___flmul
  4420  0142  083A               	movf	??___flmul,w
  4421  0143  00A0               	movwf	__Umul8_16@multiplicand
  4422  0144  0837               	movf	___flmul@a+1,w
  4423  0145  318F  27DC  3180   	fcall	__Umul8_16
  4424  0148  0020               	movlb	0	; select bank0
  4425  0149  0821               	movf	?__Umul8_16+1,w
  4426  014A  00CB               	movwf	___flmul@temp+1
  4427  014B  0820               	movf	?__Umul8_16,w
  4428  014C  00CA               	movwf	___flmul@temp
  4429  014D                     l2422:
  4430  014D  084A               	movf	___flmul@temp,w
  4431  014E  07C0               	addwf	___flmul@grs,f
  4432  014F  084B               	movf	___flmul@temp+1,w
  4433  0150  3DC1               	addwfc	___flmul@grs+1,f
  4434  0151  3000               	movlw	0
  4435  0152  3DC2               	addwfc	___flmul@grs+2,f
  4436  0153  3DC3               	addwfc	___flmul@grs+3,f
  4437  0154                     l2424:
  4438  0154  3008               	movlw	8
  4439  0155                     u1785:
  4440  0155  35C0               	lslf	___flmul@grs,f
  4441  0156  0DC1               	rlf	___flmul@grs+1,f
  4442  0157  0DC2               	rlf	___flmul@grs+2,f
  4443  0158  0DC3               	rlf	___flmul@grs+3,f
  4444  0159  0B89               	decfsz	9,f
  4445  015A  2955               	goto	u1785
  4446  015B  0832               	movf	___flmul@b,w
  4447  015C  00BA               	movwf	??___flmul
  4448  015D  083A               	movf	??___flmul,w
  4449  015E  00A0               	movwf	__Umul8_16@multiplicand
  4450  015F  0836               	movf	___flmul@a,w
  4451  0160  318F  27DC  3180   	fcall	__Umul8_16
  4452  0163  0020               	movlb	0	; select bank0
  4453  0164  0821               	movf	?__Umul8_16+1,w
  4454  0165  00CB               	movwf	___flmul@temp+1
  4455  0166  0820               	movf	?__Umul8_16,w
  4456  0167  00CA               	movwf	___flmul@temp
  4457  0168                     l2426:
  4458  0168  084A               	movf	___flmul@temp,w
  4459  0169  07C0               	addwf	___flmul@grs,f
  4460  016A  084B               	movf	___flmul@temp+1,w
  4461  016B  3DC1               	addwfc	___flmul@grs+1,f
  4462  016C  3000               	movlw	0
  4463  016D  3DC2               	addwfc	___flmul@grs+2,f
  4464  016E  3DC3               	addwfc	___flmul@grs+3,f
  4465  016F                     l2428:
  4466  016F  0833               	movf	___flmul@b+1,w
  4467  0170  00BA               	movwf	??___flmul
  4468  0171  083A               	movf	??___flmul,w
  4469  0172  00A0               	movwf	__Umul8_16@multiplicand
  4470  0173  0838               	movf	___flmul@a+2,w
  4471  0174  318F  27DC  3180   	fcall	__Umul8_16
  4472  0177  0020               	movlb	0	; select bank0
  4473  0178  0821               	movf	?__Umul8_16+1,w
  4474  0179  00CB               	movwf	___flmul@temp+1
  4475  017A  0820               	movf	?__Umul8_16,w
  4476  017B  00CA               	movwf	___flmul@temp
  4477  017C  084A               	movf	___flmul@temp,w
  4478  017D  07C6               	addwf	___flmul@prod,f
  4479  017E  084B               	movf	___flmul@temp+1,w
  4480  017F  3DC7               	addwfc	___flmul@prod+1,f
  4481  0180  3000               	movlw	0
  4482  0181  3DC8               	addwfc	___flmul@prod+2,f
  4483  0182  3DC9               	addwfc	___flmul@prod+3,f
  4484  0183                     l2430:
  4485  0183  0834               	movf	___flmul@b+2,w
  4486  0184  00BA               	movwf	??___flmul
  4487  0185  083A               	movf	??___flmul,w
  4488  0186  00A0               	movwf	__Umul8_16@multiplicand
  4489  0187  0837               	movf	___flmul@a+1,w
  4490  0188  318F  27DC  3180   	fcall	__Umul8_16
  4491  018B  0020               	movlb	0	; select bank0
  4492  018C  0821               	movf	?__Umul8_16+1,w
  4493  018D  00CB               	movwf	___flmul@temp+1
  4494  018E  0820               	movf	?__Umul8_16,w
  4495  018F  00CA               	movwf	___flmul@temp
  4496  0190                     l2432:
  4497  0190  084A               	movf	___flmul@temp,w
  4498  0191  07C6               	addwf	___flmul@prod,f
  4499  0192  084B               	movf	___flmul@temp+1,w
  4500  0193  3DC7               	addwfc	___flmul@prod+1,f
  4501  0194  3000               	movlw	0
  4502  0195  3DC8               	addwfc	___flmul@prod+2,f
  4503  0196  3DC9               	addwfc	___flmul@prod+3,f
  4504  0197  0834               	movf	___flmul@b+2,w
  4505  0198  00BA               	movwf	??___flmul
  4506  0199  083A               	movf	??___flmul,w
  4507  019A  00A0               	movwf	__Umul8_16@multiplicand
  4508  019B  0838               	movf	___flmul@a+2,w
  4509  019C  318F  27DC  3180   	fcall	__Umul8_16
  4510  019F  0020               	movlb	0	; select bank0
  4511  01A0  0821               	movf	?__Umul8_16+1,w
  4512  01A1  00CB               	movwf	___flmul@temp+1
  4513  01A2  0820               	movf	?__Umul8_16,w
  4514  01A3  00CA               	movwf	___flmul@temp
  4515  01A4                     l2434:
  4516  01A4  084A               	movf	___flmul@temp,w
  4517  01A5  00BA               	movwf	??___flmul
  4518  01A6  084B               	movf	___flmul@temp+1,w
  4519  01A7  00BB               	movwf	??___flmul+1
  4520  01A8  01BC               	clrf	??___flmul+2
  4521  01A9  01BD               	clrf	??___flmul+3
  4522  01AA  3008               	movlw	8
  4523  01AB                     u1795:
  4524  01AB  35BA               	lslf	??___flmul,f
  4525  01AC  0DBB               	rlf	??___flmul+1,f
  4526  01AD  0DBC               	rlf	??___flmul+2,f
  4527  01AE  0DBD               	rlf	??___flmul+3,f
  4528  01AF                     u1790:
  4529  01AF  0B89               	decfsz	9,f
  4530  01B0  29AB               	goto	u1795
  4531  01B1  083A               	movf	??___flmul,w
  4532  01B2  07C6               	addwf	___flmul@prod,f
  4533  01B3  083B               	movf	??___flmul+1,w
  4534  01B4  3DC7               	addwfc	___flmul@prod+1,f
  4535  01B5  083C               	movf	??___flmul+2,w
  4536  01B6  3DC8               	addwfc	___flmul@prod+2,f
  4537  01B7  083D               	movf	??___flmul+3,w
  4538  01B8  3DC9               	addwfc	___flmul@prod+3,f
  4539  01B9                     l2436:
  4540  01B9  0840               	movf	___flmul@grs,w
  4541  01BA  00BA               	movwf	??___flmul
  4542  01BB  0841               	movf	___flmul@grs+1,w
  4543  01BC  00BB               	movwf	??___flmul+1
  4544  01BD  0842               	movf	___flmul@grs+2,w
  4545  01BE  00BC               	movwf	??___flmul+2
  4546  01BF  0843               	movf	___flmul@grs+3,w
  4547  01C0  00BD               	movwf	??___flmul+3
  4548  01C1  3018               	movlw	24
  4549  01C2                     u1805:
  4550  01C2  36BD               	lsrf	??___flmul+3,f
  4551  01C3  0CBC               	rrf	??___flmul+2,f
  4552  01C4  0CBB               	rrf	??___flmul+1,f
  4553  01C5  0CBA               	rrf	??___flmul,f
  4554  01C6                     u1800:
  4555  01C6  0B89               	decfsz	9,f
  4556  01C7  29C2               	goto	u1805
  4557  01C8  083A               	movf	??___flmul,w
  4558  01C9  07C6               	addwf	___flmul@prod,f
  4559  01CA  083B               	movf	??___flmul+1,w
  4560  01CB  3DC7               	addwfc	___flmul@prod+1,f
  4561  01CC  083C               	movf	??___flmul+2,w
  4562  01CD  3DC8               	addwfc	___flmul@prod+2,f
  4563  01CE  083D               	movf	??___flmul+3,w
  4564  01CF  3DC9               	addwfc	___flmul@prod+3,f
  4565  01D0                     l2438:
  4566  01D0  3008               	movlw	8
  4567  01D1                     u1815:
  4568  01D1  35C0               	lslf	___flmul@grs,f
  4569  01D2  0DC1               	rlf	___flmul@grs+1,f
  4570  01D3  0DC2               	rlf	___flmul@grs+2,f
  4571  01D4  0DC3               	rlf	___flmul@grs+3,f
  4572  01D5  0B89               	decfsz	9,f
  4573  01D6  29D1               	goto	u1815
  4574  01D7                     l2440:
  4575  01D7  0845               	movf	___flmul@bexp,w
  4576  01D8  0744               	addwf	___flmul@aexp,w
  4577  01D9  00BA               	movwf	??___flmul
  4578  01DA  01BB               	clrf	??___flmul+1
  4579  01DB  0DBB               	rlf	??___flmul+1,f
  4580  01DC  083A               	movf	??___flmul,w
  4581  01DD  3E82               	addlw	130
  4582  01DE  00CA               	movwf	___flmul@temp
  4583  01DF  30FF               	movlw	255
  4584  01E0  3D3B               	addwfc	??___flmul+1,w
  4585  01E1  00CB               	movwf	___flmul@temp+1
  4586  01E2  29FA               	goto	l2452
  4587  01E3                     l2442:
  4588  01E3  3001               	movlw	1
  4589  01E4                     u1825:
  4590  01E4  35C6               	lslf	___flmul@prod,f
  4591  01E5  0DC7               	rlf	___flmul@prod+1,f
  4592  01E6  0DC8               	rlf	___flmul@prod+2,f
  4593  01E7  0DC9               	rlf	___flmul@prod+3,f
  4594  01E8  0B89               	decfsz	9,f
  4595  01E9  29E4               	goto	u1825
  4596  01EA                     l2444:
  4597  01EA  1FC3               	btfss	___flmul@grs+3,7
  4598  01EB  29ED               	goto	u1831
  4599  01EC  29EE               	goto	u1830
  4600  01ED                     u1831:
  4601  01ED  29EF               	goto	l2448
  4602  01EE                     u1830:
  4603  01EE                     l2446:
  4604  01EE  1446               	bsf	___flmul@prod,0
  4605  01EF                     l2448:
  4606  01EF  3001               	movlw	1
  4607  01F0                     u1845:
  4608  01F0  35C0               	lslf	___flmul@grs,f
  4609  01F1  0DC1               	rlf	___flmul@grs+1,f
  4610  01F2  0DC2               	rlf	___flmul@grs+2,f
  4611  01F3  0DC3               	rlf	___flmul@grs+3,f
  4612  01F4  0B89               	decfsz	9,f
  4613  01F5  29F0               	goto	u1845
  4614  01F6                     l2450:
  4615  01F6  30FF               	movlw	255
  4616  01F7  07CA               	addwf	___flmul@temp,f
  4617  01F8  30FF               	movlw	255
  4618  01F9  3DCB               	addwfc	___flmul@temp+1,f
  4619  01FA                     l2452:
  4620  01FA  1FC8               	btfss	___flmul@prod+2,7
  4621  01FB  29FD               	goto	u1851
  4622  01FC  29FE               	goto	u1850
  4623  01FD                     u1851:
  4624  01FD  29E3               	goto	l2442
  4625  01FE                     u1850:
  4626  01FE                     l2454:
  4627  01FE  01C4               	clrf	___flmul@aexp
  4628  01FF                     l2456:
  4629  01FF  1FC3               	btfss	___flmul@grs+3,7
  4630  0200  2A02               	goto	u1861
  4631  0201  2A03               	goto	u1860
  4632  0202                     u1861:
  4633  0202  2A1F               	goto	l2464
  4634  0203                     u1860:
  4635  0203                     l2458:
  4636  0203  30FF               	movlw	255
  4637  0204  0540               	andwf	___flmul@grs,w
  4638  0205  00BA               	movwf	??___flmul
  4639  0206  30FF               	movlw	255
  4640  0207  0541               	andwf	___flmul@grs+1,w
  4641  0208  00BB               	movwf	??___flmul+1
  4642  0209  30FF               	movlw	255
  4643  020A  0542               	andwf	___flmul@grs+2,w
  4644  020B  00BC               	movwf	??___flmul+2
  4645  020C  307F               	movlw	127
  4646  020D  0543               	andwf	___flmul@grs+3,w
  4647  020E  00BD               	movwf	??___flmul+3
  4648  020F  083D               	movf	??___flmul+3,w
  4649  0210  043C               	iorwf	??___flmul+2,w
  4650  0211  043B               	iorwf	??___flmul+1,w
  4651  0212  043A               	iorwf	??___flmul,w
  4652  0213  1903               	skipnz
  4653  0214  2A16               	goto	u1871
  4654  0215  2A17               	goto	u1870
  4655  0216                     u1871:
  4656  0216  2A1A               	goto	l1123
  4657  0217                     u1870:
  4658  0217                     l2460:
  4659  0217  01C4               	clrf	___flmul@aexp
  4660  0218  0AC4               	incf	___flmul@aexp,f
  4661  0219  2A1F               	goto	l2464
  4662  021A                     l1123:
  4663  021A  1C46               	btfss	___flmul@prod,0
  4664  021B  2A1D               	goto	u1881
  4665  021C  2A1E               	goto	u1880
  4666  021D                     u1881:
  4667  021D  2A1F               	goto	l2464
  4668  021E                     u1880:
  4669  021E  2A17               	goto	l2460
  4670  021F                     l2464:
  4671  021F  0844               	movf	___flmul@aexp,w
  4672  0220  1903               	btfsc	3,2
  4673  0221  2A23               	goto	u1891
  4674  0222  2A24               	goto	u1890
  4675  0223                     u1891:
  4676  0223  2A4C               	goto	l2474
  4677  0224                     u1890:
  4678  0224                     l2466:
  4679  0224  3001               	movlw	1
  4680  0225  07C6               	addwf	___flmul@prod,f
  4681  0226  3000               	movlw	0
  4682  0227  3DC7               	addwfc	___flmul@prod+1,f
  4683  0228  3000               	movlw	0
  4684  0229  3DC8               	addwfc	___flmul@prod+2,f
  4685  022A  3000               	movlw	0
  4686  022B  3DC9               	addwfc	___flmul@prod+3,f
  4687  022C                     l2468:
  4688  022C  1C49               	btfss	___flmul@prod+3,0
  4689  022D  2A2F               	goto	u1901
  4690  022E  2A30               	goto	u1900
  4691  022F                     u1901:
  4692  022F  2A4C               	goto	l2474
  4693  0230                     u1900:
  4694  0230                     l2470:
  4695  0230  0846               	movf	___flmul@prod,w
  4696  0231  00BA               	movwf	??___flmul
  4697  0232  0847               	movf	___flmul@prod+1,w
  4698  0233  00BB               	movwf	??___flmul+1
  4699  0234  0848               	movf	___flmul@prod+2,w
  4700  0235  00BC               	movwf	??___flmul+2
  4701  0236  0849               	movf	___flmul@prod+3,w
  4702  0237  00BD               	movwf	??___flmul+3
  4703  0238  3001               	movlw	1
  4704  0239  00BE               	movwf	??___flmul+4
  4705  023A                     u1915:
  4706  023A  37BD               	asrf	??___flmul+3,f
  4707  023B  0CBC               	rrf	??___flmul+2,f
  4708  023C  0CBB               	rrf	??___flmul+1,f
  4709  023D  0CBA               	rrf	??___flmul,f
  4710  023E                     u1910:
  4711  023E  0BBE               	decfsz	??___flmul+4,f
  4712  023F  2A3A               	goto	u1915
  4713  0240  083D               	movf	??___flmul+3,w
  4714  0241  00C9               	movwf	___flmul@prod+3
  4715  0242  083C               	movf	??___flmul+2,w
  4716  0243  00C8               	movwf	___flmul@prod+2
  4717  0244  083B               	movf	??___flmul+1,w
  4718  0245  00C7               	movwf	___flmul@prod+1
  4719  0246  083A               	movf	??___flmul,w
  4720  0247  00C6               	movwf	___flmul@prod
  4721  0248                     l2472:
  4722  0248  3001               	movlw	1
  4723  0249  07CA               	addwf	___flmul@temp,f
  4724  024A  3000               	movlw	0
  4725  024B  3DCB               	addwfc	___flmul@temp+1,f
  4726  024C                     l2474:
  4727  024C  084B               	movf	___flmul@temp+1,w
  4728  024D  3A80               	xorlw	128
  4729  024E  00BA               	movwf	??___flmul
  4730  024F  3080               	movlw	128
  4731  0250  023A               	subwf	??___flmul,w
  4732  0251  1D03               	skipz
  4733  0252  2A55               	goto	u1925
  4734  0253  30FF               	movlw	255
  4735  0254  024A               	subwf	___flmul@temp,w
  4736  0255                     u1925:
  4737  0255  1C03               	skipc
  4738  0256  2A58               	goto	u1921
  4739  0257  2A59               	goto	u1920
  4740  0258                     u1921:
  4741  0258  2A63               	goto	l2478
  4742  0259                     u1920:
  4743  0259                     l2476:
  4744  0259  307F               	movlw	127
  4745  025A  0020               	movlb	0	; select bank0
  4746  025B  00C9               	movwf	___flmul@prod+3
  4747  025C  3080               	movlw	128
  4748  025D  00C8               	movwf	___flmul@prod+2
  4749  025E  3000               	movlw	0
  4750  025F  00C7               	movwf	___flmul@prod+1
  4751  0260  3000               	movlw	0
  4752  0261  00C6               	movwf	___flmul@prod
  4753  0262  2A92               	goto	l1129
  4754  0263                     l2478:
  4755  0263  0020               	movlb	0	; select bank0
  4756  0264  084B               	movf	___flmul@temp+1,w
  4757  0265  3A80               	xorlw	128
  4758  0266  00BA               	movwf	??___flmul
  4759  0267  3080               	movlw	128
  4760  0268  023A               	subwf	??___flmul,w
  4761  0269  1D03               	skipz
  4762  026A  2A6D               	goto	u1935
  4763  026B  3001               	movlw	1
  4764  026C  024A               	subwf	___flmul@temp,w
  4765  026D                     u1935:
  4766  026D  1803               	skipnc
  4767  026E  2A70               	goto	u1931
  4768  026F  2A71               	goto	u1930
  4769  0270                     u1931:
  4770  0270  2A7C               	goto	l2484
  4771  0271                     u1930:
  4772  0271                     l2480:
  4773  0271  3000               	movlw	0
  4774  0272  0020               	movlb	0	; select bank0
  4775  0273  00C9               	movwf	___flmul@prod+3
  4776  0274  3000               	movlw	0
  4777  0275  00C8               	movwf	___flmul@prod+2
  4778  0276  3000               	movlw	0
  4779  0277  00C7               	movwf	___flmul@prod+1
  4780  0278  3000               	movlw	0
  4781  0279  00C6               	movwf	___flmul@prod
  4782  027A                     l2482:
  4783  027A  01BF               	clrf	___flmul@sign
  4784  027B  2A92               	goto	l1129
  4785  027C                     l2484:
  4786  027C  0020               	movlb	0	; select bank0
  4787  027D  084A               	movf	___flmul@temp,w
  4788  027E  00BA               	movwf	??___flmul
  4789  027F  083A               	movf	??___flmul,w
  4790  0280  00C5               	movwf	___flmul@bexp
  4791  0281  30FF               	movlw	255
  4792  0282  05C6               	andwf	___flmul@prod,f
  4793  0283  30FF               	movlw	255
  4794  0284  05C7               	andwf	___flmul@prod+1,f
  4795  0285  307F               	movlw	127
  4796  0286  05C8               	andwf	___flmul@prod+2,f
  4797  0287  3000               	movlw	0
  4798  0288  05C9               	andwf	___flmul@prod+3,f
  4799  0289                     l2486:
  4800  0289  1C45               	btfss	___flmul@bexp,0
  4801  028A  2A8C               	goto	u1941
  4802  028B  2A8D               	goto	u1940
  4803  028C                     u1941:
  4804  028C  2A8E               	goto	l2490
  4805  028D                     u1940:
  4806  028D                     l2488:
  4807  028D  17C8               	bsf	___flmul@prod+2,7
  4808  028E                     l2490:
  4809  028E  3645               	lsrf	___flmul@bexp,w
  4810  028F  00BA               	movwf	??___flmul
  4811  0290  083A               	movf	??___flmul,w
  4812  0291  00C9               	movwf	___flmul@prod+3
  4813  0292                     l1129:
  4814  0292  083F               	movf	___flmul@sign,w
  4815  0293  00BA               	movwf	??___flmul
  4816  0294  083A               	movf	??___flmul,w
  4817  0295  04C9               	iorwf	___flmul@prod+3,f
  4818  0296                     l2492:
  4819  0296  0849               	movf	___flmul@prod+3,w
  4820  0297  00B5               	movwf	?___flmul+3
  4821  0298  0848               	movf	___flmul@prod+2,w
  4822  0299  00B4               	movwf	?___flmul+2
  4823  029A  0847               	movf	___flmul@prod+1,w
  4824  029B  00B3               	movwf	?___flmul+1
  4825  029C  0846               	movf	___flmul@prod,w
  4826  029D  00B2               	movwf	?___flmul
  4827  029E                     l1117:
  4828  029E  0008               	return
  4829  029F                     __end_of___flmul:
  4830                           
  4831                           	psect	text8
  4832  0FDC                     __ptext8:	
  4833 ;; *************** function __Umul8_16 *****************
  4834 ;; Defined at:
  4835 ;;		line 4 in file "C:\Program Files\Microchip\xc8\v2.30\pic\sources\c99\common\Umul8_16.c"
  4836 ;; Parameters:    Size  Location     Type
  4837 ;;  multiplier      1    wreg     unsigned char 
  4838 ;;  multiplicand    1    0[BANK0 ] unsigned char 
  4839 ;; Auto vars:     Size  Location     Type
  4840 ;;  multiplier      1    8[BANK0 ] unsigned char 
  4841 ;;  word_mpld       2    6[BANK0 ] unsigned int 
  4842 ;;  product         2    4[BANK0 ] unsigned int 
  4843 ;; Return value:  Size  Location     Type
  4844 ;;                  2    0[BANK0 ] unsigned int 
  4845 ;; Registers used:
  4846 ;;		wreg, status,2, status,0
  4847 ;; Tracked objects:
  4848 ;;		On entry : 0/0
  4849 ;;		On exit  : 0/0
  4850 ;;		Unchanged: 0/0
  4851 ;; Data sizes:     COMMON   BANK0   BANK1   BANK2   BANK3   BANK4
  4852 ;;      Params:         0       2       0       0       0       0
  4853 ;;      Locals:         0       5       0       0       0       0
  4854 ;;      Temps:          0       2       0       0       0       0
  4855 ;;      Totals:         0       9       0       0       0       0
  4856 ;;Total ram usage:        9 bytes
  4857 ;; Hardware stack levels used:    1
  4858 ;; Hardware stack levels required when called:    4
  4859 ;; This function calls:
  4860 ;;		Nothing
  4861 ;; This function is called by:
  4862 ;;		___flmul
  4863 ;; This function uses a non-reentrant model
  4864 ;;
  4865                           
  4866                           
  4867                           ;psect for function __Umul8_16
  4868  0FDC                     __Umul8_16:
  4869                           
  4870                           ;incstack = 0
  4871                           ; Regs used in __Umul8_16: [wreg+status,2+status,0]
  4872                           ;__Umul8_16@multiplier stored from wreg
  4873  0FDC  0020               	movlb	0	; select bank0
  4874  0FDD  00A8               	movwf	__Umul8_16@multiplier
  4875  0FDE                     l2012:
  4876  0FDE  01A4               	clrf	__Umul8_16@product
  4877  0FDF  01A5               	clrf	__Umul8_16@product+1
  4878  0FE0                     l2014:
  4879  0FE0  0820               	movf	__Umul8_16@multiplicand,w
  4880  0FE1  00A2               	movwf	??__Umul8_16
  4881  0FE2  01A3               	clrf	??__Umul8_16+1
  4882  0FE3  0822               	movf	??__Umul8_16,w
  4883  0FE4  00A6               	movwf	__Umul8_16@word_mpld
  4884  0FE5  0823               	movf	??__Umul8_16+1,w
  4885  0FE6  00A7               	movwf	__Umul8_16@word_mpld+1
  4886  0FE7                     l2016:
  4887  0FE7  1C28               	btfss	__Umul8_16@multiplier,0
  4888  0FE8  2FEA               	goto	u1171
  4889  0FE9  2FEB               	goto	u1170
  4890  0FEA                     u1171:
  4891  0FEA  2FEF               	goto	l1136
  4892  0FEB                     u1170:
  4893  0FEB                     l2018:
  4894  0FEB  0826               	movf	__Umul8_16@word_mpld,w
  4895  0FEC  07A4               	addwf	__Umul8_16@product,f
  4896  0FED  0827               	movf	__Umul8_16@word_mpld+1,w
  4897  0FEE  3DA5               	addwfc	__Umul8_16@product+1,f
  4898  0FEF                     l1136:
  4899  0FEF  3001               	movlw	1
  4900  0FF0                     u1185:
  4901  0FF0  35A6               	lslf	__Umul8_16@word_mpld,f
  4902  0FF1  0DA7               	rlf	__Umul8_16@word_mpld+1,f
  4903  0FF2  0B89               	decfsz	9,f
  4904  0FF3  2FF0               	goto	u1185
  4905  0FF4  1003               	clrc
  4906  0FF5  0CA8               	rrf	__Umul8_16@multiplier,f
  4907  0FF6                     l2020:
  4908  0FF6  0828               	movf	__Umul8_16@multiplier,w
  4909  0FF7  1D03               	btfss	3,2
  4910  0FF8  2FFA               	goto	u1191
  4911  0FF9  2FFB               	goto	u1190
  4912  0FFA                     u1191:
  4913  0FFA  2FE7               	goto	l2016
  4914  0FFB                     u1190:
  4915  0FFB                     l2022:
  4916  0FFB  0825               	movf	__Umul8_16@product+1,w
  4917  0FFC  00A1               	movwf	?__Umul8_16+1
  4918  0FFD  0824               	movf	__Umul8_16@product,w
  4919  0FFE  00A0               	movwf	?__Umul8_16
  4920  0FFF                     l1138:
  4921  0FFF  0008               	return
  4922  1000                     __end_of__Umul8_16:
  4923                           
  4924                           	psect	text9
  4925  029F                     __ptext9:	
  4926 ;; *************** function ___fldiv *****************
  4927 ;; Defined at:
  4928 ;;		line 8 in file "C:\Program Files\Microchip\xc8\v2.30\pic\sources\c99\common\sprcdiv.c"
  4929 ;; Parameters:    Size  Location     Type
  4930 ;;  a               4   44[BANK0 ] unsigned int 
  4931 ;;  b               4   48[BANK0 ] unsigned int 
  4932 ;; Auto vars:     Size  Location     Type
  4933 ;;  grs             4   64[BANK0 ] unsigned long 
  4934 ;;  rem             4   57[BANK0 ] unsigned long 
  4935 ;;  new_exp         2   62[BANK0 ] int 
  4936 ;;  aexp            1   69[BANK0 ] unsigned char 
  4937 ;;  bexp            1   68[BANK0 ] unsigned char 
  4938 ;;  sign            1   61[BANK0 ] unsigned char 
  4939 ;; Return value:  Size  Location     Type
  4940 ;;                  4   44[BANK0 ] unsigned char 
  4941 ;; Registers used:
  4942 ;;		wreg, status,2, status,0
  4943 ;; Tracked objects:
  4944 ;;		On entry : 0/0
  4945 ;;		On exit  : 0/0
  4946 ;;		Unchanged: 0/0
  4947 ;; Data sizes:     COMMON   BANK0   BANK1   BANK2   BANK3   BANK4
  4948 ;;      Params:         0       8       0       0       0       0
  4949 ;;      Locals:         0      13       0       0       0       0
  4950 ;;      Temps:          0       5       0       0       0       0
  4951 ;;      Totals:         0      26       0       0       0       0
  4952 ;;Total ram usage:       26 bytes
  4953 ;; Hardware stack levels used:    1
  4954 ;; Hardware stack levels required when called:    4
  4955 ;; This function calls:
  4956 ;;		Nothing
  4957 ;; This function is called by:
  4958 ;;		_comunicacao
  4959 ;; This function uses a non-reentrant model
  4960 ;;
  4961                           
  4962                           
  4963                           ;psect for function ___fldiv
  4964  029F                     ___fldiv:
  4965  029F                     l2216:	
  4966                           ;incstack = 0
  4967                           ; Regs used in ___fldiv: [wreg+status,2+status,0]
  4968                           
  4969  029F  0020               	movlb	0	; select bank0
  4970  02A0  0853               	movf	___fldiv@b+3,w
  4971  02A1  3980               	andlw	128
  4972  02A2  00D4               	movwf	??___fldiv
  4973  02A3  0854               	movf	??___fldiv,w
  4974  02A4  00DD               	movwf	___fldiv@sign
  4975  02A5                     l2218:
  4976  02A5  3553               	lslf	___fldiv@b+3,w
  4977  02A6  00D4               	movwf	??___fldiv
  4978  02A7  0854               	movf	??___fldiv,w
  4979  02A8  00E4               	movwf	___fldiv@bexp
  4980  02A9                     l2220:
  4981  02A9  1FD2               	btfss	___fldiv@b+2,7
  4982  02AA  2AAC               	goto	u1401
  4983  02AB  2AAD               	goto	u1400
  4984  02AC                     u1401:
  4985  02AC  2AAE               	goto	l2224
  4986  02AD                     u1400:
  4987  02AD                     l2222:
  4988  02AD  1464               	bsf	___fldiv@bexp,0
  4989  02AE                     l2224:
  4990  02AE  0864               	movf	___fldiv@bexp,w
  4991  02AF  1903               	btfsc	3,2
  4992  02B0  2AB2               	goto	u1411
  4993  02B1  2AB3               	goto	u1410
  4994  02B2                     u1411:
  4995  02B2  2AC3               	goto	l2234
  4996  02B3                     u1410:
  4997  02B3                     l2226:
  4998  02B3  0A64               	incf	___fldiv@bexp,w
  4999  02B4  1D03               	btfss	3,2
  5000  02B5  2AB7               	goto	u1421
  5001  02B6  2AB8               	goto	u1420
  5002  02B7                     u1421:
  5003  02B7  2AC0               	goto	l2230
  5004  02B8                     u1420:
  5005  02B8                     l2228:
  5006  02B8  3000               	movlw	0
  5007  02B9  00D3               	movwf	___fldiv@b+3
  5008  02BA  3000               	movlw	0
  5009  02BB  00D2               	movwf	___fldiv@b+2
  5010  02BC  3000               	movlw	0
  5011  02BD  00D1               	movwf	___fldiv@b+1
  5012  02BE  3000               	movlw	0
  5013  02BF  00D0               	movwf	___fldiv@b
  5014  02C0                     l2230:
  5015  02C0  17D2               	bsf	___fldiv@b+2,7
  5016  02C1                     l2232:
  5017  02C1  01D3               	clrf	___fldiv@b+3
  5018  02C2  2ACB               	goto	l2236
  5019  02C3                     l2234:
  5020  02C3  3000               	movlw	0
  5021  02C4  00D3               	movwf	___fldiv@b+3
  5022  02C5  3000               	movlw	0
  5023  02C6  00D2               	movwf	___fldiv@b+2
  5024  02C7  3000               	movlw	0
  5025  02C8  00D1               	movwf	___fldiv@b+1
  5026  02C9  3000               	movlw	0
  5027  02CA  00D0               	movwf	___fldiv@b
  5028  02CB                     l2236:
  5029  02CB  084F               	movf	___fldiv@a+3,w
  5030  02CC  3980               	andlw	128
  5031  02CD  00D4               	movwf	??___fldiv
  5032  02CE  0854               	movf	??___fldiv,w
  5033  02CF  06DD               	xorwf	___fldiv@sign,f
  5034  02D0                     l2238:
  5035  02D0  354F               	lslf	___fldiv@a+3,w
  5036  02D1  00D4               	movwf	??___fldiv
  5037  02D2  0854               	movf	??___fldiv,w
  5038  02D3  00E5               	movwf	___fldiv@aexp
  5039  02D4                     l2240:
  5040  02D4  1FCE               	btfss	___fldiv@a+2,7
  5041  02D5  2AD7               	goto	u1431
  5042  02D6  2AD8               	goto	u1430
  5043  02D7                     u1431:
  5044  02D7  2AD9               	goto	l2244
  5045  02D8                     u1430:
  5046  02D8                     l2242:
  5047  02D8  1465               	bsf	___fldiv@aexp,0
  5048  02D9                     l2244:
  5049  02D9  0865               	movf	___fldiv@aexp,w
  5050  02DA  1903               	btfsc	3,2
  5051  02DB  2ADD               	goto	u1441
  5052  02DC  2ADE               	goto	u1440
  5053  02DD                     u1441:
  5054  02DD  2AEE               	goto	l2254
  5055  02DE                     u1440:
  5056  02DE                     l2246:
  5057  02DE  0A65               	incf	___fldiv@aexp,w
  5058  02DF  1D03               	btfss	3,2
  5059  02E0  2AE2               	goto	u1451
  5060  02E1  2AE3               	goto	u1450
  5061  02E2                     u1451:
  5062  02E2  2AEB               	goto	l2250
  5063  02E3                     u1450:
  5064  02E3                     l2248:
  5065  02E3  3000               	movlw	0
  5066  02E4  00CF               	movwf	___fldiv@a+3
  5067  02E5  3000               	movlw	0
  5068  02E6  00CE               	movwf	___fldiv@a+2
  5069  02E7  3000               	movlw	0
  5070  02E8  00CD               	movwf	___fldiv@a+1
  5071  02E9  3000               	movlw	0
  5072  02EA  00CC               	movwf	___fldiv@a
  5073  02EB                     l2250:
  5074  02EB  17CE               	bsf	___fldiv@a+2,7
  5075  02EC                     l2252:
  5076  02EC  01CF               	clrf	___fldiv@a+3
  5077  02ED  2AF6               	goto	l1077
  5078  02EE                     l2254:
  5079  02EE  3000               	movlw	0
  5080  02EF  00CF               	movwf	___fldiv@a+3
  5081  02F0  3000               	movlw	0
  5082  02F1  00CE               	movwf	___fldiv@a+2
  5083  02F2  3000               	movlw	0
  5084  02F3  00CD               	movwf	___fldiv@a+1
  5085  02F4  3000               	movlw	0
  5086  02F5  00CC               	movwf	___fldiv@a
  5087  02F6                     l1077:
  5088  02F6  084F               	movf	___fldiv@a+3,w
  5089  02F7  044E               	iorwf	___fldiv@a+2,w
  5090  02F8  044D               	iorwf	___fldiv@a+1,w
  5091  02F9  044C               	iorwf	___fldiv@a,w
  5092  02FA  1D03               	skipz
  5093  02FB  2AFD               	goto	u1461
  5094  02FC  2AFE               	goto	u1460
  5095  02FD                     u1461:
  5096  02FD  2B17               	goto	l2264
  5097  02FE                     u1460:
  5098  02FE                     l2256:
  5099  02FE  3000               	movlw	0
  5100  02FF  00D3               	movwf	___fldiv@b+3
  5101  0300  3000               	movlw	0
  5102  0301  00D2               	movwf	___fldiv@b+2
  5103  0302  3000               	movlw	0
  5104  0303  00D1               	movwf	___fldiv@b+1
  5105  0304  3000               	movlw	0
  5106  0305  00D0               	movwf	___fldiv@b
  5107  0306  3080               	movlw	128
  5108  0307  04D2               	iorwf	___fldiv@b+2,f
  5109  0308  307F               	movlw	127
  5110  0309  04D3               	iorwf	___fldiv@b+3,f
  5111  030A                     l2258:
  5112  030A  085D               	movf	___fldiv@sign,w
  5113  030B  00D4               	movwf	??___fldiv
  5114  030C  0854               	movf	??___fldiv,w
  5115  030D  04D3               	iorwf	___fldiv@b+3,f
  5116  030E                     l2260:
  5117  030E  0853               	movf	___fldiv@b+3,w
  5118  030F  00CF               	movwf	?___fldiv+3
  5119  0310  0852               	movf	___fldiv@b+2,w
  5120  0311  00CE               	movwf	?___fldiv+2
  5121  0312  0851               	movf	___fldiv@b+1,w
  5122  0313  00CD               	movwf	?___fldiv+1
  5123  0314  0850               	movf	___fldiv@b,w
  5124  0315  00CC               	movwf	?___fldiv
  5125  0316  2C52               	goto	l1079
  5126  0317                     l2264:
  5127  0317  0864               	movf	___fldiv@bexp,w
  5128  0318  1D03               	btfss	3,2
  5129  0319  2B1B               	goto	u1471
  5130  031A  2B1C               	goto	u1470
  5131  031B                     u1471:
  5132  031B  2B25               	goto	l2270
  5133  031C                     u1470:
  5134  031C                     l2266:
  5135  031C  3000               	movlw	0
  5136  031D  00CF               	movwf	?___fldiv+3
  5137  031E  3000               	movlw	0
  5138  031F  00CE               	movwf	?___fldiv+2
  5139  0320  3000               	movlw	0
  5140  0321  00CD               	movwf	?___fldiv+1
  5141  0322  3000               	movlw	0
  5142  0323  00CC               	movwf	?___fldiv
  5143  0324  2C52               	goto	l1079
  5144  0325                     l2270:
  5145  0325  0864               	movf	___fldiv@bexp,w
  5146  0326  00D4               	movwf	??___fldiv
  5147  0327  01D5               	clrf	??___fldiv+1
  5148  0328  0855               	movf	??___fldiv+1,w
  5149  0329  00D7               	movwf	??___fldiv+3
  5150  032A  0865               	movf	___fldiv@aexp,w
  5151  032B  0254               	subwf	??___fldiv,w
  5152  032C  00D6               	movwf	??___fldiv+2
  5153  032D  1C03               	skipc
  5154  032E  03D7               	decf	??___fldiv+3,f
  5155  032F  0856               	movf	??___fldiv+2,w
  5156  0330  3E7F               	addlw	127
  5157  0331  00DE               	movwf	___fldiv@new_exp
  5158  0332  3000               	movlw	0
  5159  0333  3D57               	addwfc	??___fldiv+3,w
  5160  0334  00DF               	movwf	___fldiv@new_exp+1
  5161  0335                     l2272:
  5162  0335  0853               	movf	___fldiv@b+3,w
  5163  0336  00DC               	movwf	___fldiv@rem+3
  5164  0337  0852               	movf	___fldiv@b+2,w
  5165  0338  00DB               	movwf	___fldiv@rem+2
  5166  0339  0851               	movf	___fldiv@b+1,w
  5167  033A  00DA               	movwf	___fldiv@rem+1
  5168  033B  0850               	movf	___fldiv@b,w
  5169  033C  00D9               	movwf	___fldiv@rem
  5170  033D                     l2274:
  5171  033D  3000               	movlw	0
  5172  033E  00D3               	movwf	___fldiv@b+3
  5173  033F  3000               	movlw	0
  5174  0340  00D2               	movwf	___fldiv@b+2
  5175  0341  3000               	movlw	0
  5176  0342  00D1               	movwf	___fldiv@b+1
  5177  0343  3000               	movlw	0
  5178  0344  00D0               	movwf	___fldiv@b
  5179  0345                     l2276:
  5180  0345  3000               	movlw	0
  5181  0346  00E3               	movwf	___fldiv@grs+3
  5182  0347  3000               	movlw	0
  5183  0348  00E2               	movwf	___fldiv@grs+2
  5184  0349  3000               	movlw	0
  5185  034A  00E1               	movwf	___fldiv@grs+1
  5186  034B  3000               	movlw	0
  5187  034C  00E0               	movwf	___fldiv@grs
  5188  034D                     l2278:
  5189  034D  01E5               	clrf	___fldiv@aexp
  5190  034E  2B8D               	goto	l2298
  5191  034F                     l2280:
  5192  034F  0865               	movf	___fldiv@aexp,w
  5193  0350  1903               	btfsc	3,2
  5194  0351  2B53               	goto	u1481
  5195  0352  2B54               	goto	u1480
  5196  0353                     u1481:
  5197  0353  2B6E               	goto	l2290
  5198  0354                     u1480:
  5199  0354                     l2282:
  5200  0354  3001               	movlw	1
  5201  0355                     u1495:
  5202  0355  35D9               	lslf	___fldiv@rem,f
  5203  0356  0DDA               	rlf	___fldiv@rem+1,f
  5204  0357  0DDB               	rlf	___fldiv@rem+2,f
  5205  0358  0DDC               	rlf	___fldiv@rem+3,f
  5206  0359  0B89               	decfsz	9,f
  5207  035A  2B55               	goto	u1495
  5208  035B  3001               	movlw	1
  5209  035C                     u1505:
  5210  035C  35D0               	lslf	___fldiv@b,f
  5211  035D  0DD1               	rlf	___fldiv@b+1,f
  5212  035E  0DD2               	rlf	___fldiv@b+2,f
  5213  035F  0DD3               	rlf	___fldiv@b+3,f
  5214  0360  0B89               	decfsz	9,f
  5215  0361  2B5C               	goto	u1505
  5216  0362                     l2284:
  5217  0362  1FE3               	btfss	___fldiv@grs+3,7
  5218  0363  2B65               	goto	u1511
  5219  0364  2B66               	goto	u1510
  5220  0365                     u1511:
  5221  0365  2B67               	goto	l2288
  5222  0366                     u1510:
  5223  0366                     l2286:
  5224  0366  1450               	bsf	___fldiv@b,0
  5225  0367                     l2288:
  5226  0367  3001               	movlw	1
  5227  0368                     u1525:
  5228  0368  35E0               	lslf	___fldiv@grs,f
  5229  0369  0DE1               	rlf	___fldiv@grs+1,f
  5230  036A  0DE2               	rlf	___fldiv@grs+2,f
  5231  036B  0DE3               	rlf	___fldiv@grs+3,f
  5232  036C  0B89               	decfsz	9,f
  5233  036D  2B68               	goto	u1525
  5234  036E                     l2290:
  5235  036E  084F               	movf	___fldiv@a+3,w
  5236  036F  025C               	subwf	___fldiv@rem+3,w
  5237  0370  1D03               	skipz
  5238  0371  2B7C               	goto	u1535
  5239  0372  084E               	movf	___fldiv@a+2,w
  5240  0373  025B               	subwf	___fldiv@rem+2,w
  5241  0374  1D03               	skipz
  5242  0375  2B7C               	goto	u1535
  5243  0376  084D               	movf	___fldiv@a+1,w
  5244  0377  025A               	subwf	___fldiv@rem+1,w
  5245  0378  1D03               	skipz
  5246  0379  2B7C               	goto	u1535
  5247  037A  084C               	movf	___fldiv@a,w
  5248  037B  0259               	subwf	___fldiv@rem,w
  5249  037C                     u1535:
  5250  037C  1C03               	skipc
  5251  037D  2B7F               	goto	u1531
  5252  037E  2B80               	goto	u1530
  5253  037F                     u1531:
  5254  037F  2B89               	goto	l2296
  5255  0380                     u1530:
  5256  0380                     l2292:
  5257  0380  1763               	bsf	___fldiv@grs+3,6
  5258  0381                     l2294:
  5259  0381  084C               	movf	___fldiv@a,w
  5260  0382  02D9               	subwf	___fldiv@rem,f
  5261  0383  084D               	movf	___fldiv@a+1,w
  5262  0384  3BDA               	subwfb	___fldiv@rem+1,f
  5263  0385  084E               	movf	___fldiv@a+2,w
  5264  0386  3BDB               	subwfb	___fldiv@rem+2,f
  5265  0387  084F               	movf	___fldiv@a+3,w
  5266  0388  3BDC               	subwfb	___fldiv@rem+3,f
  5267  0389                     l2296:
  5268  0389  3001               	movlw	1
  5269  038A  00D4               	movwf	??___fldiv
  5270  038B  0854               	movf	??___fldiv,w
  5271  038C  07E5               	addwf	___fldiv@aexp,f
  5272  038D                     l2298:
  5273  038D  301A               	movlw	26
  5274  038E  0265               	subwf	___fldiv@aexp,w
  5275  038F  1C03               	skipc
  5276  0390  2B92               	goto	u1541
  5277  0391  2B93               	goto	u1540
  5278  0392                     u1541:
  5279  0392  2B4F               	goto	l2280
  5280  0393                     u1540:
  5281  0393                     l2300:
  5282  0393  085C               	movf	___fldiv@rem+3,w
  5283  0394  045B               	iorwf	___fldiv@rem+2,w
  5284  0395  045A               	iorwf	___fldiv@rem+1,w
  5285  0396  0459               	iorwf	___fldiv@rem,w
  5286  0397  1903               	skipnz
  5287  0398  2B9A               	goto	u1551
  5288  0399  2B9B               	goto	u1550
  5289  039A                     u1551:
  5290  039A  2BB4               	goto	l2314
  5291  039B                     u1550:
  5292  039B                     l2302:
  5293  039B  1460               	bsf	___fldiv@grs,0
  5294  039C  2BB4               	goto	l2314
  5295  039D                     l2304:
  5296  039D  3001               	movlw	1
  5297  039E                     u1565:
  5298  039E  35D0               	lslf	___fldiv@b,f
  5299  039F  0DD1               	rlf	___fldiv@b+1,f
  5300  03A0  0DD2               	rlf	___fldiv@b+2,f
  5301  03A1  0DD3               	rlf	___fldiv@b+3,f
  5302  03A2  0B89               	decfsz	9,f
  5303  03A3  2B9E               	goto	u1565
  5304  03A4                     l2306:
  5305  03A4  1FE3               	btfss	___fldiv@grs+3,7
  5306  03A5  2BA7               	goto	u1571
  5307  03A6  2BA8               	goto	u1570
  5308  03A7                     u1571:
  5309  03A7  2BA9               	goto	l2310
  5310  03A8                     u1570:
  5311  03A8                     l2308:
  5312  03A8  1450               	bsf	___fldiv@b,0
  5313  03A9                     l2310:
  5314  03A9  3001               	movlw	1
  5315  03AA                     u1585:
  5316  03AA  35E0               	lslf	___fldiv@grs,f
  5317  03AB  0DE1               	rlf	___fldiv@grs+1,f
  5318  03AC  0DE2               	rlf	___fldiv@grs+2,f
  5319  03AD  0DE3               	rlf	___fldiv@grs+3,f
  5320  03AE  0B89               	decfsz	9,f
  5321  03AF  2BAA               	goto	u1585
  5322  03B0                     l2312:
  5323  03B0  30FF               	movlw	255
  5324  03B1  07DE               	addwf	___fldiv@new_exp,f
  5325  03B2  30FF               	movlw	255
  5326  03B3  3DDF               	addwfc	___fldiv@new_exp+1,f
  5327  03B4                     l2314:
  5328  03B4  1FD2               	btfss	___fldiv@b+2,7
  5329  03B5  2BB7               	goto	u1591
  5330  03B6  2BB8               	goto	u1590
  5331  03B7                     u1591:
  5332  03B7  2B9D               	goto	l2304
  5333  03B8                     u1590:
  5334  03B8                     l2316:
  5335  03B8  01E5               	clrf	___fldiv@aexp
  5336  03B9                     l2318:
  5337  03B9  1FE3               	btfss	___fldiv@grs+3,7
  5338  03BA  2BBC               	goto	u1601
  5339  03BB  2BBD               	goto	u1600
  5340  03BC                     u1601:
  5341  03BC  2BD9               	goto	l2326
  5342  03BD                     u1600:
  5343  03BD                     l2320:
  5344  03BD  30FF               	movlw	255
  5345  03BE  0560               	andwf	___fldiv@grs,w
  5346  03BF  00D4               	movwf	??___fldiv
  5347  03C0  30FF               	movlw	255
  5348  03C1  0561               	andwf	___fldiv@grs+1,w
  5349  03C2  00D5               	movwf	??___fldiv+1
  5350  03C3  30FF               	movlw	255
  5351  03C4  0562               	andwf	___fldiv@grs+2,w
  5352  03C5  00D6               	movwf	??___fldiv+2
  5353  03C6  307F               	movlw	127
  5354  03C7  0563               	andwf	___fldiv@grs+3,w
  5355  03C8  00D7               	movwf	??___fldiv+3
  5356  03C9  0857               	movf	??___fldiv+3,w
  5357  03CA  0456               	iorwf	??___fldiv+2,w
  5358  03CB  0455               	iorwf	??___fldiv+1,w
  5359  03CC  0454               	iorwf	??___fldiv,w
  5360  03CD  1903               	skipnz
  5361  03CE  2BD0               	goto	u1611
  5362  03CF  2BD1               	goto	u1610
  5363  03D0                     u1611:
  5364  03D0  2BD4               	goto	l1093
  5365  03D1                     u1610:
  5366  03D1                     l2322:
  5367  03D1  01E5               	clrf	___fldiv@aexp
  5368  03D2  0AE5               	incf	___fldiv@aexp,f
  5369  03D3  2BD9               	goto	l2326
  5370  03D4                     l1093:
  5371  03D4  1C50               	btfss	___fldiv@b,0
  5372  03D5  2BD7               	goto	u1621
  5373  03D6  2BD8               	goto	u1620
  5374  03D7                     u1621:
  5375  03D7  2BD9               	goto	l2326
  5376  03D8                     u1620:
  5377  03D8  2BD1               	goto	l2322
  5378  03D9                     l2326:
  5379  03D9  0865               	movf	___fldiv@aexp,w
  5380  03DA  1903               	btfsc	3,2
  5381  03DB  2BDD               	goto	u1631
  5382  03DC  2BDE               	goto	u1630
  5383  03DD                     u1631:
  5384  03DD  2C06               	goto	l2336
  5385  03DE                     u1630:
  5386  03DE                     l2328:
  5387  03DE  3001               	movlw	1
  5388  03DF  07D0               	addwf	___fldiv@b,f
  5389  03E0  3000               	movlw	0
  5390  03E1  3DD1               	addwfc	___fldiv@b+1,f
  5391  03E2  3000               	movlw	0
  5392  03E3  3DD2               	addwfc	___fldiv@b+2,f
  5393  03E4  3000               	movlw	0
  5394  03E5  3DD3               	addwfc	___fldiv@b+3,f
  5395  03E6                     l2330:
  5396  03E6  1C53               	btfss	___fldiv@b+3,0
  5397  03E7  2BE9               	goto	u1641
  5398  03E8  2BEA               	goto	u1640
  5399  03E9                     u1641:
  5400  03E9  2C06               	goto	l2336
  5401  03EA                     u1640:
  5402  03EA                     l2332:
  5403  03EA  0850               	movf	___fldiv@b,w
  5404  03EB  00D4               	movwf	??___fldiv
  5405  03EC  0851               	movf	___fldiv@b+1,w
  5406  03ED  00D5               	movwf	??___fldiv+1
  5407  03EE  0852               	movf	___fldiv@b+2,w
  5408  03EF  00D6               	movwf	??___fldiv+2
  5409  03F0  0853               	movf	___fldiv@b+3,w
  5410  03F1  00D7               	movwf	??___fldiv+3
  5411  03F2  3001               	movlw	1
  5412  03F3  00D8               	movwf	??___fldiv+4
  5413  03F4                     u1655:
  5414  03F4  37D7               	asrf	??___fldiv+3,f
  5415  03F5  0CD6               	rrf	??___fldiv+2,f
  5416  03F6  0CD5               	rrf	??___fldiv+1,f
  5417  03F7  0CD4               	rrf	??___fldiv,f
  5418  03F8                     u1650:
  5419  03F8  0BD8               	decfsz	??___fldiv+4,f
  5420  03F9  2BF4               	goto	u1655
  5421  03FA  0857               	movf	??___fldiv+3,w
  5422  03FB  00D3               	movwf	___fldiv@b+3
  5423  03FC  0856               	movf	??___fldiv+2,w
  5424  03FD  00D2               	movwf	___fldiv@b+2
  5425  03FE  0855               	movf	??___fldiv+1,w
  5426  03FF  00D1               	movwf	___fldiv@b+1
  5427  0400  0854               	movf	??___fldiv,w
  5428  0401  00D0               	movwf	___fldiv@b
  5429  0402                     l2334:
  5430  0402  3001               	movlw	1
  5431  0403  07DE               	addwf	___fldiv@new_exp,f
  5432  0404  3000               	movlw	0
  5433  0405  3DDF               	addwfc	___fldiv@new_exp+1,f
  5434  0406                     l2336:
  5435  0406  085F               	movf	___fldiv@new_exp+1,w
  5436  0407  3A80               	xorlw	128
  5437  0408  00D4               	movwf	??___fldiv
  5438  0409  3080               	movlw	128
  5439  040A  0254               	subwf	??___fldiv,w
  5440  040B  1D03               	skipz
  5441  040C  2C0F               	goto	u1665
  5442  040D  30FF               	movlw	255
  5443  040E  025E               	subwf	___fldiv@new_exp,w
  5444  040F                     u1665:
  5445  040F  1C03               	skipc
  5446  0410  2C12               	goto	u1661
  5447  0411  2C13               	goto	u1660
  5448  0412                     u1661:
  5449  0412  2C20               	goto	l1098
  5450  0413                     u1660:
  5451  0413                     l2338:
  5452  0413  30FF               	movlw	255
  5453  0414  0020               	movlb	0	; select bank0
  5454  0415  00DE               	movwf	___fldiv@new_exp
  5455  0416  3000               	movlw	0
  5456  0417  00DF               	movwf	___fldiv@new_exp+1
  5457  0418  3000               	movlw	0
  5458  0419  00D3               	movwf	___fldiv@b+3
  5459  041A  3000               	movlw	0
  5460  041B  00D2               	movwf	___fldiv@b+2
  5461  041C  3000               	movlw	0
  5462  041D  00D1               	movwf	___fldiv@b+1
  5463  041E  3000               	movlw	0
  5464  041F  00D0               	movwf	___fldiv@b
  5465  0420                     l1098:
  5466  0420  0020               	movlb	0	; select bank0
  5467  0421  085F               	movf	___fldiv@new_exp+1,w
  5468  0422  3A80               	xorlw	128
  5469  0423  00D4               	movwf	??___fldiv
  5470  0424  3080               	movlw	128
  5471  0425  0254               	subwf	??___fldiv,w
  5472  0426  1D03               	skipz
  5473  0427  2C2A               	goto	u1675
  5474  0428  3001               	movlw	1
  5475  0429  025E               	subwf	___fldiv@new_exp,w
  5476  042A                     u1675:
  5477  042A  1803               	skipnc
  5478  042B  2C2D               	goto	u1671
  5479  042C  2C2E               	goto	u1670
  5480  042D                     u1671:
  5481  042D  2C3A               	goto	l1099
  5482  042E                     u1670:
  5483  042E                     l2340:
  5484  042E  0020               	movlb	0	; select bank0
  5485  042F  01DE               	clrf	___fldiv@new_exp
  5486  0430  01DF               	clrf	___fldiv@new_exp+1
  5487  0431                     l2342:
  5488  0431  3000               	movlw	0
  5489  0432  00D3               	movwf	___fldiv@b+3
  5490  0433  3000               	movlw	0
  5491  0434  00D2               	movwf	___fldiv@b+2
  5492  0435  3000               	movlw	0
  5493  0436  00D1               	movwf	___fldiv@b+1
  5494  0437  3000               	movlw	0
  5495  0438  00D0               	movwf	___fldiv@b
  5496  0439                     l2344:
  5497  0439  01DD               	clrf	___fldiv@sign
  5498  043A                     l1099:
  5499  043A  0020               	movlb	0	; select bank0
  5500  043B  085E               	movf	___fldiv@new_exp,w
  5501  043C  00D4               	movwf	??___fldiv
  5502  043D  0854               	movf	??___fldiv,w
  5503  043E  00E4               	movwf	___fldiv@bexp
  5504  043F                     l2346:
  5505  043F  1C64               	btfss	___fldiv@bexp,0
  5506  0440  2C42               	goto	u1681
  5507  0441  2C43               	goto	u1680
  5508  0442                     u1681:
  5509  0442  2C45               	goto	l2350
  5510  0443                     u1680:
  5511  0443                     l2348:
  5512  0443  17D2               	bsf	___fldiv@b+2,7
  5513  0444  2C49               	goto	l1101
  5514  0445                     l2350:
  5515  0445  307F               	movlw	127
  5516  0446  00D4               	movwf	??___fldiv
  5517  0447  0854               	movf	??___fldiv,w
  5518  0448  05D2               	andwf	___fldiv@b+2,f
  5519  0449                     l1101:
  5520  0449  3664               	lsrf	___fldiv@bexp,w
  5521  044A  00D4               	movwf	??___fldiv
  5522  044B  0854               	movf	??___fldiv,w
  5523  044C  00D3               	movwf	___fldiv@b+3
  5524  044D  085D               	movf	___fldiv@sign,w
  5525  044E  00D4               	movwf	??___fldiv
  5526  044F  0854               	movf	??___fldiv,w
  5527  0450  04D3               	iorwf	___fldiv@b+3,f
  5528  0451  2B0E               	goto	l2260
  5529  0452                     l1079:
  5530  0452  0008               	return
  5531  0453                     __end_of___fldiv:
  5532                           
  5533                           	psect	text10
  5534  0E38                     __ptext10:	
  5535 ;; *************** function _EUSART_is_rx_ready *****************
  5536 ;; Defined at:
  5537 ;;		line 99 in file "mcc_generated_files/eusart.c"
  5538 ;; Parameters:    Size  Location     Type
  5539 ;;		None
  5540 ;; Auto vars:     Size  Location     Type
  5541 ;;		None
  5542 ;; Return value:  Size  Location     Type
  5543 ;;                  1    wreg      _Bool 
  5544 ;; Registers used:
  5545 ;;		wreg, status,2, status,0
  5546 ;; Tracked objects:
  5547 ;;		On entry : 0/0
  5548 ;;		On exit  : 0/0
  5549 ;;		Unchanged: 0/0
  5550 ;; Data sizes:     COMMON   BANK0   BANK1   BANK2   BANK3   BANK4
  5551 ;;      Params:         0       0       0       0       0       0
  5552 ;;      Locals:         0       0       0       0       0       0
  5553 ;;      Temps:          0       0       0       0       0       0
  5554 ;;      Totals:         0       0       0       0       0       0
  5555 ;;Total ram usage:        0 bytes
  5556 ;; Hardware stack levels used:    1
  5557 ;; Hardware stack levels required when called:    4
  5558 ;; This function calls:
  5559 ;;		Nothing
  5560 ;; This function is called by:
  5561 ;;		_comunicacao
  5562 ;; This function uses a non-reentrant model
  5563 ;;
  5564                           
  5565                           
  5566                           ;psect for function _EUSART_is_rx_ready
  5567  0E38                     _EUSART_is_rx_ready:
  5568  0E38                     l2646:	
  5569                           ;incstack = 0
  5570                           ; Regs used in _EUSART_is_rx_ready: [wreg+status,2+status,0]
  5571                           
  5572                           
  5573                           ;mcc_generated_files/eusart.c: 101:     return (_Bool)(PIR1bits.RCIF);
  5574  0E38  0020               	movlb	0	; select bank0
  5575  0E39  0E11               	swapf	17,w	;volatile
  5576  0E3A  0C89               	rrf	9,f
  5577  0E3B  3901               	andlw	1
  5578  0E3C                     l51:
  5579  0E3C  0008               	return
  5580  0E3D                     __end_of_EUSART_is_rx_ready:
  5581                           
  5582                           	psect	text11
  5583  0F32                     __ptext11:	
  5584 ;; *************** function _EUSART_Read *****************
  5585 ;; Defined at:
  5586 ;;		line 113 in file "mcc_generated_files/eusart.c"
  5587 ;; Parameters:    Size  Location     Type
  5588 ;;		None
  5589 ;; Auto vars:     Size  Location     Type
  5590 ;;		None
  5591 ;; Return value:  Size  Location     Type
  5592 ;;                  1    wreg      unsigned char 
  5593 ;; Registers used:
  5594 ;;		wreg, status,2
  5595 ;; Tracked objects:
  5596 ;;		On entry : 0/0
  5597 ;;		On exit  : 0/0
  5598 ;;		Unchanged: 0/0
  5599 ;; Data sizes:     COMMON   BANK0   BANK1   BANK2   BANK3   BANK4
  5600 ;;      Params:         0       0       0       0       0       0
  5601 ;;      Locals:         0       0       0       0       0       0
  5602 ;;      Temps:          0       0       0       0       0       0
  5603 ;;      Totals:         0       0       0       0       0       0
  5604 ;;Total ram usage:        0 bytes
  5605 ;; Hardware stack levels used:    1
  5606 ;; Hardware stack levels required when called:    4
  5607 ;; This function calls:
  5608 ;;		Nothing
  5609 ;; This function is called by:
  5610 ;;		_comunicacao
  5611 ;; This function uses a non-reentrant model
  5612 ;;
  5613                           
  5614                           
  5615                           ;psect for function _EUSART_Read
  5616  0F32                     _EUSART_Read:
  5617  0F32                     l2650:	
  5618                           ;incstack = 0
  5619                           ; Regs used in _EUSART_Read: [wreg+status,2]
  5620                           
  5621  0F32                     l60:	
  5622                           ;mcc_generated_files/eusart.c: 116:     {;mcc_generated_files/eusart.c: 117:     }
  5623                           
  5624                           
  5625                           ;mcc_generated_files/eusart.c: 115:     while(!PIR1bits.RCIF)
  5626  0F32  0020               	movlb	0	; select bank0
  5627  0F33  1E91               	btfss	17,5	;volatile
  5628  0F34  2F36               	goto	u2231
  5629  0F35  2F37               	goto	u2230
  5630  0F36                     u2231:
  5631  0F36  2F32               	goto	l60
  5632  0F37                     u2230:
  5633  0F37                     l2652:
  5634                           
  5635                           ;mcc_generated_files/eusart.c: 119:     eusartRxLastError.status = 0;
  5636  0F37  01EF               	clrf	_eusartRxLastError	;volatile
  5637  0F38                     l2654:
  5638                           
  5639                           ;mcc_generated_files/eusart.c: 121:     if(1 == RCSTAbits.OERR)
  5640  0F38  0023               	movlb	3	; select bank3
  5641  0F39  1C9D               	btfss	29,1	;volatile
  5642  0F3A  2F3C               	goto	u2241
  5643  0F3B  2F3D               	goto	u2240
  5644  0F3C                     u2241:
  5645  0F3C  2F3F               	goto	l2658
  5646  0F3D                     u2240:
  5647  0F3D                     l2656:
  5648                           
  5649                           ;mcc_generated_files/eusart.c: 122:     {;mcc_generated_files/eusart.c: 125:         RCS
      +                          TAbits.CREN = 0;
  5650  0F3D  121D               	bcf	29,4	;volatile
  5651                           
  5652                           ;mcc_generated_files/eusart.c: 126:         RCSTAbits.CREN = 1;
  5653  0F3E  161D               	bsf	29,4	;volatile
  5654  0F3F                     l2658:
  5655                           
  5656                           ;mcc_generated_files/eusart.c: 129:     return RCREG;
  5657  0F3F  0819               	movf	25,w	;volatile
  5658  0F40                     l64:
  5659  0F40  0008               	return
  5660  0F41                     __end_of_EUSART_Read:
  5661                           
  5662                           	psect	text12
  5663  0FBA                     __ptext12:	
  5664 ;; *************** function _SYSTEM_Initialize *****************
  5665 ;; Defined at:
  5666 ;;		line 50 in file "mcc_generated_files/mcc.c"
  5667 ;; Parameters:    Size  Location     Type
  5668 ;;		None
  5669 ;; Auto vars:     Size  Location     Type
  5670 ;;		None
  5671 ;; Return value:  Size  Location     Type
  5672 ;;                  1    wreg      void 
  5673 ;; Registers used:
  5674 ;;		wreg, status,2, status,0, pclath, cstack
  5675 ;; Tracked objects:
  5676 ;;		On entry : 0/0
  5677 ;;		On exit  : 0/0
  5678 ;;		Unchanged: 0/0
  5679 ;; Data sizes:     COMMON   BANK0   BANK1   BANK2   BANK3   BANK4
  5680 ;;      Params:         0       0       0       0       0       0
  5681 ;;      Locals:         0       0       0       0       0       0
  5682 ;;      Temps:          0       0       0       0       0       0
  5683 ;;      Totals:         0       0       0       0       0       0
  5684 ;;Total ram usage:        0 bytes
  5685 ;; Hardware stack levels used:    1
  5686 ;; Hardware stack levels required when called:    6
  5687 ;; This function calls:
  5688 ;;		_ADC_Initialize
  5689 ;;		_CCP4_Initialize
  5690 ;;		_EUSART_Initialize
  5691 ;;		_FVR_Initialize
  5692 ;;		_OSCILLATOR_Initialize
  5693 ;;		_PIN_MANAGER_Initialize
  5694 ;;		_PWM3_Initialize
  5695 ;;		_TMR1_Initialize
  5696 ;;		_TMR2_Initialize
  5697 ;;		_TMR4_Initialize
  5698 ;;		_WDT_Initialize
  5699 ;; This function is called by:
  5700 ;;		_main
  5701 ;; This function uses a non-reentrant model
  5702 ;;
  5703                           
  5704                           
  5705                           ;psect for function _SYSTEM_Initialize
  5706  0FBA                     _SYSTEM_Initialize:
  5707  0FBA                     l2772:	
  5708                           ;incstack = 0
  5709                           ; Regs used in _SYSTEM_Initialize: [wreg+status,2+status,0+pclath+cstack]
  5710                           
  5711                           
  5712                           ;mcc_generated_files/mcc.c: 53:     PIN_MANAGER_Initialize();
  5713  0FBA  3187  270A  318F   	fcall	_PIN_MANAGER_Initialize
  5714                           
  5715                           ;mcc_generated_files/mcc.c: 54:     OSCILLATOR_Initialize();
  5716  0FBD  318E  2661  318F   	fcall	_OSCILLATOR_Initialize
  5717                           
  5718                           ;mcc_generated_files/mcc.c: 55:     WDT_Initialize();
  5719  0FC0  3187  27FC  318F   	fcall	_WDT_Initialize
  5720                           
  5721                           ;mcc_generated_files/mcc.c: 56:     FVR_Initialize();
  5722  0FC3  318E  2634  318F   	fcall	_FVR_Initialize
  5723                           
  5724                           ;mcc_generated_files/mcc.c: 57:     CCP4_Initialize();
  5725  0FC6  318F  2752  318F   	fcall	_CCP4_Initialize
  5726                           
  5727                           ;mcc_generated_files/mcc.c: 58:     ADC_Initialize();
  5728  0FC9  318E  2668  318F   	fcall	_ADC_Initialize
  5729                           
  5730                           ;mcc_generated_files/mcc.c: 59:     TMR4_Initialize();
  5731  0FCC  318F  2764  318F   	fcall	_TMR4_Initialize
  5732                           
  5733                           ;mcc_generated_files/mcc.c: 60:     PWM3_Initialize();
  5734  0FCF  318E  26AE  318F   	fcall	_PWM3_Initialize
  5735                           
  5736                           ;mcc_generated_files/mcc.c: 61:     TMR2_Initialize();
  5737  0FD2  318E  2670  318F   	fcall	_TMR2_Initialize
  5738                           
  5739                           ;mcc_generated_files/mcc.c: 62:     TMR1_Initialize();
  5740  0FD5  318E  26CD  318F   	fcall	_TMR1_Initialize
  5741                           
  5742                           ;mcc_generated_files/mcc.c: 63:     EUSART_Initialize();
  5743  0FD8  3187  27C1  318F   	fcall	_EUSART_Initialize
  5744  0FDB                     l121:
  5745  0FDB  0008               	return
  5746  0FDC                     __end_of_SYSTEM_Initialize:
  5747                           
  5748                           	psect	text13
  5749  07FC                     __ptext13:	
  5750 ;; *************** function _WDT_Initialize *****************
  5751 ;; Defined at:
  5752 ;;		line 76 in file "mcc_generated_files/mcc.c"
  5753 ;; Parameters:    Size  Location     Type
  5754 ;;		None
  5755 ;; Auto vars:     Size  Location     Type
  5756 ;;		None
  5757 ;; Return value:  Size  Location     Type
  5758 ;;                  1    wreg      void 
  5759 ;; Registers used:
  5760 ;;		wreg
  5761 ;; Tracked objects:
  5762 ;;		On entry : 0/0
  5763 ;;		On exit  : 0/0
  5764 ;;		Unchanged: 0/0
  5765 ;; Data sizes:     COMMON   BANK0   BANK1   BANK2   BANK3   BANK4
  5766 ;;      Params:         0       0       0       0       0       0
  5767 ;;      Locals:         0       0       0       0       0       0
  5768 ;;      Temps:          0       0       0       0       0       0
  5769 ;;      Totals:         0       0       0       0       0       0
  5770 ;;Total ram usage:        0 bytes
  5771 ;; Hardware stack levels used:    1
  5772 ;; Hardware stack levels required when called:    4
  5773 ;; This function calls:
  5774 ;;		Nothing
  5775 ;; This function is called by:
  5776 ;;		_SYSTEM_Initialize
  5777 ;; This function uses a non-reentrant model
  5778 ;;
  5779                           
  5780                           
  5781                           ;psect for function _WDT_Initialize
  5782  07FC                     _WDT_Initialize:
  5783  07FC                     l2714:	
  5784                           ;incstack = 0
  5785                           ; Regs used in _WDT_Initialize: [wreg]
  5786                           
  5787                           
  5788                           ;mcc_generated_files/mcc.c: 79:     WDTCON = 0x16;
  5789  07FC  3016               	movlw	22
  5790  07FD  0021               	movlb	1	; select bank1
  5791  07FE  0097               	movwf	23	;volatile
  5792  07FF                     l127:
  5793  07FF  0008               	return
  5794  0800                     __end_of_WDT_Initialize:
  5795                           
  5796                           	psect	text14
  5797  0F64                     __ptext14:	
  5798 ;; *************** function _TMR4_Initialize *****************
  5799 ;; Defined at:
  5800 ;;		line 64 in file "mcc_generated_files/tmr4.c"
  5801 ;; Parameters:    Size  Location     Type
  5802 ;;		None
  5803 ;; Auto vars:     Size  Location     Type
  5804 ;;		None
  5805 ;; Return value:  Size  Location     Type
  5806 ;;                  1    wreg      void 
  5807 ;; Registers used:
  5808 ;;		wreg, status,2, status,0, pclath, cstack
  5809 ;; Tracked objects:
  5810 ;;		On entry : 0/0
  5811 ;;		On exit  : 0/0
  5812 ;;		Unchanged: 0/0
  5813 ;; Data sizes:     COMMON   BANK0   BANK1   BANK2   BANK3   BANK4
  5814 ;;      Params:         0       0       0       0       0       0
  5815 ;;      Locals:         0       0       0       0       0       0
  5816 ;;      Temps:          0       0       0       0       0       0
  5817 ;;      Totals:         0       0       0       0       0       0
  5818 ;;Total ram usage:        0 bytes
  5819 ;; Hardware stack levels used:    1
  5820 ;; Hardware stack levels required when called:    5
  5821 ;; This function calls:
  5822 ;;		_TMR4_SetInterruptHandler
  5823 ;; This function is called by:
  5824 ;;		_SYSTEM_Initialize
  5825 ;; This function uses a non-reentrant model
  5826 ;;
  5827                           
  5828                           
  5829                           ;psect for function _TMR4_Initialize
  5830  0F64                     _TMR4_Initialize:
  5831  0F64                     l2736:	
  5832                           ;incstack = 0
  5833                           ; Regs used in _TMR4_Initialize: [wreg+status,2+status,0+pclath+cstack]
  5834                           
  5835                           
  5836                           ;mcc_generated_files/tmr4.c: 69:     PR4 = 0xDE;
  5837  0F64  30DE               	movlw	222
  5838  0F65  0028               	movlb	8	; select bank8
  5839  0F66  0096               	movwf	22	;volatile
  5840  0F67                     l2738:
  5841                           
  5842                           ;mcc_generated_files/tmr4.c: 72:     TMR4 = 0x00;
  5843  0F67  0195               	clrf	21	;volatile
  5844  0F68                     l2740:
  5845                           
  5846                           ;mcc_generated_files/tmr4.c: 75:     PIR3bits.TMR4IF = 0;
  5847  0F68  0020               	movlb	0	; select bank0
  5848  0F69  1093               	bcf	19,1	;volatile
  5849  0F6A                     l2742:
  5850                           
  5851                           ;mcc_generated_files/tmr4.c: 78:     PIE3bits.TMR4IE = 1;
  5852  0F6A  0021               	movlb	1	; select bank1
  5853  0F6B  1493               	bsf	19,1	;volatile
  5854  0F6C                     l2744:
  5855                           
  5856                           ;mcc_generated_files/tmr4.c: 81:     TMR4_SetInterruptHandler(TMR4_DefaultInterruptHandl
      +                          er);
  5857  0F6C  3002               	movlw	low _TMR4_DefaultInterruptHandler
  5858  0F6D  0020               	movlb	0	; select bank0
  5859  0F6E  00A0               	movwf	TMR4_SetInterruptHandler@InterruptHandler
  5860  0F6F  3000               	movlw	high _TMR4_DefaultInterruptHandler
  5861  0F70  00A1               	movwf	TMR4_SetInterruptHandler@InterruptHandler+1
  5862  0F71  318E  2655  318F   	fcall	_TMR4_SetInterruptHandler
  5863  0F74                     l2746:
  5864                           
  5865                           ;mcc_generated_files/tmr4.c: 84:     T4CON = 0x07;
  5866  0F74  3007               	movlw	7
  5867  0F75  0028               	movlb	8	; select bank8
  5868  0F76  0097               	movwf	23	;volatile
  5869  0F77                     l225:
  5870  0F77  0008               	return
  5871  0F78                     __end_of_TMR4_Initialize:
  5872                           
  5873                           	psect	text15
  5874  0E55                     __ptext15:	
  5875 ;; *************** function _TMR4_SetInterruptHandler *****************
  5876 ;; Defined at:
  5877 ;;		line 132 in file "mcc_generated_files/tmr4.c"
  5878 ;; Parameters:    Size  Location     Type
  5879 ;;  InterruptHan    2    0[BANK0 ] PTR FTN()void 
  5880 ;;		 -> send_data(1), TMR4_DefaultInterruptHandler(1), 
  5881 ;; Auto vars:     Size  Location     Type
  5882 ;;		None
  5883 ;; Return value:  Size  Location     Type
  5884 ;;                  1    wreg      void 
  5885 ;; Registers used:
  5886 ;;		wreg
  5887 ;; Tracked objects:
  5888 ;;		On entry : 0/0
  5889 ;;		On exit  : 0/0
  5890 ;;		Unchanged: 0/0
  5891 ;; Data sizes:     COMMON   BANK0   BANK1   BANK2   BANK3   BANK4
  5892 ;;      Params:         0       2       0       0       0       0
  5893 ;;      Locals:         0       0       0       0       0       0
  5894 ;;      Temps:          0       0       0       0       0       0
  5895 ;;      Totals:         0       2       0       0       0       0
  5896 ;;Total ram usage:        2 bytes
  5897 ;; Hardware stack levels used:    1
  5898 ;; Hardware stack levels required when called:    4
  5899 ;; This function calls:
  5900 ;;		Nothing
  5901 ;; This function is called by:
  5902 ;;		_TMR4_Initialize
  5903 ;;		_main
  5904 ;; This function uses a non-reentrant model
  5905 ;;
  5906                           
  5907                           
  5908                           ;psect for function _TMR4_SetInterruptHandler
  5909  0E55                     _TMR4_SetInterruptHandler:
  5910  0E55                     l2622:	
  5911                           ;incstack = 0
  5912                           ; Regs used in _TMR4_SetInterruptHandler: [wreg]
  5913                           
  5914                           
  5915                           ;mcc_generated_files/tmr4.c: 133:     TMR4_InterruptHandler = InterruptHandler;
  5916  0E55  0020               	movlb	0	; select bank0
  5917  0E56  0821               	movf	TMR4_SetInterruptHandler@InterruptHandler+1,w
  5918  0E57  00EE               	movwf	_TMR4_InterruptHandler+1
  5919  0E58  0820               	movf	TMR4_SetInterruptHandler@InterruptHandler,w
  5920  0E59  00ED               	movwf	_TMR4_InterruptHandler
  5921  0E5A                     l247:
  5922  0E5A  0008               	return
  5923  0E5B                     __end_of_TMR4_SetInterruptHandler:
  5924                           
  5925                           	psect	text16
  5926  0E70                     __ptext16:	
  5927 ;; *************** function _TMR2_Initialize *****************
  5928 ;; Defined at:
  5929 ;;		line 62 in file "mcc_generated_files/tmr2.c"
  5930 ;; Parameters:    Size  Location     Type
  5931 ;;		None
  5932 ;; Auto vars:     Size  Location     Type
  5933 ;;		None
  5934 ;; Return value:  Size  Location     Type
  5935 ;;                  1    wreg      void 
  5936 ;; Registers used:
  5937 ;;		wreg, status,2
  5938 ;; Tracked objects:
  5939 ;;		On entry : 0/0
  5940 ;;		On exit  : 0/0
  5941 ;;		Unchanged: 0/0
  5942 ;; Data sizes:     COMMON   BANK0   BANK1   BANK2   BANK3   BANK4
  5943 ;;      Params:         0       0       0       0       0       0
  5944 ;;      Locals:         0       0       0       0       0       0
  5945 ;;      Temps:          0       0       0       0       0       0
  5946 ;;      Totals:         0       0       0       0       0       0
  5947 ;;Total ram usage:        0 bytes
  5948 ;; Hardware stack levels used:    1
  5949 ;; Hardware stack levels required when called:    4
  5950 ;; This function calls:
  5951 ;;		Nothing
  5952 ;; This function is called by:
  5953 ;;		_SYSTEM_Initialize
  5954 ;; This function uses a non-reentrant model
  5955 ;;
  5956                           
  5957                           
  5958                           ;psect for function _TMR2_Initialize
  5959  0E70                     _TMR2_Initialize:
  5960  0E70                     l2756:	
  5961                           ;incstack = 0
  5962                           ; Regs used in _TMR2_Initialize: [wreg+status,2]
  5963                           
  5964                           
  5965                           ;mcc_generated_files/tmr2.c: 67:     PR2 = 0xFF;
  5966  0E70  30FF               	movlw	255
  5967  0E71  0020               	movlb	0	; select bank0
  5968  0E72  009B               	movwf	27	;volatile
  5969  0E73                     l2758:
  5970                           
  5971                           ;mcc_generated_files/tmr2.c: 70:     TMR2 = 0x00;
  5972  0E73  019A               	clrf	26	;volatile
  5973  0E74                     l2760:
  5974                           
  5975                           ;mcc_generated_files/tmr2.c: 73:     PIR1bits.TMR2IF = 0;
  5976  0E74  1091               	bcf	17,1	;volatile
  5977  0E75                     l2762:
  5978                           
  5979                           ;mcc_generated_files/tmr2.c: 76:     T2CON = 0x04;
  5980  0E75  3004               	movlw	4
  5981  0E76  009C               	movwf	28	;volatile
  5982  0E77                     l185:
  5983  0E77  0008               	return
  5984  0E78                     __end_of_TMR2_Initialize:
  5985                           
  5986                           	psect	text17
  5987  0ECD                     __ptext17:	
  5988 ;; *************** function _TMR1_Initialize *****************
  5989 ;; Defined at:
  5990 ;;		line 63 in file "mcc_generated_files/tmr1.c"
  5991 ;; Parameters:    Size  Location     Type
  5992 ;;		None
  5993 ;; Auto vars:     Size  Location     Type
  5994 ;;		None
  5995 ;; Return value:  Size  Location     Type
  5996 ;;                  1    wreg      void 
  5997 ;; Registers used:
  5998 ;;		wreg, status,2
  5999 ;; Tracked objects:
  6000 ;;		On entry : 0/0
  6001 ;;		On exit  : 0/0
  6002 ;;		Unchanged: 0/0
  6003 ;; Data sizes:     COMMON   BANK0   BANK1   BANK2   BANK3   BANK4
  6004 ;;      Params:         0       0       0       0       0       0
  6005 ;;      Locals:         0       0       0       0       0       0
  6006 ;;      Temps:          0       0       0       0       0       0
  6007 ;;      Totals:         0       0       0       0       0       0
  6008 ;;Total ram usage:        0 bytes
  6009 ;; Hardware stack levels used:    1
  6010 ;; Hardware stack levels required when called:    4
  6011 ;; This function calls:
  6012 ;;		Nothing
  6013 ;; This function is called by:
  6014 ;;		_SYSTEM_Initialize
  6015 ;; This function uses a non-reentrant model
  6016 ;;
  6017                           
  6018                           
  6019                           ;psect for function _TMR1_Initialize
  6020  0ECD                     _TMR1_Initialize:
  6021  0ECD                     l2764:	
  6022                           ;incstack = 0
  6023                           ; Regs used in _TMR1_Initialize: [wreg+status,2]
  6024                           
  6025                           
  6026                           ;mcc_generated_files/tmr1.c: 68:     T1GCON = 0x00;
  6027  0ECD  0020               	movlb	0	; select bank0
  6028  0ECE  0199               	clrf	25	;volatile
  6029                           
  6030                           ;mcc_generated_files/tmr1.c: 71:     TMR1H = 0x00;
  6031  0ECF  0197               	clrf	23	;volatile
  6032                           
  6033                           ;mcc_generated_files/tmr1.c: 74:     TMR1L = 0x00;
  6034  0ED0  0196               	clrf	22	;volatile
  6035  0ED1                     l2766:
  6036                           
  6037                           ;mcc_generated_files/tmr1.c: 77:     PIR1bits.TMR1IF = 0;
  6038  0ED1  1011               	bcf	17,0	;volatile
  6039  0ED2                     l2768:
  6040                           
  6041                           ;mcc_generated_files/tmr1.c: 80:     timer1ReloadVal=(uint16_t)((TMR1H << 8) | TMR1L);
  6042  0ED2  0817               	movf	23,w	;volatile
  6043  0ED3  00FC               	movwf	_timer1ReloadVal+1	;volatile
  6044  0ED4  0816               	movf	22,w	;volatile
  6045  0ED5  00FB               	movwf	_timer1ReloadVal	;volatile
  6046  0ED6                     l2770:
  6047                           
  6048                           ;mcc_generated_files/tmr1.c: 83:     T1CON = 0x01;
  6049  0ED6  3001               	movlw	1
  6050  0ED7  0098               	movwf	24	;volatile
  6051  0ED8                     l146:
  6052  0ED8  0008               	return
  6053  0ED9                     __end_of_TMR1_Initialize:
  6054                           
  6055                           	psect	text18
  6056  0EAE                     __ptext18:	
  6057 ;; *************** function _PWM3_Initialize *****************
  6058 ;; Defined at:
  6059 ;;		line 64 in file "mcc_generated_files/pwm3.c"
  6060 ;; Parameters:    Size  Location     Type
  6061 ;;		None
  6062 ;; Auto vars:     Size  Location     Type
  6063 ;;		None
  6064 ;; Return value:  Size  Location     Type
  6065 ;;                  1    wreg      void 
  6066 ;; Registers used:
  6067 ;;		wreg, status,2, status,0
  6068 ;; Tracked objects:
  6069 ;;		On entry : 0/0
  6070 ;;		On exit  : 0/0
  6071 ;;		Unchanged: 0/0
  6072 ;; Data sizes:     COMMON   BANK0   BANK1   BANK2   BANK3   BANK4
  6073 ;;      Params:         0       0       0       0       0       0
  6074 ;;      Locals:         0       0       0       0       0       0
  6075 ;;      Temps:          0       0       0       0       0       0
  6076 ;;      Totals:         0       0       0       0       0       0
  6077 ;;Total ram usage:        0 bytes
  6078 ;; Hardware stack levels used:    1
  6079 ;; Hardware stack levels required when called:    4
  6080 ;; This function calls:
  6081 ;;		Nothing
  6082 ;; This function is called by:
  6083 ;;		_SYSTEM_Initialize
  6084 ;; This function uses a non-reentrant model
  6085 ;;
  6086                           
  6087                           
  6088                           ;psect for function _PWM3_Initialize
  6089  0EAE                     _PWM3_Initialize:
  6090  0EAE                     l2748:	
  6091                           ;incstack = 0
  6092                           ; Regs used in _PWM3_Initialize: [wreg+status,2+status,0]
  6093                           
  6094                           
  6095                           ;mcc_generated_files/pwm3.c: 69:  CCP3CON = 0x0C;
  6096  0EAE  300C               	movlw	12
  6097  0EAF  0026               	movlb	6	; select bank6
  6098  0EB0  0093               	movwf	19	;volatile
  6099  0EB1                     l2750:
  6100                           
  6101                           ;mcc_generated_files/pwm3.c: 72:  CCPR3L = 0x00;
  6102  0EB1  0191               	clrf	17	;volatile
  6103  0EB2                     l2752:
  6104                           
  6105                           ;mcc_generated_files/pwm3.c: 75:  CCPR3H = 0x00;
  6106  0EB2  0192               	clrf	18	;volatile
  6107  0EB3                     l2754:
  6108                           
  6109                           ;mcc_generated_files/pwm3.c: 78:  CCPTMRS0bits.C3TSEL = 0x0;
  6110  0EB3  30CF               	movlw	-49
  6111  0EB4  0025               	movlb	5	; select bank5
  6112  0EB5  059E               	andwf	30,f	;volatile
  6113  0EB6                     l472:
  6114  0EB6  0008               	return
  6115  0EB7                     __end_of_PWM3_Initialize:
  6116                           
  6117                           	psect	text19
  6118  070A                     __ptext19:	
  6119 ;; *************** function _PIN_MANAGER_Initialize *****************
  6120 ;; Defined at:
  6121 ;;		line 60 in file "mcc_generated_files/pin_manager.c"
  6122 ;; Parameters:    Size  Location     Type
  6123 ;;		None
  6124 ;; Auto vars:     Size  Location     Type
  6125 ;;		None
  6126 ;; Return value:  Size  Location     Type
  6127 ;;                  1    wreg      void 
  6128 ;; Registers used:
  6129 ;;		wreg, status,2, status,0, pclath, cstack
  6130 ;; Tracked objects:
  6131 ;;		On entry : 0/0
  6132 ;;		On exit  : 0/0
  6133 ;;		Unchanged: 0/0
  6134 ;; Data sizes:     COMMON   BANK0   BANK1   BANK2   BANK3   BANK4
  6135 ;;      Params:         0       0       0       0       0       0
  6136 ;;      Locals:         0       0       0       0       0       0
  6137 ;;      Temps:          0       0       0       0       0       0
  6138 ;;      Totals:         0       0       0       0       0       0
  6139 ;;Total ram usage:        0 bytes
  6140 ;; Hardware stack levels used:    1
  6141 ;; Hardware stack levels required when called:    5
  6142 ;; This function calls:
  6143 ;;		_IOCBF0_SetInterruptHandler
  6144 ;;		_IOCBF3_SetInterruptHandler
  6145 ;;		_IOCBF4_SetInterruptHandler
  6146 ;;		_IOCBF5_SetInterruptHandler
  6147 ;; This function is called by:
  6148 ;;		_SYSTEM_Initialize
  6149 ;; This function uses a non-reentrant model
  6150 ;;
  6151                           
  6152                           
  6153                           ;psect for function _PIN_MANAGER_Initialize
  6154  070A                     _PIN_MANAGER_Initialize:
  6155  070A                     l2662:	
  6156                           ;incstack = 0
  6157                           ; Regs used in _PIN_MANAGER_Initialize: [wreg+status,2+status,0+pclath+cstack]
  6158                           
  6159                           
  6160                           ;mcc_generated_files/pin_manager.c: 65:     LATA = 0x00;
  6161  070A  0022               	movlb	2	; select bank2
  6162  070B  018C               	clrf	12	;volatile
  6163                           
  6164                           ;mcc_generated_files/pin_manager.c: 66:     LATB = 0x00;
  6165  070C  018D               	clrf	13	;volatile
  6166  070D                     l2664:
  6167                           
  6168                           ;mcc_generated_files/pin_manager.c: 71:     TRISA = 0x33;
  6169  070D  3033               	movlw	51
  6170  070E  0021               	movlb	1	; select bank1
  6171  070F  008C               	movwf	12	;volatile
  6172  0710                     l2666:
  6173                           
  6174                           ;mcc_generated_files/pin_manager.c: 72:     TRISB = 0xFF;
  6175  0710  30FF               	movlw	255
  6176  0711  008D               	movwf	13	;volatile
  6177  0712                     l2668:
  6178                           
  6179                           ;mcc_generated_files/pin_manager.c: 77:     ANSELB = 0xC0;
  6180  0712  30C0               	movlw	192
  6181  0713  0023               	movlb	3	; select bank3
  6182  0714  008D               	movwf	13	;volatile
  6183  0715                     l2670:
  6184                           
  6185                           ;mcc_generated_files/pin_manager.c: 78:     ANSELA = 0x03;
  6186  0715  3003               	movlw	3
  6187  0716  008C               	movwf	12	;volatile
  6188                           
  6189                           ;mcc_generated_files/pin_manager.c: 83:     WPUB = 0x00;
  6190  0717  0024               	movlb	4	; select bank4
  6191  0718  018D               	clrf	13	;volatile
  6192                           
  6193                           ;mcc_generated_files/pin_manager.c: 84:     WPUA = 0x00;
  6194  0719  018C               	clrf	12	;volatile
  6195  071A                     l2672:
  6196                           
  6197                           ;mcc_generated_files/pin_manager.c: 85:     OPTION_REGbits.nWPUEN = 1;
  6198  071A  0021               	movlb	1	; select bank1
  6199  071B  1795               	bsf	21,7	;volatile
  6200                           
  6201                           ;mcc_generated_files/pin_manager.c: 91:     APFCON0 = 0x00;
  6202  071C  0022               	movlb	2	; select bank2
  6203  071D  019D               	clrf	29	;volatile
  6204                           
  6205                           ;mcc_generated_files/pin_manager.c: 92:     APFCON1 = 0x00;
  6206  071E  019E               	clrf	30	;volatile
  6207  071F                     l2674:
  6208                           
  6209                           ;mcc_generated_files/pin_manager.c: 98:     IOCBFbits.IOCBF0 = 0;
  6210  071F  0027               	movlb	7	; select bank7
  6211  0720  1016               	bcf	22,0	;volatile
  6212  0721                     l2676:
  6213                           
  6214                           ;mcc_generated_files/pin_manager.c: 100:     IOCBFbits.IOCBF3 = 0;
  6215  0721  1196               	bcf	22,3	;volatile
  6216  0722                     l2678:
  6217                           
  6218                           ;mcc_generated_files/pin_manager.c: 102:     IOCBFbits.IOCBF4 = 0;
  6219  0722  1216               	bcf	22,4	;volatile
  6220  0723                     l2680:
  6221                           
  6222                           ;mcc_generated_files/pin_manager.c: 104:     IOCBFbits.IOCBF5 = 0;
  6223  0723  1296               	bcf	22,5	;volatile
  6224  0724                     l2682:
  6225                           
  6226                           ;mcc_generated_files/pin_manager.c: 106:     IOCBNbits.IOCBN0 = 1;
  6227  0724  1415               	bsf	21,0	;volatile
  6228  0725                     l2684:
  6229                           
  6230                           ;mcc_generated_files/pin_manager.c: 108:     IOCBNbits.IOCBN3 = 1;
  6231  0725  1595               	bsf	21,3	;volatile
  6232  0726                     l2686:
  6233                           
  6234                           ;mcc_generated_files/pin_manager.c: 110:     IOCBNbits.IOCBN4 = 1;
  6235  0726  1615               	bsf	21,4	;volatile
  6236  0727                     l2688:
  6237                           
  6238                           ;mcc_generated_files/pin_manager.c: 112:     IOCBNbits.IOCBN5 = 1;
  6239  0727  1695               	bsf	21,5	;volatile
  6240  0728                     l2690:
  6241                           
  6242                           ;mcc_generated_files/pin_manager.c: 114:     IOCBPbits.IOCBP0 = 0;
  6243  0728  1014               	bcf	20,0	;volatile
  6244  0729                     l2692:
  6245                           
  6246                           ;mcc_generated_files/pin_manager.c: 116:     IOCBPbits.IOCBP3 = 0;
  6247  0729  1194               	bcf	20,3	;volatile
  6248  072A                     l2694:
  6249                           
  6250                           ;mcc_generated_files/pin_manager.c: 118:     IOCBPbits.IOCBP4 = 0;
  6251  072A  1214               	bcf	20,4	;volatile
  6252  072B                     l2696:
  6253                           
  6254                           ;mcc_generated_files/pin_manager.c: 120:     IOCBPbits.IOCBP5 = 0;
  6255  072B  1294               	bcf	20,5	;volatile
  6256  072C                     l2698:
  6257                           
  6258                           ;mcc_generated_files/pin_manager.c: 125:     IOCBF0_SetInterruptHandler(IOCBF0_DefaultIn
      +                          terruptHandler);
  6259  072C  3029               	movlw	low _IOCBF0_DefaultInterruptHandler
  6260  072D  0020               	movlb	0	; select bank0
  6261  072E  00A0               	movwf	IOCBF0_SetInterruptHandler@InterruptHandler
  6262  072F  300E               	movlw	high _IOCBF0_DefaultInterruptHandler
  6263  0730  00A1               	movwf	IOCBF0_SetInterruptHandler@InterruptHandler+1
  6264  0731  318E  2649  3187   	fcall	_IOCBF0_SetInterruptHandler
  6265  0734                     l2700:
  6266                           
  6267                           ;mcc_generated_files/pin_manager.c: 126:     IOCBF3_SetInterruptHandler(IOCBF3_DefaultIn
      +                          terruptHandler);
  6268  0734  302A               	movlw	low _IOCBF3_DefaultInterruptHandler
  6269  0735  0020               	movlb	0	; select bank0
  6270  0736  00A0               	movwf	IOCBF3_SetInterruptHandler@InterruptHandler
  6271  0737  300E               	movlw	high _IOCBF3_DefaultInterruptHandler
  6272  0738  00A1               	movwf	IOCBF3_SetInterruptHandler@InterruptHandler+1
  6273  0739  318E  264F  3187   	fcall	_IOCBF3_SetInterruptHandler
  6274  073C                     l2702:
  6275                           
  6276                           ;mcc_generated_files/pin_manager.c: 127:     IOCBF4_SetInterruptHandler(IOCBF4_DefaultIn
      +                          terruptHandler);
  6277  073C  302B               	movlw	low _IOCBF4_DefaultInterruptHandler
  6278  073D  0020               	movlb	0	; select bank0
  6279  073E  00A0               	movwf	IOCBF4_SetInterruptHandler@InterruptHandler
  6280  073F  300E               	movlw	high _IOCBF4_DefaultInterruptHandler
  6281  0740  00A1               	movwf	IOCBF4_SetInterruptHandler@InterruptHandler+1
  6282  0741  318E  269C  3187   	fcall	_IOCBF4_SetInterruptHandler
  6283  0744                     l2704:
  6284                           
  6285                           ;mcc_generated_files/pin_manager.c: 128:     IOCBF5_SetInterruptHandler(IOCBF5_DefaultIn
      +                          terruptHandler);
  6286  0744  302C               	movlw	low _IOCBF5_DefaultInterruptHandler
  6287  0745  0020               	movlb	0	; select bank0
  6288  0746  00A0               	movwf	IOCBF5_SetInterruptHandler@InterruptHandler
  6289  0747  300E               	movlw	high _IOCBF5_DefaultInterruptHandler
  6290  0748  00A1               	movwf	IOCBF5_SetInterruptHandler@InterruptHandler+1
  6291  0749  318E  26A5  3187   	fcall	_IOCBF5_SetInterruptHandler
  6292  074C                     l2706:
  6293                           
  6294                           ;mcc_generated_files/pin_manager.c: 131:     INTCONbits.IOCIE = 1;
  6295  074C  158B               	bsf	11,3	;volatile
  6296  074D                     l414:
  6297  074D  0008               	return
  6298  074E                     __end_of_PIN_MANAGER_Initialize:
  6299                           
  6300                           	psect	text20
  6301  0EA5                     __ptext20:	
  6302 ;; *************** function _IOCBF5_SetInterruptHandler *****************
  6303 ;; Defined at:
  6304 ;;		line 267 in file "mcc_generated_files/pin_manager.c"
  6305 ;; Parameters:    Size  Location     Type
  6306 ;;  InterruptHan    2    0[BANK0 ] PTR FTN()void 
  6307 ;;		 -> sensor4(1), IOCBF5_DefaultInterruptHandler(1), 
  6308 ;; Auto vars:     Size  Location     Type
  6309 ;;		None
  6310 ;; Return value:  Size  Location     Type
  6311 ;;                  1    wreg      void 
  6312 ;; Registers used:
  6313 ;;		wreg
  6314 ;; Tracked objects:
  6315 ;;		On entry : 0/0
  6316 ;;		On exit  : 0/0
  6317 ;;		Unchanged: 0/0
  6318 ;; Data sizes:     COMMON   BANK0   BANK1   BANK2   BANK3   BANK4
  6319 ;;      Params:         0       2       0       0       0       0
  6320 ;;      Locals:         0       0       0       0       0       0
  6321 ;;      Temps:          0       0       0       0       0       0
  6322 ;;      Totals:         0       2       0       0       0       0
  6323 ;;Total ram usage:        2 bytes
  6324 ;; Hardware stack levels used:    1
  6325 ;; Hardware stack levels required when called:    4
  6326 ;; This function calls:
  6327 ;;		Nothing
  6328 ;; This function is called by:
  6329 ;;		_PIN_MANAGER_Initialize
  6330 ;;		_main
  6331 ;; This function uses a non-reentrant model
  6332 ;;
  6333                           
  6334                           
  6335                           ;psect for function _IOCBF5_SetInterruptHandler
  6336  0EA5                     _IOCBF5_SetInterruptHandler:
  6337  0EA5                     l2632:	
  6338                           ;incstack = 0
  6339                           ; Regs used in _IOCBF5_SetInterruptHandler: [wreg]
  6340                           
  6341                           
  6342                           ;mcc_generated_files/pin_manager.c: 268:     IOCBF5_InterruptHandler = InterruptHandler;
  6343  0EA5  0020               	movlb	0	; select bank0
  6344  0EA6  0821               	movf	IOCBF5_SetInterruptHandler@InterruptHandler+1,w
  6345  0EA7  0021               	movlb	1	; select bank1
  6346  0EA8  00B8               	movwf	(_IOCBF5_InterruptHandler+1)^(0+128)
  6347  0EA9  0020               	movlb	0	; select bank0
  6348  0EAA  0820               	movf	IOCBF5_SetInterruptHandler@InterruptHandler,w
  6349  0EAB  0021               	movlb	1	; select bank1
  6350  0EAC  00B7               	movwf	_IOCBF5_InterruptHandler^(0+128)
  6351  0EAD                     l458:
  6352  0EAD  0008               	return
  6353  0EAE                     __end_of_IOCBF5_SetInterruptHandler:
  6354                           
  6355                           	psect	text21
  6356  0E9C                     __ptext21:	
  6357 ;; *************** function _IOCBF4_SetInterruptHandler *****************
  6358 ;; Defined at:
  6359 ;;		line 237 in file "mcc_generated_files/pin_manager.c"
  6360 ;; Parameters:    Size  Location     Type
  6361 ;;  InterruptHan    2    0[BANK0 ] PTR FTN()void 
  6362 ;;		 -> sensor3(1), IOCBF4_DefaultInterruptHandler(1), 
  6363 ;; Auto vars:     Size  Location     Type
  6364 ;;		None
  6365 ;; Return value:  Size  Location     Type
  6366 ;;                  1    wreg      void 
  6367 ;; Registers used:
  6368 ;;		wreg
  6369 ;; Tracked objects:
  6370 ;;		On entry : 0/0
  6371 ;;		On exit  : 0/0
  6372 ;;		Unchanged: 0/0
  6373 ;; Data sizes:     COMMON   BANK0   BANK1   BANK2   BANK3   BANK4
  6374 ;;      Params:         0       2       0       0       0       0
  6375 ;;      Locals:         0       0       0       0       0       0
  6376 ;;      Temps:          0       0       0       0       0       0
  6377 ;;      Totals:         0       2       0       0       0       0
  6378 ;;Total ram usage:        2 bytes
  6379 ;; Hardware stack levels used:    1
  6380 ;; Hardware stack levels required when called:    4
  6381 ;; This function calls:
  6382 ;;		Nothing
  6383 ;; This function is called by:
  6384 ;;		_PIN_MANAGER_Initialize
  6385 ;;		_main
  6386 ;; This function uses a non-reentrant model
  6387 ;;
  6388                           
  6389                           
  6390                           ;psect for function _IOCBF4_SetInterruptHandler
  6391  0E9C                     _IOCBF4_SetInterruptHandler:
  6392  0E9C                     l2630:	
  6393                           ;incstack = 0
  6394                           ; Regs used in _IOCBF4_SetInterruptHandler: [wreg]
  6395                           
  6396                           
  6397                           ;mcc_generated_files/pin_manager.c: 238:     IOCBF4_InterruptHandler = InterruptHandler;
  6398  0E9C  0020               	movlb	0	; select bank0
  6399  0E9D  0821               	movf	IOCBF4_SetInterruptHandler@InterruptHandler+1,w
  6400  0E9E  0021               	movlb	1	; select bank1
  6401  0E9F  00BA               	movwf	(_IOCBF4_InterruptHandler+1)^(0+128)
  6402  0EA0  0020               	movlb	0	; select bank0
  6403  0EA1  0820               	movf	IOCBF4_SetInterruptHandler@InterruptHandler,w
  6404  0EA2  0021               	movlb	1	; select bank1
  6405  0EA3  00B9               	movwf	_IOCBF4_InterruptHandler^(0+128)
  6406  0EA4                     l448:
  6407  0EA4  0008               	return
  6408  0EA5                     __end_of_IOCBF4_SetInterruptHandler:
  6409                           
  6410                           	psect	text22
  6411  0E4F                     __ptext22:	
  6412 ;; *************** function _IOCBF3_SetInterruptHandler *****************
  6413 ;; Defined at:
  6414 ;;		line 207 in file "mcc_generated_files/pin_manager.c"
  6415 ;; Parameters:    Size  Location     Type
  6416 ;;  InterruptHan    2    0[BANK0 ] PTR FTN()void 
  6417 ;;		 -> sensor2(1), IOCBF3_DefaultInterruptHandler(1), 
  6418 ;; Auto vars:     Size  Location     Type
  6419 ;;		None
  6420 ;; Return value:  Size  Location     Type
  6421 ;;                  1    wreg      void 
  6422 ;; Registers used:
  6423 ;;		wreg
  6424 ;; Tracked objects:
  6425 ;;		On entry : 0/0
  6426 ;;		On exit  : 0/0
  6427 ;;		Unchanged: 0/0
  6428 ;; Data sizes:     COMMON   BANK0   BANK1   BANK2   BANK3   BANK4
  6429 ;;      Params:         0       2       0       0       0       0
  6430 ;;      Locals:         0       0       0       0       0       0
  6431 ;;      Temps:          0       0       0       0       0       0
  6432 ;;      Totals:         0       2       0       0       0       0
  6433 ;;Total ram usage:        2 bytes
  6434 ;; Hardware stack levels used:    1
  6435 ;; Hardware stack levels required when called:    4
  6436 ;; This function calls:
  6437 ;;		Nothing
  6438 ;; This function is called by:
  6439 ;;		_PIN_MANAGER_Initialize
  6440 ;;		_main
  6441 ;; This function uses a non-reentrant model
  6442 ;;
  6443                           
  6444                           
  6445                           ;psect for function _IOCBF3_SetInterruptHandler
  6446  0E4F                     _IOCBF3_SetInterruptHandler:
  6447  0E4F                     l2628:	
  6448                           ;incstack = 0
  6449                           ; Regs used in _IOCBF3_SetInterruptHandler: [wreg]
  6450                           
  6451                           
  6452                           ;mcc_generated_files/pin_manager.c: 208:     IOCBF3_InterruptHandler = InterruptHandler;
  6453  0E4F  0020               	movlb	0	; select bank0
  6454  0E50  0821               	movf	IOCBF3_SetInterruptHandler@InterruptHandler+1,w
  6455  0E51  00EA               	movwf	_IOCBF3_InterruptHandler+1
  6456  0E52  0820               	movf	IOCBF3_SetInterruptHandler@InterruptHandler,w
  6457  0E53  00E9               	movwf	_IOCBF3_InterruptHandler
  6458  0E54                     l438:
  6459  0E54  0008               	return
  6460  0E55                     __end_of_IOCBF3_SetInterruptHandler:
  6461                           
  6462                           	psect	text23
  6463  0E49                     __ptext23:	
  6464 ;; *************** function _IOCBF0_SetInterruptHandler *****************
  6465 ;; Defined at:
  6466 ;;		line 177 in file "mcc_generated_files/pin_manager.c"
  6467 ;; Parameters:    Size  Location     Type
  6468 ;;  InterruptHan    2    0[BANK0 ] PTR FTN()void 
  6469 ;;		 -> sensor1(1), IOCBF0_DefaultInterruptHandler(1), 
  6470 ;; Auto vars:     Size  Location     Type
  6471 ;;		None
  6472 ;; Return value:  Size  Location     Type
  6473 ;;                  1    wreg      void 
  6474 ;; Registers used:
  6475 ;;		wreg
  6476 ;; Tracked objects:
  6477 ;;		On entry : 0/0
  6478 ;;		On exit  : 0/0
  6479 ;;		Unchanged: 0/0
  6480 ;; Data sizes:     COMMON   BANK0   BANK1   BANK2   BANK3   BANK4
  6481 ;;      Params:         0       2       0       0       0       0
  6482 ;;      Locals:         0       0       0       0       0       0
  6483 ;;      Temps:          0       0       0       0       0       0
  6484 ;;      Totals:         0       2       0       0       0       0
  6485 ;;Total ram usage:        2 bytes
  6486 ;; Hardware stack levels used:    1
  6487 ;; Hardware stack levels required when called:    4
  6488 ;; This function calls:
  6489 ;;		Nothing
  6490 ;; This function is called by:
  6491 ;;		_PIN_MANAGER_Initialize
  6492 ;;		_main
  6493 ;; This function uses a non-reentrant model
  6494 ;;
  6495                           
  6496                           
  6497                           ;psect for function _IOCBF0_SetInterruptHandler
  6498  0E49                     _IOCBF0_SetInterruptHandler:
  6499  0E49                     l2626:	
  6500                           ;incstack = 0
  6501                           ; Regs used in _IOCBF0_SetInterruptHandler: [wreg]
  6502                           
  6503                           
  6504                           ;mcc_generated_files/pin_manager.c: 178:     IOCBF0_InterruptHandler = InterruptHandler;
  6505  0E49  0020               	movlb	0	; select bank0
  6506  0E4A  0821               	movf	IOCBF0_SetInterruptHandler@InterruptHandler+1,w
  6507  0E4B  00EC               	movwf	_IOCBF0_InterruptHandler+1
  6508  0E4C  0820               	movf	IOCBF0_SetInterruptHandler@InterruptHandler,w
  6509  0E4D  00EB               	movwf	_IOCBF0_InterruptHandler
  6510  0E4E                     l428:
  6511  0E4E  0008               	return
  6512  0E4F                     __end_of_IOCBF0_SetInterruptHandler:
  6513                           
  6514                           	psect	text24
  6515  0E61                     __ptext24:	
  6516 ;; *************** function _OSCILLATOR_Initialize *****************
  6517 ;; Defined at:
  6518 ;;		line 66 in file "mcc_generated_files/mcc.c"
  6519 ;; Parameters:    Size  Location     Type
  6520 ;;		None
  6521 ;; Auto vars:     Size  Location     Type
  6522 ;;		None
  6523 ;; Return value:  Size  Location     Type
  6524 ;;                  1    wreg      void 
  6525 ;; Registers used:
  6526 ;;		wreg, status,2
  6527 ;; Tracked objects:
  6528 ;;		On entry : 0/0
  6529 ;;		On exit  : 0/0
  6530 ;;		Unchanged: 0/0
  6531 ;; Data sizes:     COMMON   BANK0   BANK1   BANK2   BANK3   BANK4
  6532 ;;      Params:         0       0       0       0       0       0
  6533 ;;      Locals:         0       0       0       0       0       0
  6534 ;;      Temps:          0       0       0       0       0       0
  6535 ;;      Totals:         0       0       0       0       0       0
  6536 ;;Total ram usage:        0 bytes
  6537 ;; Hardware stack levels used:    1
  6538 ;; Hardware stack levels required when called:    4
  6539 ;; This function calls:
  6540 ;;		Nothing
  6541 ;; This function is called by:
  6542 ;;		_SYSTEM_Initialize
  6543 ;; This function uses a non-reentrant model
  6544 ;;
  6545                           
  6546                           
  6547                           ;psect for function _OSCILLATOR_Initialize
  6548  0E61                     _OSCILLATOR_Initialize:
  6549  0E61                     l2708:	
  6550                           ;incstack = 0
  6551                           ; Regs used in _OSCILLATOR_Initialize: [wreg+status,2]
  6552                           
  6553                           
  6554                           ;mcc_generated_files/mcc.c: 69:     OSCCON = 0x70;
  6555  0E61  3070               	movlw	112
  6556  0E62  0021               	movlb	1	; select bank1
  6557  0E63  0099               	movwf	25	;volatile
  6558  0E64                     l2710:
  6559                           
  6560                           ;mcc_generated_files/mcc.c: 71:     OSCTUNE = 0x00;
  6561  0E64  0198               	clrf	24	;volatile
  6562  0E65                     l2712:
  6563                           
  6564                           ;mcc_generated_files/mcc.c: 73:     BORCON = 0x00;
  6565  0E65  0022               	movlb	2	; select bank2
  6566  0E66  0196               	clrf	22	;volatile
  6567  0E67                     l124:
  6568  0E67  0008               	return
  6569  0E68                     __end_of_OSCILLATOR_Initialize:
  6570                           
  6571                           	psect	text25
  6572  0E34                     __ptext25:	
  6573 ;; *************** function _FVR_Initialize *****************
  6574 ;; Defined at:
  6575 ;;		line 58 in file "mcc_generated_files/fvr.c"
  6576 ;; Parameters:    Size  Location     Type
  6577 ;;		None
  6578 ;; Auto vars:     Size  Location     Type
  6579 ;;		None
  6580 ;; Return value:  Size  Location     Type
  6581 ;;                  1    wreg      void 
  6582 ;; Registers used:
  6583 ;;		wreg
  6584 ;; Tracked objects:
  6585 ;;		On entry : 0/0
  6586 ;;		On exit  : 0/0
  6587 ;;		Unchanged: 0/0
  6588 ;; Data sizes:     COMMON   BANK0   BANK1   BANK2   BANK3   BANK4
  6589 ;;      Params:         0       0       0       0       0       0
  6590 ;;      Locals:         0       0       0       0       0       0
  6591 ;;      Temps:          0       0       0       0       0       0
  6592 ;;      Totals:         0       0       0       0       0       0
  6593 ;;Total ram usage:        0 bytes
  6594 ;; Hardware stack levels used:    1
  6595 ;; Hardware stack levels required when called:    4
  6596 ;; This function calls:
  6597 ;;		Nothing
  6598 ;; This function is called by:
  6599 ;;		_SYSTEM_Initialize
  6600 ;; This function uses a non-reentrant model
  6601 ;;
  6602                           
  6603                           
  6604                           ;psect for function _FVR_Initialize
  6605  0E34                     _FVR_Initialize:
  6606  0E34                     l2716:	
  6607                           ;incstack = 0
  6608                           ; Regs used in _FVR_Initialize: [wreg]
  6609                           
  6610                           
  6611                           ;mcc_generated_files/fvr.c: 61:     FVRCON = 0x81;
  6612  0E34  3081               	movlw	129
  6613  0E35  0022               	movlb	2	; select bank2
  6614  0E36  0097               	movwf	23	;volatile
  6615  0E37                     l320:
  6616  0E37  0008               	return
  6617  0E38                     __end_of_FVR_Initialize:
  6618                           
  6619                           	psect	text26
  6620  07C1                     __ptext26:	
  6621 ;; *************** function _EUSART_Initialize *****************
  6622 ;; Defined at:
  6623 ;;		line 66 in file "mcc_generated_files/eusart.c"
  6624 ;; Parameters:    Size  Location     Type
  6625 ;;		None
  6626 ;; Auto vars:     Size  Location     Type
  6627 ;;		None
  6628 ;; Return value:  Size  Location     Type
  6629 ;;                  1    wreg      void 
  6630 ;; Registers used:
  6631 ;;		wreg, status,2, status,0, pclath, cstack
  6632 ;; Tracked objects:
  6633 ;;		On entry : 0/0
  6634 ;;		On exit  : 0/0
  6635 ;;		Unchanged: 0/0
  6636 ;; Data sizes:     COMMON   BANK0   BANK1   BANK2   BANK3   BANK4
  6637 ;;      Params:         0       0       0       0       0       0
  6638 ;;      Locals:         0       0       0       0       0       0
  6639 ;;      Temps:          0       0       0       0       0       0
  6640 ;;      Totals:         0       0       0       0       0       0
  6641 ;;Total ram usage:        0 bytes
  6642 ;; Hardware stack levels used:    1
  6643 ;; Hardware stack levels required when called:    5
  6644 ;; This function calls:
  6645 ;;		_EUSART_SetErrorHandler
  6646 ;;		_EUSART_SetFramingErrorHandler
  6647 ;;		_EUSART_SetOverrunErrorHandler
  6648 ;; This function is called by:
  6649 ;;		_SYSTEM_Initialize
  6650 ;; This function uses a non-reentrant model
  6651 ;;
  6652                           
  6653                           
  6654                           ;psect for function _EUSART_Initialize
  6655  07C1                     _EUSART_Initialize:
  6656  07C1                     l2634:	
  6657                           ;incstack = 0
  6658                           ; Regs used in _EUSART_Initialize: [wreg+status,2+status,0+pclath+cstack]
  6659                           
  6660                           
  6661                           ;mcc_generated_files/eusart.c: 71:     BAUDCON = 0x08;
  6662  07C1  3008               	movlw	8
  6663  07C2  0023               	movlb	3	; select bank3
  6664  07C3  009F               	movwf	31	;volatile
  6665                           
  6666                           ;mcc_generated_files/eusart.c: 74:     RCSTA = 0x90;
  6667  07C4  3090               	movlw	144
  6668  07C5  009D               	movwf	29	;volatile
  6669                           
  6670                           ;mcc_generated_files/eusart.c: 77:     TXSTA = 0x24;
  6671  07C6  3024               	movlw	36
  6672  07C7  009E               	movwf	30	;volatile
  6673                           
  6674                           ;mcc_generated_files/eusart.c: 80:     SPBRGL = 0x67;
  6675  07C8  3067               	movlw	103
  6676  07C9  009B               	movwf	27	;volatile
  6677  07CA                     l2636:
  6678                           
  6679                           ;mcc_generated_files/eusart.c: 83:     SPBRGH = 0x00;
  6680  07CA  019C               	clrf	28	;volatile
  6681  07CB                     l2638:
  6682                           
  6683                           ;mcc_generated_files/eusart.c: 86:     EUSART_SetFramingErrorHandler(EUSART_DefaultFrami
      +                          ngErrorHandler);
  6684  07CB  3000               	movlw	0
  6685  07CC  0020               	movlb	0	; select bank0
  6686  07CD  00A0               	movwf	EUSART_SetFramingErrorHandler@interruptHandler
  6687  07CE  3000               	movlw	0
  6688  07CF  00A1               	movwf	EUSART_SetFramingErrorHandler@interruptHandler+1
  6689  07D0  318E  268A  3187   	fcall	_EUSART_SetFramingErrorHandler
  6690  07D3                     l2640:
  6691                           
  6692                           ;mcc_generated_files/eusart.c: 87:     EUSART_SetOverrunErrorHandler(EUSART_DefaultOverr
      +                          unErrorHandler);
  6693  07D3  3000               	movlw	0
  6694  07D4  0020               	movlb	0	; select bank0
  6695  07D5  00A0               	movwf	EUSART_SetOverrunErrorHandler@interruptHandler
  6696  07D6  3000               	movlw	0
  6697  07D7  00A1               	movwf	EUSART_SetOverrunErrorHandler@interruptHandler+1
  6698  07D8  318E  2693  3187   	fcall	_EUSART_SetOverrunErrorHandler
  6699  07DB                     l2642:
  6700                           
  6701                           ;mcc_generated_files/eusart.c: 88:     EUSART_SetErrorHandler(EUSART_DefaultErrorHandler
      +                          );
  6702  07DB  3000               	movlw	0
  6703  07DC  0020               	movlb	0	; select bank0
  6704  07DD  00A0               	movwf	EUSART_SetErrorHandler@interruptHandler
  6705  07DE  3000               	movlw	0
  6706  07DF  00A1               	movwf	EUSART_SetErrorHandler@interruptHandler+1
  6707  07E0  318E  2681  3187   	fcall	_EUSART_SetErrorHandler
  6708  07E3                     l2644:
  6709                           
  6710                           ;mcc_generated_files/eusart.c: 90:     eusartRxLastError.status = 0;
  6711  07E3  0020               	movlb	0	; select bank0
  6712  07E4  01EF               	clrf	_eusartRxLastError	;volatile
  6713  07E5                     l43:
  6714  07E5  0008               	return
  6715  07E6                     __end_of_EUSART_Initialize:
  6716                           
  6717                           	psect	text27
  6718  0E93                     __ptext27:	
  6719 ;; *************** function _EUSART_SetOverrunErrorHandler *****************
  6720 ;; Defined at:
  6721 ;;		line 161 in file "mcc_generated_files/eusart.c"
  6722 ;; Parameters:    Size  Location     Type
  6723 ;;  interruptHan    2    0[BANK0 ] PTR FTN()void 
  6724 ;;		 -> EUSART_DefaultOverrunErrorHandler(1), 
  6725 ;; Auto vars:     Size  Location     Type
  6726 ;;		None
  6727 ;; Return value:  Size  Location     Type
  6728 ;;                  1    wreg      void 
  6729 ;; Registers used:
  6730 ;;		wreg
  6731 ;; Tracked objects:
  6732 ;;		On entry : 0/0
  6733 ;;		On exit  : 0/0
  6734 ;;		Unchanged: 0/0
  6735 ;; Data sizes:     COMMON   BANK0   BANK1   BANK2   BANK3   BANK4
  6736 ;;      Params:         0       2       0       0       0       0
  6737 ;;      Locals:         0       0       0       0       0       0
  6738 ;;      Temps:          0       0       0       0       0       0
  6739 ;;      Totals:         0       2       0       0       0       0
  6740 ;;Total ram usage:        2 bytes
  6741 ;; Hardware stack levels used:    1
  6742 ;; Hardware stack levels required when called:    4
  6743 ;; This function calls:
  6744 ;;		Nothing
  6745 ;; This function is called by:
  6746 ;;		_EUSART_Initialize
  6747 ;; This function uses a non-reentrant model
  6748 ;;
  6749                           
  6750                           
  6751                           ;psect for function _EUSART_SetOverrunErrorHandler
  6752  0E93                     _EUSART_SetOverrunErrorHandler:
  6753  0E93                     l2618:	
  6754                           ;incstack = 0
  6755                           ; Regs used in _EUSART_SetOverrunErrorHandler: [wreg]
  6756                           
  6757                           
  6758                           ;mcc_generated_files/eusart.c: 162:     EUSART_OverrunErrorHandler = interruptHandler;
  6759  0E93  0020               	movlb	0	; select bank0
  6760  0E94  0821               	movf	EUSART_SetOverrunErrorHandler@interruptHandler+1,w
  6761  0E95  0021               	movlb	1	; select bank1
  6762  0E96  00C0               	movwf	(_EUSART_OverrunErrorHandler+1)^(0+128)
  6763  0E97  0020               	movlb	0	; select bank0
  6764  0E98  0820               	movf	EUSART_SetOverrunErrorHandler@interruptHandler,w
  6765  0E99  0021               	movlb	1	; select bank1
  6766  0E9A  00BF               	movwf	_EUSART_OverrunErrorHandler^(0+128)
  6767  0E9B                     l85:
  6768  0E9B  0008               	return
  6769  0E9C                     __end_of_EUSART_SetOverrunErrorHandler:
  6770                           
  6771                           	psect	text28
  6772  0E8A                     __ptext28:	
  6773 ;; *************** function _EUSART_SetFramingErrorHandler *****************
  6774 ;; Defined at:
  6775 ;;		line 157 in file "mcc_generated_files/eusart.c"
  6776 ;; Parameters:    Size  Location     Type
  6777 ;;  interruptHan    2    0[BANK0 ] PTR FTN()void 
  6778 ;;		 -> EUSART_DefaultFramingErrorHandler(1), 
  6779 ;; Auto vars:     Size  Location     Type
  6780 ;;		None
  6781 ;; Return value:  Size  Location     Type
  6782 ;;                  1    wreg      void 
  6783 ;; Registers used:
  6784 ;;		wreg
  6785 ;; Tracked objects:
  6786 ;;		On entry : 0/0
  6787 ;;		On exit  : 0/0
  6788 ;;		Unchanged: 0/0
  6789 ;; Data sizes:     COMMON   BANK0   BANK1   BANK2   BANK3   BANK4
  6790 ;;      Params:         0       2       0       0       0       0
  6791 ;;      Locals:         0       0       0       0       0       0
  6792 ;;      Temps:          0       0       0       0       0       0
  6793 ;;      Totals:         0       2       0       0       0       0
  6794 ;;Total ram usage:        2 bytes
  6795 ;; Hardware stack levels used:    1
  6796 ;; Hardware stack levels required when called:    4
  6797 ;; This function calls:
  6798 ;;		Nothing
  6799 ;; This function is called by:
  6800 ;;		_EUSART_Initialize
  6801 ;; This function uses a non-reentrant model
  6802 ;;
  6803                           
  6804                           
  6805                           ;psect for function _EUSART_SetFramingErrorHandler
  6806  0E8A                     _EUSART_SetFramingErrorHandler:
  6807  0E8A                     l2616:	
  6808                           ;incstack = 0
  6809                           ; Regs used in _EUSART_SetFramingErrorHandler: [wreg]
  6810                           
  6811                           
  6812                           ;mcc_generated_files/eusart.c: 158:     EUSART_FramingErrorHandler = interruptHandler;
  6813  0E8A  0020               	movlb	0	; select bank0
  6814  0E8B  0821               	movf	EUSART_SetFramingErrorHandler@interruptHandler+1,w
  6815  0E8C  0021               	movlb	1	; select bank1
  6816  0E8D  00C2               	movwf	(_EUSART_FramingErrorHandler+1)^(0+128)
  6817  0E8E  0020               	movlb	0	; select bank0
  6818  0E8F  0820               	movf	EUSART_SetFramingErrorHandler@interruptHandler,w
  6819  0E90  0021               	movlb	1	; select bank1
  6820  0E91  00C1               	movwf	_EUSART_FramingErrorHandler^(0+128)
  6821  0E92                     l82:
  6822  0E92  0008               	return
  6823  0E93                     __end_of_EUSART_SetFramingErrorHandler:
  6824                           
  6825                           	psect	text29
  6826  0E81                     __ptext29:	
  6827 ;; *************** function _EUSART_SetErrorHandler *****************
  6828 ;; Defined at:
  6829 ;;		line 165 in file "mcc_generated_files/eusart.c"
  6830 ;; Parameters:    Size  Location     Type
  6831 ;;  interruptHan    2    0[BANK0 ] PTR FTN()void 
  6832 ;;		 -> EUSART_DefaultErrorHandler(1), 
  6833 ;; Auto vars:     Size  Location     Type
  6834 ;;		None
  6835 ;; Return value:  Size  Location     Type
  6836 ;;                  1    wreg      void 
  6837 ;; Registers used:
  6838 ;;		wreg
  6839 ;; Tracked objects:
  6840 ;;		On entry : 0/0
  6841 ;;		On exit  : 0/0
  6842 ;;		Unchanged: 0/0
  6843 ;; Data sizes:     COMMON   BANK0   BANK1   BANK2   BANK3   BANK4
  6844 ;;      Params:         0       2       0       0       0       0
  6845 ;;      Locals:         0       0       0       0       0       0
  6846 ;;      Temps:          0       0       0       0       0       0
  6847 ;;      Totals:         0       2       0       0       0       0
  6848 ;;Total ram usage:        2 bytes
  6849 ;; Hardware stack levels used:    1
  6850 ;; Hardware stack levels required when called:    4
  6851 ;; This function calls:
  6852 ;;		Nothing
  6853 ;; This function is called by:
  6854 ;;		_EUSART_Initialize
  6855 ;; This function uses a non-reentrant model
  6856 ;;
  6857                           
  6858                           
  6859                           ;psect for function _EUSART_SetErrorHandler
  6860  0E81                     _EUSART_SetErrorHandler:
  6861  0E81                     l2620:	
  6862                           ;incstack = 0
  6863                           ; Regs used in _EUSART_SetErrorHandler: [wreg]
  6864                           
  6865                           
  6866                           ;mcc_generated_files/eusart.c: 166:     EUSART_ErrorHandler = interruptHandler;
  6867  0E81  0020               	movlb	0	; select bank0
  6868  0E82  0821               	movf	EUSART_SetErrorHandler@interruptHandler+1,w
  6869  0E83  0021               	movlb	1	; select bank1
  6870  0E84  00BE               	movwf	(_EUSART_ErrorHandler+1)^(0+128)
  6871  0E85  0020               	movlb	0	; select bank0
  6872  0E86  0820               	movf	EUSART_SetErrorHandler@interruptHandler,w
  6873  0E87  0021               	movlb	1	; select bank1
  6874  0E88  00BD               	movwf	_EUSART_ErrorHandler^(0+128)
  6875  0E89                     l88:
  6876  0E89  0008               	return
  6877  0E8A                     __end_of_EUSART_SetErrorHandler:
  6878                           
  6879                           	psect	text30
  6880  0F52                     __ptext30:	
  6881 ;; *************** function _CCP4_Initialize *****************
  6882 ;; Defined at:
  6883 ;;		line 65 in file "mcc_generated_files/ccp4.c"
  6884 ;; Parameters:    Size  Location     Type
  6885 ;;		None
  6886 ;; Auto vars:     Size  Location     Type
  6887 ;;		None
  6888 ;; Return value:  Size  Location     Type
  6889 ;;                  1    wreg      void 
  6890 ;; Registers used:
  6891 ;;		wreg, status,2, status,0, pclath, cstack
  6892 ;; Tracked objects:
  6893 ;;		On entry : 0/0
  6894 ;;		On exit  : 0/0
  6895 ;;		Unchanged: 0/0
  6896 ;; Data sizes:     COMMON   BANK0   BANK1   BANK2   BANK3   BANK4
  6897 ;;      Params:         0       0       0       0       0       0
  6898 ;;      Locals:         0       0       0       0       0       0
  6899 ;;      Temps:          0       0       0       0       0       0
  6900 ;;      Totals:         0       0       0       0       0       0
  6901 ;;Total ram usage:        0 bytes
  6902 ;; Hardware stack levels used:    1
  6903 ;; Hardware stack levels required when called:    5
  6904 ;; This function calls:
  6905 ;;		_CCP4_SetCallBack
  6906 ;; This function is called by:
  6907 ;;		_SYSTEM_Initialize
  6908 ;; This function uses a non-reentrant model
  6909 ;;
  6910                           
  6911                           
  6912                           ;psect for function _CCP4_Initialize
  6913  0F52                     _CCP4_Initialize:
  6914  0F52                     l2718:	
  6915                           ;incstack = 0
  6916                           ; Regs used in _CCP4_Initialize: [wreg+status,2+status,0+pclath+cstack]
  6917                           
  6918                           
  6919                           ;mcc_generated_files/ccp4.c: 70:  CCP4CON = 0x05;
  6920  0F52  3005               	movlw	5
  6921  0F53  0026               	movlb	6	; select bank6
  6922  0F54  009A               	movwf	26	;volatile
  6923  0F55                     l2720:
  6924                           
  6925                           ;mcc_generated_files/ccp4.c: 73:  CCPR4L = 0x00;
  6926  0F55  0198               	clrf	24	;volatile
  6927  0F56                     l2722:
  6928                           
  6929                           ;mcc_generated_files/ccp4.c: 76:  CCPR4H = 0x00;
  6930  0F56  0199               	clrf	25	;volatile
  6931  0F57                     l2724:
  6932                           
  6933                           ;mcc_generated_files/ccp4.c: 79:     CCP4_SetCallBack(CCP4_DefaultCallBack);
  6934  0F57  3028               	movlw	low _CCP4_DefaultCallBack
  6935  0F58  0020               	movlb	0	; select bank0
  6936  0F59  00A0               	movwf	CCP4_SetCallBack@customCallBack
  6937  0F5A  300E               	movlw	high _CCP4_DefaultCallBack
  6938  0F5B  00A1               	movwf	CCP4_SetCallBack@customCallBack+1
  6939  0F5C  318E  2678  318F   	fcall	_CCP4_SetCallBack
  6940  0F5F                     l2726:
  6941                           
  6942                           ;mcc_generated_files/ccp4.c: 83:     PIR3bits.CCP4IF = 0;
  6943  0F5F  0020               	movlb	0	; select bank0
  6944  0F60  1293               	bcf	19,5	;volatile
  6945  0F61                     l2728:
  6946                           
  6947                           ;mcc_generated_files/ccp4.c: 86:     PIE3bits.CCP4IE = 1;
  6948  0F61  0021               	movlb	1	; select bank1
  6949  0F62  1693               	bsf	19,5	;volatile
  6950  0F63                     l343:
  6951  0F63  0008               	return
  6952  0F64                     __end_of_CCP4_Initialize:
  6953                           
  6954                           	psect	text31
  6955  0E78                     __ptext31:	
  6956 ;; *************** function _CCP4_SetCallBack *****************
  6957 ;; Defined at:
  6958 ;;		line 104 in file "mcc_generated_files/ccp4.c"
  6959 ;; Parameters:    Size  Location     Type
  6960 ;;  customCallBa    2    0[BANK0 ] PTR FTN(unsigned short ,
  6961 ;;		 -> get_pulse(1), CCP4_DefaultCallBack(1), 
  6962 ;; Auto vars:     Size  Location     Type
  6963 ;;		None
  6964 ;; Return value:  Size  Location     Type
  6965 ;;                  1    wreg      void 
  6966 ;; Registers used:
  6967 ;;		wreg
  6968 ;; Tracked objects:
  6969 ;;		On entry : 0/0
  6970 ;;		On exit  : 0/0
  6971 ;;		Unchanged: 0/0
  6972 ;; Data sizes:     COMMON   BANK0   BANK1   BANK2   BANK3   BANK4
  6973 ;;      Params:         0       2       0       0       0       0
  6974 ;;      Locals:         0       0       0       0       0       0
  6975 ;;      Temps:          0       0       0       0       0       0
  6976 ;;      Totals:         0       2       0       0       0       0
  6977 ;;Total ram usage:        2 bytes
  6978 ;; Hardware stack levels used:    1
  6979 ;; Hardware stack levels required when called:    4
  6980 ;; This function calls:
  6981 ;;		Nothing
  6982 ;; This function is called by:
  6983 ;;		_CCP4_Initialize
  6984 ;;		_main
  6985 ;; This function uses a non-reentrant model
  6986 ;;
  6987                           
  6988                           
  6989                           ;psect for function _CCP4_SetCallBack
  6990  0E78                     _CCP4_SetCallBack:
  6991  0E78                     l2624:	
  6992                           ;incstack = 0
  6993                           ; Regs used in _CCP4_SetCallBack: [wreg]
  6994                           
  6995                           
  6996                           ;mcc_generated_files/ccp4.c: 105:     CCP4_CallBack = customCallBack;
  6997  0E78  0020               	movlb	0	; select bank0
  6998  0E79  0821               	movf	CCP4_SetCallBack@customCallBack+1,w
  6999  0E7A  0021               	movlb	1	; select bank1
  7000  0E7B  00BC               	movwf	(_CCP4_CallBack+1)^(0+128)
  7001  0E7C  0020               	movlb	0	; select bank0
  7002  0E7D  0820               	movf	CCP4_SetCallBack@customCallBack,w
  7003  0E7E  0021               	movlb	1	; select bank1
  7004  0E7F  00BB               	movwf	_CCP4_CallBack^(0+128)
  7005  0E80                     l349:
  7006  0E80  0008               	return
  7007  0E81                     __end_of_CCP4_SetCallBack:
  7008                           
  7009                           	psect	text32
  7010  0E68                     __ptext32:	
  7011 ;; *************** function _ADC_Initialize *****************
  7012 ;; Defined at:
  7013 ;;		line 67 in file "mcc_generated_files/adc.c"
  7014 ;; Parameters:    Size  Location     Type
  7015 ;;		None
  7016 ;; Auto vars:     Size  Location     Type
  7017 ;;		None
  7018 ;; Return value:  Size  Location     Type
  7019 ;;                  1    wreg      void 
  7020 ;; Registers used:
  7021 ;;		wreg, status,2
  7022 ;; Tracked objects:
  7023 ;;		On entry : 0/0
  7024 ;;		On exit  : 0/0
  7025 ;;		Unchanged: 0/0
  7026 ;; Data sizes:     COMMON   BANK0   BANK1   BANK2   BANK3   BANK4
  7027 ;;      Params:         0       0       0       0       0       0
  7028 ;;      Locals:         0       0       0       0       0       0
  7029 ;;      Temps:          0       0       0       0       0       0
  7030 ;;      Totals:         0       0       0       0       0       0
  7031 ;;Total ram usage:        0 bytes
  7032 ;; Hardware stack levels used:    1
  7033 ;; Hardware stack levels required when called:    4
  7034 ;; This function calls:
  7035 ;;		Nothing
  7036 ;; This function is called by:
  7037 ;;		_SYSTEM_Initialize
  7038 ;; This function uses a non-reentrant model
  7039 ;;
  7040                           
  7041                           
  7042                           ;psect for function _ADC_Initialize
  7043  0E68                     _ADC_Initialize:
  7044  0E68                     l2730:	
  7045                           ;incstack = 0
  7046                           ; Regs used in _ADC_Initialize: [wreg+status,2]
  7047                           
  7048                           
  7049                           ;mcc_generated_files/adc.c: 72:     ADCON1 = 0xD3;
  7050  0E68  30D3               	movlw	211
  7051  0E69  0021               	movlb	1	; select bank1
  7052  0E6A  009E               	movwf	30	;volatile
  7053  0E6B                     l2732:
  7054                           
  7055                           ;mcc_generated_files/adc.c: 75:     ADRESL = 0x00;
  7056  0E6B  019B               	clrf	27	;volatile
  7057  0E6C                     l2734:
  7058                           
  7059                           ;mcc_generated_files/adc.c: 78:     ADRESH = 0x00;
  7060  0E6C  019C               	clrf	28	;volatile
  7061                           
  7062                           ;mcc_generated_files/adc.c: 81:     ADCON0 = 0x01;
  7063  0E6D  3001               	movlw	1
  7064  0E6E  009D               	movwf	29	;volatile
  7065  0E6F                     l267:
  7066  0E6F  0008               	return
  7067  0E70                     __end_of_ADC_Initialize:
  7068                           
  7069                           	psect	intentry
  7070  0004                     __pintentry:	
  7071 ;; *************** function _INTERRUPT_InterruptManager *****************
  7072 ;; Defined at:
  7073 ;;		line 52 in file "mcc_generated_files/interrupt_manager.c"
  7074 ;; Parameters:    Size  Location     Type
  7075 ;;		None
  7076 ;; Auto vars:     Size  Location     Type
  7077 ;;		None
  7078 ;; Return value:  Size  Location     Type
  7079 ;;                  1    wreg      void 
  7080 ;; Registers used:
  7081 ;;		wreg, fsr1l, fsr1h, status,2, status,0, pclath, cstack
  7082 ;; Tracked objects:
  7083 ;;		On entry : 0/0
  7084 ;;		On exit  : 0/0
  7085 ;;		Unchanged: 0/0
  7086 ;; Data sizes:     COMMON   BANK0   BANK1   BANK2   BANK3   BANK4
  7087 ;;      Params:         0       0       0       0       0       0
  7088 ;;      Locals:         0       0       0       0       0       0
  7089 ;;      Temps:          0       0       0       0       0       0
  7090 ;;      Totals:         0       0       0       0       0       0
  7091 ;;Total ram usage:        0 bytes
  7092 ;; Hardware stack levels used:    1
  7093 ;; Hardware stack levels required when called:    3
  7094 ;; This function calls:
  7095 ;;		_CCP4_CaptureISR
  7096 ;;		_PIN_MANAGER_IOC
  7097 ;;		_TMR4_ISR
  7098 ;; This function is called by:
  7099 ;;		Interrupt level 1
  7100 ;; This function uses a non-reentrant model
  7101 ;;
  7102                           
  7103  0004                     _INTERRUPT_InterruptManager:
  7104                           
  7105                           ;incstack = 0
  7106  0004  147E               	bsf	int$flags,0	;set compiler interrupt flag (level 1)
  7107                           
  7108                           ; Regs used in _INTERRUPT_InterruptManager: [wreg+fsr1l+fsr1h+status,2+status,0+pclath+c
      +                          stack]
  7109  0005  3180               	pagesel	$
  7110  0006                     i1l2592:
  7111                           
  7112                           ;mcc_generated_files/interrupt_manager.c: 55:     if(INTCONbits.IOCIE == 1 && INTCONbits
      +                          .IOCIF == 1)
  7113  0006  1D8B               	btfss	11,3	;volatile
  7114  0007  2809               	goto	u216_21
  7115  0008  280A               	goto	u216_20
  7116  0009                     u216_21:
  7117  0009  2812               	goto	i1l305
  7118  000A                     u216_20:
  7119  000A                     i1l2594:
  7120  000A  1C0B               	btfss	11,0	;volatile
  7121  000B  280D               	goto	u217_21
  7122  000C  280E               	goto	u217_20
  7123  000D                     u217_21:
  7124  000D  2812               	goto	i1l305
  7125  000E                     u217_20:
  7126  000E                     i1l2596:
  7127                           
  7128                           ;mcc_generated_files/interrupt_manager.c: 56:     {;mcc_generated_files/interrupt_manage
      +                          r.c: 57:         PIN_MANAGER_IOC();
  7129  000E  318F  2778  3180   	fcall	_PIN_MANAGER_IOC
  7130                           
  7131                           ;mcc_generated_files/interrupt_manager.c: 58:     }
  7132  0011  2832               	goto	i1l313
  7133  0012                     i1l305:	
  7134                           ;mcc_generated_files/interrupt_manager.c: 59:     else if(INTCONbits.PEIE == 1)
  7135                           
  7136  0012  1F0B               	btfss	11,6	;volatile
  7137  0013  2815               	goto	u218_21
  7138  0014  2816               	goto	u218_20
  7139  0015                     u218_21:
  7140  0015  2832               	goto	i1l313
  7141  0016                     u218_20:
  7142  0016                     i1l2598:
  7143                           
  7144                           ;mcc_generated_files/interrupt_manager.c: 60:     {;mcc_generated_files/interrupt_manage
      +                          r.c: 61:         if(PIE3bits.CCP4IE == 1 && PIR3bits.CCP4IF == 1)
  7145  0016  0021               	movlb	1	; select bank1
  7146  0017  1E93               	btfss	19,5	;volatile
  7147  0018  281A               	goto	u219_21
  7148  0019  281B               	goto	u219_20
  7149  001A                     u219_21:
  7150  001A  2824               	goto	i1l308
  7151  001B                     u219_20:
  7152  001B                     i1l2600:
  7153  001B  0020               	movlb	0	; select bank0
  7154  001C  1E93               	btfss	19,5	;volatile
  7155  001D  281F               	goto	u220_21
  7156  001E  2820               	goto	u220_20
  7157  001F                     u220_21:
  7158  001F  2824               	goto	i1l308
  7159  0020                     u220_20:
  7160  0020                     i1l2602:
  7161                           
  7162                           ;mcc_generated_files/interrupt_manager.c: 62:         {;mcc_generated_files/interrupt_ma
      +                          nager.c: 63:             CCP4_CaptureISR();
  7163  0020  3187  27E6  3180   	fcall	_CCP4_CaptureISR
  7164                           
  7165                           ;mcc_generated_files/interrupt_manager.c: 64:         }
  7166  0023  2832               	goto	i1l313
  7167  0024                     i1l308:	
  7168                           ;mcc_generated_files/interrupt_manager.c: 65:         else if(PIE3bits.TMR4IE == 1 && PI
      +                          R3bits.TMR4IF == 1)
  7169                           
  7170  0024  0021               	movlb	1	; select bank1
  7171  0025  1C93               	btfss	19,1	;volatile
  7172  0026  2828               	goto	u221_21
  7173  0027  2829               	goto	u221_20
  7174  0028                     u221_21:
  7175  0028  2832               	goto	i1l312
  7176  0029                     u221_20:
  7177  0029                     i1l2604:
  7178  0029  0020               	movlb	0	; select bank0
  7179  002A  1C93               	btfss	19,1	;volatile
  7180  002B  282D               	goto	u222_21
  7181  002C  282E               	goto	u222_20
  7182  002D                     u222_21:
  7183  002D  2832               	goto	i1l312
  7184  002E                     u222_20:
  7185  002E                     i1l2606:
  7186                           
  7187                           ;mcc_generated_files/interrupt_manager.c: 66:         {;mcc_generated_files/interrupt_ma
      +                          nager.c: 67:             TMR4_ISR();
  7188  002E  318E  26D9  3180   	fcall	_TMR4_ISR
  7189                           
  7190                           ;mcc_generated_files/interrupt_manager.c: 68:         }
  7191  0031  2832               	goto	i1l313
  7192  0032                     i1l312:	
  7193                           ;mcc_generated_files/interrupt_manager.c: 75:     {;mcc_generated_files/interrupt_manage
      +                          r.c: 77:     }
  7194                           
  7195  0032                     i1l313:
  7196  0032  107E               	bcf	int$flags,0	;clear compiler interrupt flag (level 1)
  7197  0033  0009               	retfie
  7198  0034                     __end_of_INTERRUPT_InterruptManager:
  7199                           
  7200                           	psect	text34
  7201  0ED9                     __ptext34:	
  7202 ;; *************** function _TMR4_ISR *****************
  7203 ;; Defined at:
  7204 ;;		line 119 in file "mcc_generated_files/tmr4.c"
  7205 ;; Parameters:    Size  Location     Type
  7206 ;;		None
  7207 ;; Auto vars:     Size  Location     Type
  7208 ;;		None
  7209 ;; Return value:  Size  Location     Type
  7210 ;;                  1    wreg      void 
  7211 ;; Registers used:
  7212 ;;		wreg, fsr1l, fsr1h, status,2, status,0, pclath, cstack
  7213 ;; Tracked objects:
  7214 ;;		On entry : 0/0
  7215 ;;		On exit  : 0/0
  7216 ;;		Unchanged: 0/0
  7217 ;; Data sizes:     COMMON   BANK0   BANK1   BANK2   BANK3   BANK4
  7218 ;;      Params:         0       0       0       0       0       0
  7219 ;;      Locals:         0       0       0       0       0       0
  7220 ;;      Temps:          0       0       0       0       0       0
  7221 ;;      Totals:         0       0       0       0       0       0
  7222 ;;Total ram usage:        0 bytes
  7223 ;; Hardware stack levels used:    1
  7224 ;; Hardware stack levels required when called:    2
  7225 ;; This function calls:
  7226 ;;		Absolute function
  7227 ;;		_TMR4_DefaultInterruptHandler
  7228 ;;		_send_data
  7229 ;; This function is called by:
  7230 ;;		_INTERRUPT_InterruptManager
  7231 ;; This function uses a non-reentrant model
  7232 ;;
  7233                           
  7234                           
  7235                           ;psect for function _TMR4_ISR
  7236  0ED9                     _TMR4_ISR:
  7237  0ED9                     i1l2542:	
  7238                           ;incstack = 0
  7239                           ; Regs used in _TMR4_ISR: [wreg+fsr1l+fsr1h+status,2+status,0+pclath+cstack]
  7240                           
  7241                           
  7242                           ;mcc_generated_files/tmr4.c: 123:     PIR3bits.TMR4IF = 0;
  7243  0ED9  0020               	movlb	0	; select bank0
  7244  0EDA  1093               	bcf	19,1	;volatile
  7245  0EDB                     i1l2544:
  7246                           
  7247                           ;mcc_generated_files/tmr4.c: 125:     if(TMR4_InterruptHandler)
  7248  0EDB  086D               	movf	_TMR4_InterruptHandler,w
  7249  0EDC  046E               	iorwf	_TMR4_InterruptHandler+1,w
  7250  0EDD  1903               	btfsc	3,2
  7251  0EDE  2EE0               	goto	u209_21
  7252  0EDF  2EE1               	goto	u209_20
  7253  0EE0                     u209_21:
  7254  0EE0  2EE6               	goto	i1l244
  7255  0EE1                     u209_20:
  7256  0EE1                     i1l2546:
  7257                           
  7258                           ;mcc_generated_files/tmr4.c: 126:     {;mcc_generated_files/tmr4.c: 127:         TMR4_In
      +                          terruptHandler();
  7259  0EE1  086E               	movf	_TMR4_InterruptHandler+1,w
  7260  0EE2  008A               	movwf	10
  7261  0EE3  086D               	movf	_TMR4_InterruptHandler,w
  7262  0EE4  000A               	callw
  7263  0EE5  318E               	pagesel	$
  7264  0EE6                     i1l244:
  7265  0EE6  0008               	return
  7266  0EE7                     __end_of_TMR4_ISR:
  7267                           
  7268                           	psect	text35
  7269  0002                     __ptext35:	
  7270 ;; *************** function _TMR4_DefaultInterruptHandler *****************
  7271 ;; Defined at:
  7272 ;;		line 136 in file "mcc_generated_files/tmr4.c"
  7273 ;; Parameters:    Size  Location     Type
  7274 ;;		None
  7275 ;; Auto vars:     Size  Location     Type
  7276 ;;		None
  7277 ;; Return value:  Size  Location     Type
  7278 ;;                  1    wreg      void 
  7279 ;; Registers used:
  7280 ;;		None
  7281 ;; Tracked objects:
  7282 ;;		On entry : 0/0
  7283 ;;		On exit  : 0/0
  7284 ;;		Unchanged: 0/0
  7285 ;; Data sizes:     COMMON   BANK0   BANK1   BANK2   BANK3   BANK4
  7286 ;;      Params:         0       0       0       0       0       0
  7287 ;;      Locals:         0       0       0       0       0       0
  7288 ;;      Temps:          0       0       0       0       0       0
  7289 ;;      Totals:         0       0       0       0       0       0
  7290 ;;Total ram usage:        0 bytes
  7291 ;; Hardware stack levels used:    1
  7292 ;; This function calls:
  7293 ;;		Nothing
  7294 ;; This function is called by:
  7295 ;;		_TMR4_Initialize
  7296 ;;		_TMR4_ISR
  7297 ;; This function uses a non-reentrant model
  7298 ;;
  7299                           
  7300                           
  7301                           ;psect for function _TMR4_DefaultInterruptHandler
  7302  0002                     _TMR4_DefaultInterruptHandler:
  7303  0002                     i1l250:	
  7304                           ;incstack = 0
  7305                           ; Regs used in _TMR4_DefaultInterruptHandler: []
  7306                           
  7307  0002  0008               	return
  7308  0003                     __end_of_TMR4_DefaultInterruptHandler:
  7309                           
  7310                           	psect	text36
  7311  078F                     __ptext36:	
  7312 ;; *************** function _send_data *****************
  7313 ;; Defined at:
  7314 ;;		line 45 in file "main.c"
  7315 ;; Parameters:    Size  Location     Type
  7316 ;;		None
  7317 ;; Auto vars:     Size  Location     Type
  7318 ;;  i               2    2[COMMON] int 
  7319 ;; Return value:  Size  Location     Type
  7320 ;;                  1    wreg      void 
  7321 ;; Registers used:
  7322 ;;		wreg, fsr1l, fsr1h, status,2, status,0, pclath, cstack
  7323 ;; Tracked objects:
  7324 ;;		On entry : 0/0
  7325 ;;		On exit  : 0/0
  7326 ;;		Unchanged: 0/0
  7327 ;; Data sizes:     COMMON   BANK0   BANK1   BANK2   BANK3   BANK4
  7328 ;;      Params:         0       0       0       0       0       0
  7329 ;;      Locals:         2       0       0       0       0       0
  7330 ;;      Temps:          1       0       0       0       0       0
  7331 ;;      Totals:         3       0       0       0       0       0
  7332 ;;Total ram usage:        3 bytes
  7333 ;; Hardware stack levels used:    1
  7334 ;; Hardware stack levels required when called:    1
  7335 ;; This function calls:
  7336 ;;		_EUSART_Write
  7337 ;;		_EUSART_is_tx_ready
  7338 ;; This function is called by:
  7339 ;;		_main
  7340 ;;		_TMR4_ISR
  7341 ;; This function uses a non-reentrant model
  7342 ;;
  7343                           
  7344                           
  7345                           ;psect for function _send_data
  7346  078F                     _send_data:
  7347  078F                     i1l2160:	
  7348                           ;incstack = 0
  7349                           ; Regs used in _send_data: [wreg+fsr1l+fsr1h+status,2+status,0+pclath+cstack]
  7350                           
  7351                           
  7352                           ;main.c: 47:         aux_tempo++;
  7353  078F  3001               	movlw	1
  7354  0790  07F7               	addwf	_aux_tempo,f
  7355  0791  3000               	movlw	0
  7356  0792  3DF8               	addwfc	_aux_tempo+1,f
  7357  0793                     i1l2162:
  7358                           
  7359                           ;main.c: 48:         if(aux_tempo == 14)
  7360  0793  300E               	movlw	14
  7361  0794  0677               	xorwf	_aux_tempo,w
  7362  0795  0478               	iorwf	_aux_tempo+1,w
  7363  0796  1D03               	btfss	3,2
  7364  0797  2F99               	goto	u127_21
  7365  0798  2F9A               	goto	u127_20
  7366  0799                     u127_21:
  7367  0799  2FC0               	goto	i1l537
  7368  079A                     u127_20:
  7369  079A                     i1l2164:
  7370                           
  7371                           ;main.c: 49:         {;main.c: 50:             int i=0;
  7372  079A  01F2               	clrf	send_data@i
  7373  079B  01F3               	clrf	send_data@i+1
  7374                           
  7375                           ;main.c: 51:             while(i<5)
  7376  079C  2FB1               	goto	i1l2172
  7377  079D                     i1l2166:
  7378                           
  7379                           ;main.c: 52:             {;main.c: 53:                 if(EUSART_is_tx_ready())
  7380  079D  318F  2723  3187   	fcall	_EUSART_is_tx_ready
  7381  07A0  3A00               	xorlw	0
  7382  07A1  1903               	skipnz
  7383  07A2  2FA4               	goto	u128_21
  7384  07A3  2FA5               	goto	u128_20
  7385  07A4                     u128_21:
  7386  07A4  2FB1               	goto	i1l2172
  7387  07A5                     u128_20:
  7388  07A5                     i1l2168:
  7389                           
  7390                           ;main.c: 54:                     {;main.c: 55:                         EUSART_Write(byte
      +                          [i]);
  7391  07A5  0872               	movf	send_data@i,w
  7392  07A6  3EA0               	addlw	(low (_byte| 0))& (0+255)
  7393  07A7  0086               	movwf	6
  7394  07A8  0187               	clrf	7
  7395  07A9  0801               	movf	1,w
  7396  07AA  318E  26B7  3187   	fcall	_EUSART_Write
  7397  07AD                     i1l2170:
  7398                           
  7399                           ;main.c: 56:                         i++;
  7400  07AD  3001               	movlw	1
  7401  07AE  07F2               	addwf	send_data@i,f
  7402  07AF  3000               	movlw	0
  7403  07B0  3DF3               	addwfc	send_data@i+1,f
  7404  07B1                     i1l2172:
  7405                           
  7406                           ;main.c: 51:             while(i<5)
  7407  07B1  0873               	movf	send_data@i+1,w
  7408  07B2  3A80               	xorlw	128
  7409  07B3  00F1               	movwf	??_send_data
  7410  07B4  3080               	movlw	128
  7411  07B5  0271               	subwf	??_send_data,w
  7412  07B6  1D03               	skipz
  7413  07B7  2FBA               	goto	u129_25
  7414  07B8  3005               	movlw	5
  7415  07B9  0272               	subwf	send_data@i,w
  7416  07BA                     u129_25:
  7417  07BA  1C03               	skipc
  7418  07BB  2FBD               	goto	u129_21
  7419  07BC  2FBE               	goto	u129_20
  7420  07BD                     u129_21:
  7421  07BD  2F9D               	goto	i1l2166
  7422  07BE                     u129_20:
  7423  07BE                     i1l2174:
  7424                           
  7425                           ;main.c: 60:             aux_tempo =0;
  7426  07BE  01F7               	clrf	_aux_tempo
  7427  07BF  01F8               	clrf	_aux_tempo+1
  7428  07C0                     i1l537:
  7429  07C0  0008               	return
  7430  07C1                     __end_of_send_data:
  7431                           
  7432                           	psect	text37
  7433  0F23                     __ptext37:	
  7434 ;; *************** function _EUSART_is_tx_ready *****************
  7435 ;; Defined at:
  7436 ;;		line 94 in file "mcc_generated_files/eusart.c"
  7437 ;; Parameters:    Size  Location     Type
  7438 ;;		None
  7439 ;; Auto vars:     Size  Location     Type
  7440 ;;		None
  7441 ;; Return value:  Size  Location     Type
  7442 ;;                  1    wreg      _Bool 
  7443 ;; Registers used:
  7444 ;;		wreg, status,2
  7445 ;; Tracked objects:
  7446 ;;		On entry : 0/0
  7447 ;;		On exit  : 0/0
  7448 ;;		Unchanged: 0/0
  7449 ;; Data sizes:     COMMON   BANK0   BANK1   BANK2   BANK3   BANK4
  7450 ;;      Params:         0       0       0       0       0       0
  7451 ;;      Locals:         1       0       0       0       0       0
  7452 ;;      Temps:          0       0       0       0       0       0
  7453 ;;      Totals:         1       0       0       0       0       0
  7454 ;;Total ram usage:        1 bytes
  7455 ;; Hardware stack levels used:    1
  7456 ;; This function calls:
  7457 ;;		Nothing
  7458 ;; This function is called by:
  7459 ;;		_send_data
  7460 ;; This function uses a non-reentrant model
  7461 ;;
  7462                           
  7463                           
  7464                           ;psect for function _EUSART_is_tx_ready
  7465  0F23                     _EUSART_is_tx_ready:
  7466  0F23                     i1l1962:	
  7467                           ;incstack = 0
  7468                           ; Regs used in _EUSART_is_tx_ready: [wreg+status,2]
  7469                           
  7470                           
  7471                           ;mcc_generated_files/eusart.c: 96:     return (_Bool)(PIR1bits.TXIF && TXSTAbits.TXEN);
  7472  0F23  01F0               	clrf	_EUSART_is_tx_ready$167
  7473  0F24                     i1l1964:
  7474  0F24  0020               	movlb	0	; select bank0
  7475  0F25  1E11               	btfss	17,4	;volatile
  7476  0F26  2F28               	goto	u113_21
  7477  0F27  2F29               	goto	u113_20
  7478  0F28                     u113_21:
  7479  0F28  2F30               	goto	i1l1970
  7480  0F29                     u113_20:
  7481  0F29                     i1l1966:
  7482  0F29  0023               	movlb	3	; select bank3
  7483  0F2A  1E9E               	btfss	30,5	;volatile
  7484  0F2B  2F2D               	goto	u114_21
  7485  0F2C  2F2E               	goto	u114_20
  7486  0F2D                     u114_21:
  7487  0F2D  2F30               	goto	i1l1970
  7488  0F2E                     u114_20:
  7489  0F2E                     i1l1968:
  7490  0F2E  01F0               	clrf	_EUSART_is_tx_ready$167
  7491  0F2F  0AF0               	incf	_EUSART_is_tx_ready$167,f
  7492  0F30                     i1l1970:
  7493  0F30  0870               	movf	_EUSART_is_tx_ready$167,w
  7494  0F31                     i1l48:
  7495  0F31  0008               	return
  7496  0F32                     __end_of_EUSART_is_tx_ready:
  7497                           
  7498                           	psect	text38
  7499  0EB7                     __ptext38:	
  7500 ;; *************** function _EUSART_Write *****************
  7501 ;; Defined at:
  7502 ;;		line 132 in file "mcc_generated_files/eusart.c"
  7503 ;; Parameters:    Size  Location     Type
  7504 ;;  txData          1    wreg     unsigned char 
  7505 ;; Auto vars:     Size  Location     Type
  7506 ;;  txData          1    0[COMMON] unsigned char 
  7507 ;; Return value:  Size  Location     Type
  7508 ;;                  1    wreg      void 
  7509 ;; Registers used:
  7510 ;;		wreg
  7511 ;; Tracked objects:
  7512 ;;		On entry : 0/0
  7513 ;;		On exit  : 0/0
  7514 ;;		Unchanged: 0/0
  7515 ;; Data sizes:     COMMON   BANK0   BANK1   BANK2   BANK3   BANK4
  7516 ;;      Params:         0       0       0       0       0       0
  7517 ;;      Locals:         1       0       0       0       0       0
  7518 ;;      Temps:          0       0       0       0       0       0
  7519 ;;      Totals:         1       0       0       0       0       0
  7520 ;;Total ram usage:        1 bytes
  7521 ;; Hardware stack levels used:    1
  7522 ;; This function calls:
  7523 ;;		Nothing
  7524 ;; This function is called by:
  7525 ;;		_send_data
  7526 ;; This function uses a non-reentrant model
  7527 ;;
  7528                           
  7529                           
  7530                           ;psect for function _EUSART_Write
  7531  0EB7                     _EUSART_Write:
  7532                           
  7533                           ;incstack = 0
  7534                           ; Regs used in _EUSART_Write: [wreg]
  7535                           ;EUSART_Write@txData stored from wreg
  7536  0EB7  00F0               	movwf	EUSART_Write@txData
  7537  0EB8                     i1l1974:
  7538  0EB8                     i1l67:	
  7539                           ;mcc_generated_files/eusart.c: 135:     {;mcc_generated_files/eusart.c: 136:     }
  7540                           
  7541                           
  7542                           ;mcc_generated_files/eusart.c: 134:     while(0 == PIR1bits.TXIF)
  7543  0EB8  0020               	movlb	0	; select bank0
  7544  0EB9  1E11               	btfss	17,4	;volatile
  7545  0EBA  2EBC               	goto	u115_21
  7546  0EBB  2EBD               	goto	u115_20
  7547  0EBC                     u115_21:
  7548  0EBC  2EB8               	goto	i1l67
  7549  0EBD                     u115_20:
  7550  0EBD                     i1l1976:
  7551                           
  7552                           ;mcc_generated_files/eusart.c: 138:     TXREG = txData;
  7553  0EBD  0870               	movf	EUSART_Write@txData,w
  7554  0EBE  0023               	movlb	3	; select bank3
  7555  0EBF  009A               	movwf	26	;volatile
  7556  0EC0                     i1l70:
  7557  0EC0  0008               	return
  7558  0EC1                     __end_of_EUSART_Write:
  7559                           
  7560                           	psect	text39
  7561  0F78                     __ptext39:	
  7562 ;; *************** function _PIN_MANAGER_IOC *****************
  7563 ;; Defined at:
  7564 ;;		line 135 in file "mcc_generated_files/pin_manager.c"
  7565 ;; Parameters:    Size  Location     Type
  7566 ;;		None
  7567 ;; Auto vars:     Size  Location     Type
  7568 ;;		None
  7569 ;; Return value:  Size  Location     Type
  7570 ;;                  1    wreg      void 
  7571 ;; Registers used:
  7572 ;;		wreg, status,2, status,0, pclath, cstack
  7573 ;; Tracked objects:
  7574 ;;		On entry : 0/0
  7575 ;;		On exit  : 0/0
  7576 ;;		Unchanged: 0/0
  7577 ;; Data sizes:     COMMON   BANK0   BANK1   BANK2   BANK3   BANK4
  7578 ;;      Params:         0       0       0       0       0       0
  7579 ;;      Locals:         0       0       0       0       0       0
  7580 ;;      Temps:          0       0       0       0       0       0
  7581 ;;      Totals:         0       0       0       0       0       0
  7582 ;;Total ram usage:        0 bytes
  7583 ;; Hardware stack levels used:    1
  7584 ;; Hardware stack levels required when called:    2
  7585 ;; This function calls:
  7586 ;;		_IOCBF0_ISR
  7587 ;;		_IOCBF3_ISR
  7588 ;;		_IOCBF4_ISR
  7589 ;;		_IOCBF5_ISR
  7590 ;; This function is called by:
  7591 ;;		_INTERRUPT_InterruptManager
  7592 ;; This function uses a non-reentrant model
  7593 ;;
  7594                           
  7595                           
  7596                           ;psect for function _PIN_MANAGER_IOC
  7597  0F78                     _PIN_MANAGER_IOC:
  7598  0F78                     i1l2548:	
  7599                           ;incstack = 0
  7600                           ; Regs used in _PIN_MANAGER_IOC: [wreg+status,2+status,0+pclath+cstack]
  7601                           
  7602                           
  7603                           ;mcc_generated_files/pin_manager.c: 138:     if(IOCBFbits.IOCBF0 == 1)
  7604  0F78  0027               	movlb	7	; select bank7
  7605  0F79  1C16               	btfss	22,0	;volatile
  7606  0F7A  2F7C               	goto	u210_21
  7607  0F7B  2F7D               	goto	u210_20
  7608  0F7C                     u210_21:
  7609  0F7C  2F80               	goto	i1l2552
  7610  0F7D                     u210_20:
  7611  0F7D                     i1l2550:
  7612                           
  7613                           ;mcc_generated_files/pin_manager.c: 139:     {;mcc_generated_files/pin_manager.c: 140:  
      +                                 IOCBF0_ISR();
  7614  0F7D  318E  26E7  318F   	fcall	_IOCBF0_ISR
  7615  0F80                     i1l2552:
  7616                           
  7617                           ;mcc_generated_files/pin_manager.c: 143:     if(IOCBFbits.IOCBF3 == 1)
  7618  0F80  0027               	movlb	7	; select bank7
  7619  0F81  1D96               	btfss	22,3	;volatile
  7620  0F82  2F84               	goto	u211_21
  7621  0F83  2F85               	goto	u211_20
  7622  0F84                     u211_21:
  7623  0F84  2F88               	goto	i1l2556
  7624  0F85                     u211_20:
  7625  0F85                     i1l2554:
  7626                           
  7627                           ;mcc_generated_files/pin_manager.c: 144:     {;mcc_generated_files/pin_manager.c: 145:  
      +                                 IOCBF3_ISR();
  7628  0F85  318E  26F6  318F   	fcall	_IOCBF3_ISR
  7629  0F88                     i1l2556:
  7630                           
  7631                           ;mcc_generated_files/pin_manager.c: 148:     if(IOCBFbits.IOCBF4 == 1)
  7632  0F88  0027               	movlb	7	; select bank7
  7633  0F89  1E16               	btfss	22,4	;volatile
  7634  0F8A  2F8C               	goto	u212_21
  7635  0F8B  2F8D               	goto	u212_20
  7636  0F8C                     u212_21:
  7637  0F8C  2F90               	goto	i1l2560
  7638  0F8D                     u212_20:
  7639  0F8D                     i1l2558:
  7640                           
  7641                           ;mcc_generated_files/pin_manager.c: 149:     {;mcc_generated_files/pin_manager.c: 150:  
      +                                 IOCBF4_ISR();
  7642  0F8D  318F  2705  318F   	fcall	_IOCBF4_ISR
  7643  0F90                     i1l2560:
  7644                           
  7645                           ;mcc_generated_files/pin_manager.c: 153:     if(IOCBFbits.IOCBF5 == 1)
  7646  0F90  0027               	movlb	7	; select bank7
  7647  0F91  1E96               	btfss	22,5	;volatile
  7648  0F92  2F94               	goto	u213_21
  7649  0F93  2F95               	goto	u213_20
  7650  0F94                     u213_21:
  7651  0F94  2F98               	goto	i1l421
  7652  0F95                     u213_20:
  7653  0F95                     i1l2562:
  7654                           
  7655                           ;mcc_generated_files/pin_manager.c: 154:     {;mcc_generated_files/pin_manager.c: 155:  
      +                                 IOCBF5_ISR();
  7656  0F95  318F  2714  318F   	fcall	_IOCBF5_ISR
  7657  0F98                     i1l421:
  7658  0F98  0008               	return
  7659  0F99                     __end_of_PIN_MANAGER_IOC:
  7660                           
  7661                           	psect	text40
  7662  0F14                     __ptext40:	
  7663 ;; *************** function _IOCBF5_ISR *****************
  7664 ;; Defined at:
  7665 ;;		line 252 in file "mcc_generated_files/pin_manager.c"
  7666 ;; Parameters:    Size  Location     Type
  7667 ;;		None
  7668 ;; Auto vars:     Size  Location     Type
  7669 ;;		None
  7670 ;; Return value:  Size  Location     Type
  7671 ;;                  1    wreg      void 
  7672 ;; Registers used:
  7673 ;;		wreg, status,2, status,0, pclath, cstack
  7674 ;; Tracked objects:
  7675 ;;		On entry : 0/0
  7676 ;;		On exit  : 0/0
  7677 ;;		Unchanged: 0/0
  7678 ;; Data sizes:     COMMON   BANK0   BANK1   BANK2   BANK3   BANK4
  7679 ;;      Params:         0       0       0       0       0       0
  7680 ;;      Locals:         0       0       0       0       0       0
  7681 ;;      Temps:          0       0       0       0       0       0
  7682 ;;      Totals:         0       0       0       0       0       0
  7683 ;;Total ram usage:        0 bytes
  7684 ;; Hardware stack levels used:    1
  7685 ;; Hardware stack levels required when called:    1
  7686 ;; This function calls:
  7687 ;;		Absolute function
  7688 ;;		_IOCBF5_DefaultInterruptHandler
  7689 ;;		_sensor4
  7690 ;; This function is called by:
  7691 ;;		_PIN_MANAGER_IOC
  7692 ;; This function uses a non-reentrant model
  7693 ;;
  7694                           
  7695                           
  7696                           ;psect for function _IOCBF5_ISR
  7697  0F14                     _IOCBF5_ISR:
  7698  0F14                     i1l2154:	
  7699                           ;incstack = 0
  7700                           ; Regs used in _IOCBF5_ISR: [wreg+status,2+status,0+pclath+cstack]
  7701                           
  7702                           
  7703                           ;mcc_generated_files/pin_manager.c: 257:     if(IOCBF5_InterruptHandler)
  7704  0F14  0021               	movlb	1	; select bank1
  7705  0F15  0837               	movf	_IOCBF5_InterruptHandler^(0+128),w
  7706  0F16  0438               	iorwf	(_IOCBF5_InterruptHandler+1)^(0+128),w
  7707  0F17  1903               	btfsc	3,2
  7708  0F18  2F1A               	goto	u126_21
  7709  0F19  2F1B               	goto	u126_20
  7710  0F1A                     u126_21:
  7711  0F1A  2F20               	goto	i1l2158
  7712  0F1B                     u126_20:
  7713  0F1B                     i1l2156:
  7714                           
  7715                           ;mcc_generated_files/pin_manager.c: 258:     {;mcc_generated_files/pin_manager.c: 259:  
      +                                 IOCBF5_InterruptHandler();
  7716  0F1B  0838               	movf	(_IOCBF5_InterruptHandler+1)^(0+128),w
  7717  0F1C  008A               	movwf	10
  7718  0F1D  0837               	movf	_IOCBF5_InterruptHandler^(0+128),w
  7719  0F1E  000A               	callw
  7720  0F1F  318F               	pagesel	$
  7721  0F20                     i1l2158:
  7722                           
  7723                           ;mcc_generated_files/pin_manager.c: 261:     IOCBFbits.IOCBF5 = 0;
  7724  0F20  0027               	movlb	7	; select bank7
  7725  0F21  1296               	bcf	22,5	;volatile
  7726  0F22                     i1l455:
  7727  0F22  0008               	return
  7728  0F23                     __end_of_IOCBF5_ISR:
  7729                           
  7730                           	psect	text41
  7731  0E2C                     __ptext41:	
  7732 ;; *************** function _IOCBF5_DefaultInterruptHandler *****************
  7733 ;; Defined at:
  7734 ;;		line 274 in file "mcc_generated_files/pin_manager.c"
  7735 ;; Parameters:    Size  Location     Type
  7736 ;;		None
  7737 ;; Auto vars:     Size  Location     Type
  7738 ;;		None
  7739 ;; Return value:  Size  Location     Type
  7740 ;;                  1    wreg      void 
  7741 ;; Registers used:
  7742 ;;		None
  7743 ;; Tracked objects:
  7744 ;;		On entry : 0/0
  7745 ;;		On exit  : 0/0
  7746 ;;		Unchanged: 0/0
  7747 ;; Data sizes:     COMMON   BANK0   BANK1   BANK2   BANK3   BANK4
  7748 ;;      Params:         0       0       0       0       0       0
  7749 ;;      Locals:         0       0       0       0       0       0
  7750 ;;      Temps:          0       0       0       0       0       0
  7751 ;;      Totals:         0       0       0       0       0       0
  7752 ;;Total ram usage:        0 bytes
  7753 ;; Hardware stack levels used:    1
  7754 ;; This function calls:
  7755 ;;		Nothing
  7756 ;; This function is called by:
  7757 ;;		_PIN_MANAGER_Initialize
  7758 ;;		_IOCBF5_ISR
  7759 ;; This function uses a non-reentrant model
  7760 ;;
  7761                           
  7762                           
  7763                           ;psect for function _IOCBF5_DefaultInterruptHandler
  7764  0E2C                     _IOCBF5_DefaultInterruptHandler:
  7765  0E2C                     i1l461:	
  7766                           ;incstack = 0
  7767                           ; Regs used in _IOCBF5_DefaultInterruptHandler: []
  7768                           
  7769  0E2C  0008               	return
  7770  0E2D                     __end_of_IOCBF5_DefaultInterruptHandler:
  7771                           
  7772                           	psect	text42
  7773  0E43                     __ptext42:	
  7774 ;; *************** function _sensor4 *****************
  7775 ;; Defined at:
  7776 ;;		line 79 in file "main.c"
  7777 ;; Parameters:    Size  Location     Type
  7778 ;;		None
  7779 ;; Auto vars:     Size  Location     Type
  7780 ;;		None
  7781 ;; Return value:  Size  Location     Type
  7782 ;;                  1    wreg      void 
  7783 ;; Registers used:
  7784 ;;		wreg
  7785 ;; Tracked objects:
  7786 ;;		On entry : 0/0
  7787 ;;		On exit  : 0/0
  7788 ;;		Unchanged: 0/0
  7789 ;; Data sizes:     COMMON   BANK0   BANK1   BANK2   BANK3   BANK4
  7790 ;;      Params:         0       0       0       0       0       0
  7791 ;;      Locals:         0       0       0       0       0       0
  7792 ;;      Temps:          1       0       0       0       0       0
  7793 ;;      Totals:         1       0       0       0       0       0
  7794 ;;Total ram usage:        1 bytes
  7795 ;; Hardware stack levels used:    1
  7796 ;; This function calls:
  7797 ;;		Nothing
  7798 ;; This function is called by:
  7799 ;;		_main
  7800 ;;		_IOCBF5_ISR
  7801 ;; This function uses a non-reentrant model
  7802 ;;
  7803                           
  7804                           
  7805                           ;psect for function _sensor4
  7806  0E43                     _sensor4:
  7807  0E43                     i1l2010:	
  7808                           ;incstack = 0
  7809                           ; Regs used in _sensor4: [wreg]
  7810                           
  7811                           
  7812                           ;main.c: 81:         and_ating=3;
  7813  0E43  3003               	movlw	3
  7814  0E44  00F0               	movwf	??_sensor4
  7815  0E45  0870               	movf	??_sensor4,w
  7816  0E46  0021               	movlb	1	; select bank1
  7817  0E47  00A9               	movwf	_and_ating^(0+128)
  7818  0E48                     i1l549:
  7819  0E48  0008               	return
  7820  0E49                     __end_of_sensor4:
  7821                           
  7822                           	psect	text43
  7823  0F05                     __ptext43:	
  7824 ;; *************** function _IOCBF4_ISR *****************
  7825 ;; Defined at:
  7826 ;;		line 222 in file "mcc_generated_files/pin_manager.c"
  7827 ;; Parameters:    Size  Location     Type
  7828 ;;		None
  7829 ;; Auto vars:     Size  Location     Type
  7830 ;;		None
  7831 ;; Return value:  Size  Location     Type
  7832 ;;                  1    wreg      void 
  7833 ;; Registers used:
  7834 ;;		wreg, status,2, status,0, pclath, cstack
  7835 ;; Tracked objects:
  7836 ;;		On entry : 0/0
  7837 ;;		On exit  : 0/0
  7838 ;;		Unchanged: 0/0
  7839 ;; Data sizes:     COMMON   BANK0   BANK1   BANK2   BANK3   BANK4
  7840 ;;      Params:         0       0       0       0       0       0
  7841 ;;      Locals:         0       0       0       0       0       0
  7842 ;;      Temps:          0       0       0       0       0       0
  7843 ;;      Totals:         0       0       0       0       0       0
  7844 ;;Total ram usage:        0 bytes
  7845 ;; Hardware stack levels used:    1
  7846 ;; Hardware stack levels required when called:    1
  7847 ;; This function calls:
  7848 ;;		Absolute function
  7849 ;;		_IOCBF4_DefaultInterruptHandler
  7850 ;;		_sensor3
  7851 ;; This function is called by:
  7852 ;;		_PIN_MANAGER_IOC
  7853 ;; This function uses a non-reentrant model
  7854 ;;
  7855                           
  7856                           
  7857                           ;psect for function _IOCBF4_ISR
  7858  0F05                     _IOCBF4_ISR:
  7859  0F05                     i1l2148:	
  7860                           ;incstack = 0
  7861                           ; Regs used in _IOCBF4_ISR: [wreg+status,2+status,0+pclath+cstack]
  7862                           
  7863                           
  7864                           ;mcc_generated_files/pin_manager.c: 227:     if(IOCBF4_InterruptHandler)
  7865  0F05  0021               	movlb	1	; select bank1
  7866  0F06  0839               	movf	_IOCBF4_InterruptHandler^(0+128),w
  7867  0F07  043A               	iorwf	(_IOCBF4_InterruptHandler+1)^(0+128),w
  7868  0F08  1903               	btfsc	3,2
  7869  0F09  2F0B               	goto	u125_21
  7870  0F0A  2F0C               	goto	u125_20
  7871  0F0B                     u125_21:
  7872  0F0B  2F11               	goto	i1l2152
  7873  0F0C                     u125_20:
  7874  0F0C                     i1l2150:
  7875                           
  7876                           ;mcc_generated_files/pin_manager.c: 228:     {;mcc_generated_files/pin_manager.c: 229:  
      +                                 IOCBF4_InterruptHandler();
  7877  0F0C  083A               	movf	(_IOCBF4_InterruptHandler+1)^(0+128),w
  7878  0F0D  008A               	movwf	10
  7879  0F0E  0839               	movf	_IOCBF4_InterruptHandler^(0+128),w
  7880  0F0F  000A               	callw
  7881  0F10  318F               	pagesel	$
  7882  0F11                     i1l2152:
  7883                           
  7884                           ;mcc_generated_files/pin_manager.c: 231:     IOCBFbits.IOCBF4 = 0;
  7885  0F11  0027               	movlb	7	; select bank7
  7886  0F12  1216               	bcf	22,4	;volatile
  7887  0F13                     i1l445:
  7888  0F13  0008               	return
  7889  0F14                     __end_of_IOCBF4_ISR:
  7890                           
  7891                           	psect	text44
  7892  0E2B                     __ptext44:	
  7893 ;; *************** function _IOCBF4_DefaultInterruptHandler *****************
  7894 ;; Defined at:
  7895 ;;		line 244 in file "mcc_generated_files/pin_manager.c"
  7896 ;; Parameters:    Size  Location     Type
  7897 ;;		None
  7898 ;; Auto vars:     Size  Location     Type
  7899 ;;		None
  7900 ;; Return value:  Size  Location     Type
  7901 ;;                  1    wreg      void 
  7902 ;; Registers used:
  7903 ;;		None
  7904 ;; Tracked objects:
  7905 ;;		On entry : 0/0
  7906 ;;		On exit  : 0/0
  7907 ;;		Unchanged: 0/0
  7908 ;; Data sizes:     COMMON   BANK0   BANK1   BANK2   BANK3   BANK4
  7909 ;;      Params:         0       0       0       0       0       0
  7910 ;;      Locals:         0       0       0       0       0       0
  7911 ;;      Temps:          0       0       0       0       0       0
  7912 ;;      Totals:         0       0       0       0       0       0
  7913 ;;Total ram usage:        0 bytes
  7914 ;; Hardware stack levels used:    1
  7915 ;; This function calls:
  7916 ;;		Nothing
  7917 ;; This function is called by:
  7918 ;;		_PIN_MANAGER_Initialize
  7919 ;;		_IOCBF4_ISR
  7920 ;; This function uses a non-reentrant model
  7921 ;;
  7922                           
  7923                           
  7924                           ;psect for function _IOCBF4_DefaultInterruptHandler
  7925  0E2B                     _IOCBF4_DefaultInterruptHandler:
  7926  0E2B                     i1l451:	
  7927                           ;incstack = 0
  7928                           ; Regs used in _IOCBF4_DefaultInterruptHandler: []
  7929                           
  7930  0E2B  0008               	return
  7931  0E2C                     __end_of_IOCBF4_DefaultInterruptHandler:
  7932                           
  7933                           	psect	text45
  7934  0E3D                     __ptext45:	
  7935 ;; *************** function _sensor3 *****************
  7936 ;; Defined at:
  7937 ;;		line 74 in file "main.c"
  7938 ;; Parameters:    Size  Location     Type
  7939 ;;		None
  7940 ;; Auto vars:     Size  Location     Type
  7941 ;;		None
  7942 ;; Return value:  Size  Location     Type
  7943 ;;                  1    wreg      void 
  7944 ;; Registers used:
  7945 ;;		wreg
  7946 ;; Tracked objects:
  7947 ;;		On entry : 0/0
  7948 ;;		On exit  : 0/0
  7949 ;;		Unchanged: 0/0
  7950 ;; Data sizes:     COMMON   BANK0   BANK1   BANK2   BANK3   BANK4
  7951 ;;      Params:         0       0       0       0       0       0
  7952 ;;      Locals:         0       0       0       0       0       0
  7953 ;;      Temps:          1       0       0       0       0       0
  7954 ;;      Totals:         1       0       0       0       0       0
  7955 ;;Total ram usage:        1 bytes
  7956 ;; Hardware stack levels used:    1
  7957 ;; This function calls:
  7958 ;;		Nothing
  7959 ;; This function is called by:
  7960 ;;		_main
  7961 ;;		_IOCBF4_ISR
  7962 ;; This function uses a non-reentrant model
  7963 ;;
  7964                           
  7965                           
  7966                           ;psect for function _sensor3
  7967  0E3D                     _sensor3:
  7968  0E3D                     i1l2008:	
  7969                           ;incstack = 0
  7970                           ; Regs used in _sensor3: [wreg]
  7971                           
  7972                           
  7973                           ;main.c: 76:         and_ating=2;
  7974  0E3D  3002               	movlw	2
  7975  0E3E  00F0               	movwf	??_sensor3
  7976  0E3F  0870               	movf	??_sensor3,w
  7977  0E40  0021               	movlb	1	; select bank1
  7978  0E41  00A9               	movwf	_and_ating^(0+128)
  7979  0E42                     i1l546:
  7980  0E42  0008               	return
  7981  0E43                     __end_of_sensor3:
  7982                           
  7983                           	psect	text46
  7984  0EF6                     __ptext46:	
  7985 ;; *************** function _IOCBF3_ISR *****************
  7986 ;; Defined at:
  7987 ;;		line 192 in file "mcc_generated_files/pin_manager.c"
  7988 ;; Parameters:    Size  Location     Type
  7989 ;;		None
  7990 ;; Auto vars:     Size  Location     Type
  7991 ;;		None
  7992 ;; Return value:  Size  Location     Type
  7993 ;;                  1    wreg      void 
  7994 ;; Registers used:
  7995 ;;		wreg, status,2, status,0, pclath, cstack
  7996 ;; Tracked objects:
  7997 ;;		On entry : 0/0
  7998 ;;		On exit  : 0/0
  7999 ;;		Unchanged: 0/0
  8000 ;; Data sizes:     COMMON   BANK0   BANK1   BANK2   BANK3   BANK4
  8001 ;;      Params:         0       0       0       0       0       0
  8002 ;;      Locals:         0       0       0       0       0       0
  8003 ;;      Temps:          0       0       0       0       0       0
  8004 ;;      Totals:         0       0       0       0       0       0
  8005 ;;Total ram usage:        0 bytes
  8006 ;; Hardware stack levels used:    1
  8007 ;; Hardware stack levels required when called:    1
  8008 ;; This function calls:
  8009 ;;		Absolute function
  8010 ;;		_IOCBF3_DefaultInterruptHandler
  8011 ;;		_sensor2
  8012 ;; This function is called by:
  8013 ;;		_PIN_MANAGER_IOC
  8014 ;; This function uses a non-reentrant model
  8015 ;;
  8016                           
  8017                           
  8018                           ;psect for function _IOCBF3_ISR
  8019  0EF6                     _IOCBF3_ISR:
  8020  0EF6                     i1l2142:	
  8021                           ;incstack = 0
  8022                           ; Regs used in _IOCBF3_ISR: [wreg+status,2+status,0+pclath+cstack]
  8023                           
  8024                           
  8025                           ;mcc_generated_files/pin_manager.c: 197:     if(IOCBF3_InterruptHandler)
  8026  0EF6  0020               	movlb	0	; select bank0
  8027  0EF7  0869               	movf	_IOCBF3_InterruptHandler,w
  8028  0EF8  046A               	iorwf	_IOCBF3_InterruptHandler+1,w
  8029  0EF9  1903               	btfsc	3,2
  8030  0EFA  2EFC               	goto	u124_21
  8031  0EFB  2EFD               	goto	u124_20
  8032  0EFC                     u124_21:
  8033  0EFC  2F02               	goto	i1l2146
  8034  0EFD                     u124_20:
  8035  0EFD                     i1l2144:
  8036                           
  8037                           ;mcc_generated_files/pin_manager.c: 198:     {;mcc_generated_files/pin_manager.c: 199:  
      +                                 IOCBF3_InterruptHandler();
  8038  0EFD  086A               	movf	_IOCBF3_InterruptHandler+1,w
  8039  0EFE  008A               	movwf	10
  8040  0EFF  0869               	movf	_IOCBF3_InterruptHandler,w
  8041  0F00  000A               	callw
  8042  0F01  318E               	pagesel	$
  8043  0F02                     i1l2146:
  8044                           
  8045                           ;mcc_generated_files/pin_manager.c: 201:     IOCBFbits.IOCBF3 = 0;
  8046  0F02  0027               	movlb	7	; select bank7
  8047  0F03  1196               	bcf	22,3	;volatile
  8048  0F04                     i1l435:
  8049  0F04  0008               	return
  8050  0F05                     __end_of_IOCBF3_ISR:
  8051                           
  8052                           	psect	text47
  8053  0E2A                     __ptext47:	
  8054 ;; *************** function _IOCBF3_DefaultInterruptHandler *****************
  8055 ;; Defined at:
  8056 ;;		line 214 in file "mcc_generated_files/pin_manager.c"
  8057 ;; Parameters:    Size  Location     Type
  8058 ;;		None
  8059 ;; Auto vars:     Size  Location     Type
  8060 ;;		None
  8061 ;; Return value:  Size  Location     Type
  8062 ;;                  1    wreg      void 
  8063 ;; Registers used:
  8064 ;;		None
  8065 ;; Tracked objects:
  8066 ;;		On entry : 0/0
  8067 ;;		On exit  : 0/0
  8068 ;;		Unchanged: 0/0
  8069 ;; Data sizes:     COMMON   BANK0   BANK1   BANK2   BANK3   BANK4
  8070 ;;      Params:         0       0       0       0       0       0
  8071 ;;      Locals:         0       0       0       0       0       0
  8072 ;;      Temps:          0       0       0       0       0       0
  8073 ;;      Totals:         0       0       0       0       0       0
  8074 ;;Total ram usage:        0 bytes
  8075 ;; Hardware stack levels used:    1
  8076 ;; This function calls:
  8077 ;;		Nothing
  8078 ;; This function is called by:
  8079 ;;		_PIN_MANAGER_Initialize
  8080 ;;		_IOCBF3_ISR
  8081 ;; This function uses a non-reentrant model
  8082 ;;
  8083                           
  8084                           
  8085                           ;psect for function _IOCBF3_DefaultInterruptHandler
  8086  0E2A                     _IOCBF3_DefaultInterruptHandler:
  8087  0E2A                     i1l441:	
  8088                           ;incstack = 0
  8089                           ; Regs used in _IOCBF3_DefaultInterruptHandler: []
  8090                           
  8091  0E2A  0008               	return
  8092  0E2B                     __end_of_IOCBF3_DefaultInterruptHandler:
  8093                           
  8094                           	psect	text48
  8095  0E30                     __ptext48:	
  8096 ;; *************** function _sensor2 *****************
  8097 ;; Defined at:
  8098 ;;		line 69 in file "main.c"
  8099 ;; Parameters:    Size  Location     Type
  8100 ;;		None
  8101 ;; Auto vars:     Size  Location     Type
  8102 ;;		None
  8103 ;; Return value:  Size  Location     Type
  8104 ;;                  1    wreg      void 
  8105 ;; Registers used:
  8106 ;;		None
  8107 ;; Tracked objects:
  8108 ;;		On entry : 0/0
  8109 ;;		On exit  : 0/0
  8110 ;;		Unchanged: 0/0
  8111 ;; Data sizes:     COMMON   BANK0   BANK1   BANK2   BANK3   BANK4
  8112 ;;      Params:         0       0       0       0       0       0
  8113 ;;      Locals:         0       0       0       0       0       0
  8114 ;;      Temps:          0       0       0       0       0       0
  8115 ;;      Totals:         0       0       0       0       0       0
  8116 ;;Total ram usage:        0 bytes
  8117 ;; Hardware stack levels used:    1
  8118 ;; This function calls:
  8119 ;;		Nothing
  8120 ;; This function is called by:
  8121 ;;		_main
  8122 ;;		_IOCBF3_ISR
  8123 ;; This function uses a non-reentrant model
  8124 ;;
  8125                           
  8126                           
  8127                           ;psect for function _sensor2
  8128  0E30                     _sensor2:
  8129  0E30                     i1l2006:	
  8130                           ;incstack = 0
  8131                           ; Regs used in _sensor2: []
  8132                           
  8133                           
  8134                           ;main.c: 71:         and_ating=1;
  8135  0E30  0021               	movlb	1	; select bank1
  8136  0E31  01A9               	clrf	_and_ating^(0+128)
  8137  0E32  0AA9               	incf	_and_ating^(0+128),f
  8138  0E33                     i1l543:
  8139  0E33  0008               	return
  8140  0E34                     __end_of_sensor2:
  8141                           
  8142                           	psect	text49
  8143  0EE7                     __ptext49:	
  8144 ;; *************** function _IOCBF0_ISR *****************
  8145 ;; Defined at:
  8146 ;;		line 162 in file "mcc_generated_files/pin_manager.c"
  8147 ;; Parameters:    Size  Location     Type
  8148 ;;		None
  8149 ;; Auto vars:     Size  Location     Type
  8150 ;;		None
  8151 ;; Return value:  Size  Location     Type
  8152 ;;                  1    wreg      void 
  8153 ;; Registers used:
  8154 ;;		wreg, status,2, status,0, pclath, cstack
  8155 ;; Tracked objects:
  8156 ;;		On entry : 0/0
  8157 ;;		On exit  : 0/0
  8158 ;;		Unchanged: 0/0
  8159 ;; Data sizes:     COMMON   BANK0   BANK1   BANK2   BANK3   BANK4
  8160 ;;      Params:         0       0       0       0       0       0
  8161 ;;      Locals:         0       0       0       0       0       0
  8162 ;;      Temps:          0       0       0       0       0       0
  8163 ;;      Totals:         0       0       0       0       0       0
  8164 ;;Total ram usage:        0 bytes
  8165 ;; Hardware stack levels used:    1
  8166 ;; Hardware stack levels required when called:    1
  8167 ;; This function calls:
  8168 ;;		Absolute function
  8169 ;;		_IOCBF0_DefaultInterruptHandler
  8170 ;;		_sensor1
  8171 ;; This function is called by:
  8172 ;;		_PIN_MANAGER_IOC
  8173 ;; This function uses a non-reentrant model
  8174 ;;
  8175                           
  8176                           
  8177                           ;psect for function _IOCBF0_ISR
  8178  0EE7                     _IOCBF0_ISR:
  8179  0EE7                     i1l2136:	
  8180                           ;incstack = 0
  8181                           ; Regs used in _IOCBF0_ISR: [wreg+status,2+status,0+pclath+cstack]
  8182                           
  8183                           
  8184                           ;mcc_generated_files/pin_manager.c: 167:     if(IOCBF0_InterruptHandler)
  8185  0EE7  0020               	movlb	0	; select bank0
  8186  0EE8  086B               	movf	_IOCBF0_InterruptHandler,w
  8187  0EE9  046C               	iorwf	_IOCBF0_InterruptHandler+1,w
  8188  0EEA  1903               	btfsc	3,2
  8189  0EEB  2EED               	goto	u123_21
  8190  0EEC  2EEE               	goto	u123_20
  8191  0EED                     u123_21:
  8192  0EED  2EF3               	goto	i1l2140
  8193  0EEE                     u123_20:
  8194  0EEE                     i1l2138:
  8195                           
  8196                           ;mcc_generated_files/pin_manager.c: 168:     {;mcc_generated_files/pin_manager.c: 169:  
      +                                 IOCBF0_InterruptHandler();
  8197  0EEE  086C               	movf	_IOCBF0_InterruptHandler+1,w
  8198  0EEF  008A               	movwf	10
  8199  0EF0  086B               	movf	_IOCBF0_InterruptHandler,w
  8200  0EF1  000A               	callw
  8201  0EF2  318E               	pagesel	$
  8202  0EF3                     i1l2140:
  8203                           
  8204                           ;mcc_generated_files/pin_manager.c: 171:     IOCBFbits.IOCBF0 = 0;
  8205  0EF3  0027               	movlb	7	; select bank7
  8206  0EF4  1016               	bcf	22,0	;volatile
  8207  0EF5                     i1l425:
  8208  0EF5  0008               	return
  8209  0EF6                     __end_of_IOCBF0_ISR:
  8210                           
  8211                           	psect	text50
  8212  0E29                     __ptext50:	
  8213 ;; *************** function _IOCBF0_DefaultInterruptHandler *****************
  8214 ;; Defined at:
  8215 ;;		line 184 in file "mcc_generated_files/pin_manager.c"
  8216 ;; Parameters:    Size  Location     Type
  8217 ;;		None
  8218 ;; Auto vars:     Size  Location     Type
  8219 ;;		None
  8220 ;; Return value:  Size  Location     Type
  8221 ;;                  1    wreg      void 
  8222 ;; Registers used:
  8223 ;;		None
  8224 ;; Tracked objects:
  8225 ;;		On entry : 0/0
  8226 ;;		On exit  : 0/0
  8227 ;;		Unchanged: 0/0
  8228 ;; Data sizes:     COMMON   BANK0   BANK1   BANK2   BANK3   BANK4
  8229 ;;      Params:         0       0       0       0       0       0
  8230 ;;      Locals:         0       0       0       0       0       0
  8231 ;;      Temps:          0       0       0       0       0       0
  8232 ;;      Totals:         0       0       0       0       0       0
  8233 ;;Total ram usage:        0 bytes
  8234 ;; Hardware stack levels used:    1
  8235 ;; This function calls:
  8236 ;;		Nothing
  8237 ;; This function is called by:
  8238 ;;		_PIN_MANAGER_Initialize
  8239 ;;		_IOCBF0_ISR
  8240 ;; This function uses a non-reentrant model
  8241 ;;
  8242                           
  8243                           
  8244                           ;psect for function _IOCBF0_DefaultInterruptHandler
  8245  0E29                     _IOCBF0_DefaultInterruptHandler:
  8246  0E29                     i1l431:	
  8247                           ;incstack = 0
  8248                           ; Regs used in _IOCBF0_DefaultInterruptHandler: []
  8249                           
  8250  0E29  0008               	return
  8251  0E2A                     __end_of_IOCBF0_DefaultInterruptHandler:
  8252                           
  8253                           	psect	text51
  8254  0E2D                     __ptext51:	
  8255 ;; *************** function _sensor1 *****************
  8256 ;; Defined at:
  8257 ;;		line 64 in file "main.c"
  8258 ;; Parameters:    Size  Location     Type
  8259 ;;		None
  8260 ;; Auto vars:     Size  Location     Type
  8261 ;;		None
  8262 ;; Return value:  Size  Location     Type
  8263 ;;                  1    wreg      void 
  8264 ;; Registers used:
  8265 ;;		status,2
  8266 ;; Tracked objects:
  8267 ;;		On entry : 0/0
  8268 ;;		On exit  : 0/0
  8269 ;;		Unchanged: 0/0
  8270 ;; Data sizes:     COMMON   BANK0   BANK1   BANK2   BANK3   BANK4
  8271 ;;      Params:         0       0       0       0       0       0
  8272 ;;      Locals:         0       0       0       0       0       0
  8273 ;;      Temps:          0       0       0       0       0       0
  8274 ;;      Totals:         0       0       0       0       0       0
  8275 ;;Total ram usage:        0 bytes
  8276 ;; Hardware stack levels used:    1
  8277 ;; This function calls:
  8278 ;;		Nothing
  8279 ;; This function is called by:
  8280 ;;		_main
  8281 ;;		_IOCBF0_ISR
  8282 ;; This function uses a non-reentrant model
  8283 ;;
  8284                           
  8285                           
  8286                           ;psect for function _sensor1
  8287  0E2D                     _sensor1:
  8288  0E2D                     i1l2004:	
  8289                           ;incstack = 0
  8290                           ; Regs used in _sensor1: [status,2]
  8291                           
  8292                           
  8293                           ;main.c: 66:         and_ating=0;
  8294  0E2D  0021               	movlb	1	; select bank1
  8295  0E2E  01A9               	clrf	_and_ating^(0+128)
  8296  0E2F                     i1l540:
  8297  0E2F  0008               	return
  8298  0E30                     __end_of_sensor1:
  8299                           
  8300                           	psect	text52
  8301  07E6                     __ptext52:	
  8302 ;; *************** function _CCP4_CaptureISR *****************
  8303 ;; Defined at:
  8304 ;;		line 89 in file "mcc_generated_files/ccp4.c"
  8305 ;; Parameters:    Size  Location     Type
  8306 ;;		None
  8307 ;; Auto vars:     Size  Location     Type
  8308 ;;  module          2    5[COMMON] struct CCPR4Reg_tag
  8309 ;; Return value:  Size  Location     Type
  8310 ;;                  1    wreg      void 
  8311 ;; Registers used:
  8312 ;;		wreg, status,2, status,0, pclath, cstack
  8313 ;; Tracked objects:
  8314 ;;		On entry : 0/0
  8315 ;;		On exit  : 0/0
  8316 ;;		Unchanged: 0/0
  8317 ;; Data sizes:     COMMON   BANK0   BANK1   BANK2   BANK3   BANK4
  8318 ;;      Params:         0       0       0       0       0       0
  8319 ;;      Locals:         2       0       0       0       0       0
  8320 ;;      Temps:          1       0       0       0       0       0
  8321 ;;      Totals:         3       0       0       0       0       0
  8322 ;;Total ram usage:        3 bytes
  8323 ;; Hardware stack levels used:    1
  8324 ;; Hardware stack levels required when called:    2
  8325 ;; This function calls:
  8326 ;;		Absolute function
  8327 ;;		_CCP4_DefaultCallBack
  8328 ;;		_get_pulse
  8329 ;; This function is called by:
  8330 ;;		_INTERRUPT_InterruptManager
  8331 ;; This function uses a non-reentrant model
  8332 ;;
  8333                           
  8334                           
  8335                           ;psect for function _CCP4_CaptureISR
  8336  07E6                     _CCP4_CaptureISR:
  8337  07E6                     i1l2564:	
  8338                           ;incstack = 0
  8339                           ; Regs used in _CCP4_CaptureISR: [wreg+status,2+status,0+pclath+cstack]
  8340                           
  8341                           
  8342                           ;mcc_generated_files/ccp4.c: 91:     CCP4_PERIOD_REG_T module;;mcc_generated_files/ccp4.
      +                          c: 94:     PIR3bits.CCP4IF = 0;
  8343  07E6  0020               	movlb	0	; select bank0
  8344  07E7  1293               	bcf	19,5	;volatile
  8345  07E8                     i1l2566:
  8346                           
  8347                           ;mcc_generated_files/ccp4.c: 97:     module.ccpr4l = CCPR4L;
  8348  07E8  0026               	movlb	6	; select bank6
  8349  07E9  0818               	movf	24,w	;volatile
  8350  07EA  00F4               	movwf	??_CCP4_CaptureISR
  8351  07EB  0874               	movf	??_CCP4_CaptureISR,w
  8352  07EC  00F5               	movwf	CCP4_CaptureISR@module
  8353                           
  8354                           ;mcc_generated_files/ccp4.c: 98:     module.ccpr4h = CCPR4H;
  8355  07ED  0819               	movf	25,w	;volatile
  8356  07EE  00F4               	movwf	??_CCP4_CaptureISR
  8357  07EF  0874               	movf	??_CCP4_CaptureISR,w
  8358  07F0  00F6               	movwf	CCP4_CaptureISR@module+1
  8359  07F1                     i1l2568:
  8360                           
  8361                           ;mcc_generated_files/ccp4.c: 101:     CCP4_CallBack(module.ccpr4_16Bit);
  8362  07F1  0876               	movf	CCP4_CaptureISR@module+1,w
  8363  07F2  00F3               	movwf	get_pulse@capturedValue+1
  8364  07F3  0875               	movf	CCP4_CaptureISR@module,w
  8365  07F4  00F2               	movwf	get_pulse@capturedValue
  8366  07F5  0021               	movlb	1	; select bank1
  8367  07F6  083C               	movf	(_CCP4_CallBack+1)^(0+128),w
  8368  07F7  008A               	movwf	10
  8369  07F8  083B               	movf	_CCP4_CallBack^(0+128),w
  8370  07F9  000A               	callw
  8371  07FA  3187               	pagesel	$
  8372  07FB                     i1l346:
  8373  07FB  0008               	return
  8374  07FC                     __end_of_CCP4_CaptureISR:
  8375                           
  8376                           	psect	text53
  8377  0E28                     __ptext53:	
  8378 ;; *************** function _CCP4_DefaultCallBack *****************
  8379 ;; Defined at:
  8380 ;;		line 60 in file "mcc_generated_files/ccp4.c"
  8381 ;; Parameters:    Size  Location     Type
  8382 ;;  capturedValu    2    2[COMMON] unsigned short 
  8383 ;; Auto vars:     Size  Location     Type
  8384 ;;		None
  8385 ;; Return value:  Size  Location     Type
  8386 ;;                  1    wreg      void 
  8387 ;; Registers used:
  8388 ;;		None
  8389 ;; Tracked objects:
  8390 ;;		On entry : 0/0
  8391 ;;		On exit  : 0/0
  8392 ;;		Unchanged: 0/0
  8393 ;; Data sizes:     COMMON   BANK0   BANK1   BANK2   BANK3   BANK4
  8394 ;;      Params:         2       0       0       0       0       0
  8395 ;;      Locals:         0       0       0       0       0       0
  8396 ;;      Temps:          0       0       0       0       0       0
  8397 ;;      Totals:         2       0       0       0       0       0
  8398 ;;Total ram usage:        2 bytes
  8399 ;; Hardware stack levels used:    1
  8400 ;; This function calls:
  8401 ;;		Nothing
  8402 ;; This function is called by:
  8403 ;;		_CCP4_Initialize
  8404 ;;		_CCP4_CaptureISR
  8405 ;; This function uses a non-reentrant model
  8406 ;;
  8407                           
  8408                           
  8409                           ;psect for function _CCP4_DefaultCallBack
  8410  0E28                     _CCP4_DefaultCallBack:
  8411  0E28                     i1l340:	
  8412                           ;incstack = 0
  8413                           ; Regs used in _CCP4_DefaultCallBack: []
  8414                           
  8415  0E28  0008               	return
  8416  0E29                     __end_of_CCP4_DefaultCallBack:
  8417                           
  8418                           	psect	text54
  8419  0EC1                     __ptext54:	
  8420 ;; *************** function _get_pulse *****************
  8421 ;; Defined at:
  8422 ;;		line 84 in file "main.c"
  8423 ;; Parameters:    Size  Location     Type
  8424 ;;  capturedValu    2    2[COMMON] unsigned short 
  8425 ;; Auto vars:     Size  Location     Type
  8426 ;;		None
  8427 ;; Return value:  Size  Location     Type
  8428 ;;                  1    wreg      void 
  8429 ;; Registers used:
  8430 ;;		wreg, status,2, status,0, pclath, cstack
  8431 ;; Tracked objects:
  8432 ;;		On entry : 0/0
  8433 ;;		On exit  : 0/0
  8434 ;;		Unchanged: 0/0
  8435 ;; Data sizes:     COMMON   BANK0   BANK1   BANK2   BANK3   BANK4
  8436 ;;      Params:         2       0       0       0       0       0
  8437 ;;      Locals:         0       0       0       0       0       0
  8438 ;;      Temps:          0       0       0       0       0       0
  8439 ;;      Totals:         2       0       0       0       0       0
  8440 ;;Total ram usage:        2 bytes
  8441 ;; Hardware stack levels used:    1
  8442 ;; Hardware stack levels required when called:    1
  8443 ;; This function calls:
  8444 ;;		_TMR1_WriteTimer
  8445 ;; This function is called by:
  8446 ;;		_main
  8447 ;;		_CCP4_CaptureISR
  8448 ;; This function uses a non-reentrant model
  8449 ;;
  8450                           
  8451                           
  8452                           ;psect for function _get_pulse
  8453  0EC1                     _get_pulse:
  8454  0EC1                     i1l2176:	
  8455                           ;incstack = 0
  8456                           ; Regs used in _get_pulse: [wreg+status,2+status,0+pclath+cstack]
  8457                           
  8458                           
  8459                           ;main.c: 84: void get_pulse(uint16_t capturedValue);main.c: 85:     {;main.c: 86:       
      +                            TMR1_WriteTimer(0);
  8460  0EC1  3000               	movlw	0
  8461  0EC2  00F0               	movwf	TMR1_WriteTimer@timerVal
  8462  0EC3  00F1               	movwf	TMR1_WriteTimer@timerVal+1
  8463  0EC4  318F  2741  318E   	fcall	_TMR1_WriteTimer
  8464  0EC7                     i1l2178:
  8465                           
  8466                           ;main.c: 87:         ccp_value = capturedValue;
  8467  0EC7  0873               	movf	get_pulse@capturedValue+1,w
  8468  0EC8  0021               	movlb	1	; select bank1
  8469  0EC9  00B4               	movwf	(_ccp_value+1)^(0+128)
  8470  0ECA  0872               	movf	get_pulse@capturedValue,w
  8471  0ECB  00B3               	movwf	_ccp_value^(0+128)
  8472  0ECC                     i1l552:
  8473  0ECC  0008               	return
  8474  0ECD                     __end_of_get_pulse:
  8475                           
  8476                           	psect	text55
  8477  0F41                     __ptext55:	
  8478 ;; *************** function _TMR1_WriteTimer *****************
  8479 ;; Defined at:
  8480 ;;		line 113 in file "mcc_generated_files/tmr1.c"
  8481 ;; Parameters:    Size  Location     Type
  8482 ;;  timerVal        2    0[COMMON] unsigned short 
  8483 ;; Auto vars:     Size  Location     Type
  8484 ;;		None
  8485 ;; Return value:  Size  Location     Type
  8486 ;;                  1    wreg      void 
  8487 ;; Registers used:
  8488 ;;		wreg, status,2
  8489 ;; Tracked objects:
  8490 ;;		On entry : 0/0
  8491 ;;		On exit  : 0/0
  8492 ;;		Unchanged: 0/0
  8493 ;; Data sizes:     COMMON   BANK0   BANK1   BANK2   BANK3   BANK4
  8494 ;;      Params:         2       0       0       0       0       0
  8495 ;;      Locals:         0       0       0       0       0       0
  8496 ;;      Temps:          0       0       0       0       0       0
  8497 ;;      Totals:         2       0       0       0       0       0
  8498 ;;Total ram usage:        2 bytes
  8499 ;; Hardware stack levels used:    1
  8500 ;; This function calls:
  8501 ;;		Nothing
  8502 ;; This function is called by:
  8503 ;;		_get_pulse
  8504 ;;		_TMR1_Reload
  8505 ;; This function uses a non-reentrant model
  8506 ;;
  8507                           
  8508                           
  8509                           ;psect for function _TMR1_WriteTimer
  8510  0F41                     _TMR1_WriteTimer:
  8511  0F41                     i1l1978:	
  8512                           ;incstack = 0
  8513                           ; Regs used in _TMR1_WriteTimer: [wreg+status,2]
  8514                           
  8515                           
  8516                           ;mcc_generated_files/tmr1.c: 113: void TMR1_WriteTimer(uint16_t timerVal);mcc_generated_
      +                          files/tmr1.c: 114: {;mcc_generated_files/tmr1.c: 115:     if (T1CONbits.nT1SYNC == 1)
  8517  0F41  0020               	movlb	0	; select bank0
  8518  0F42  1D18               	btfss	24,2	;volatile
  8519  0F43  2F45               	goto	u116_21
  8520  0F44  2F46               	goto	u116_20
  8521  0F45                     u116_21:
  8522  0F45  2F4D               	goto	i1l1988
  8523  0F46                     u116_20:
  8524  0F46                     i1l1980:
  8525                           
  8526                           ;mcc_generated_files/tmr1.c: 116:     {;mcc_generated_files/tmr1.c: 118:         T1CONbi
      +                          ts.TMR1ON = 0;
  8527  0F46  1018               	bcf	24,0	;volatile
  8528  0F47                     i1l1982:
  8529                           
  8530                           ;mcc_generated_files/tmr1.c: 121:         TMR1H = (timerVal >> 8);
  8531  0F47  0871               	movf	TMR1_WriteTimer@timerVal+1,w
  8532  0F48  0097               	movwf	23	;volatile
  8533  0F49                     i1l1984:
  8534                           
  8535                           ;mcc_generated_files/tmr1.c: 122:         TMR1L = timerVal;
  8536  0F49  0870               	movf	TMR1_WriteTimer@timerVal,w
  8537  0F4A  0096               	movwf	22	;volatile
  8538  0F4B                     i1l1986:
  8539                           
  8540                           ;mcc_generated_files/tmr1.c: 125:         T1CONbits.TMR1ON =1;
  8541  0F4B  1418               	bsf	24,0	;volatile
  8542                           
  8543                           ;mcc_generated_files/tmr1.c: 126:     }
  8544  0F4C  2F51               	goto	i1l160
  8545  0F4D                     i1l1988:
  8546                           
  8547                           ;mcc_generated_files/tmr1.c: 128:     {;mcc_generated_files/tmr1.c: 130:         TMR1H =
      +                           (timerVal >> 8);
  8548  0F4D  0871               	movf	TMR1_WriteTimer@timerVal+1,w
  8549  0F4E  0097               	movwf	23	;volatile
  8550  0F4F                     i1l1990:
  8551                           
  8552                           ;mcc_generated_files/tmr1.c: 131:         TMR1L = timerVal;
  8553  0F4F  0870               	movf	TMR1_WriteTimer@timerVal,w
  8554  0F50  0096               	movwf	22	;volatile
  8555  0F51                     i1l160:
  8556  0F51  0008               	return
  8557  0F52                     __end_of_TMR1_WriteTimer:
  8558  007E                     btemp	set	126	;btemp
  8559  007E                     int$flags	set	126
  8560  007E                     wtemp0	set	126
  8561                           
  8562                           	psect	config
  8563                           
  8564                           ;Config register CONFIG1 @ 0x8007
  8565                           ;	Oscillator Selection
  8566                           ;	FOSC = INTOSC, INTOSC oscillator: I/O function on CLKIN pin
  8567                           ;	Watchdog Timer Enable
  8568                           ;	WDTE = OFF, WDT disabled
  8569                           ;	Power-up Timer Enable
  8570                           ;	PWRTE = OFF, PWRT disabled
  8571                           ;	MCLR Pin Function Select
  8572                           ;	MCLRE = ON, MCLR/VPP pin function is MCLR
  8573                           ;	Flash Program Memory Code Protection
  8574                           ;	CP = OFF, Program memory code protection is disabled
  8575                           ;	Data Memory Code Protection
  8576                           ;	CPD = OFF, Data memory code protection is disabled
  8577                           ;	Brown-out Reset Enable
  8578                           ;	BOREN = ON, Brown-out Reset enabled
  8579                           ;	Clock Out Enable
  8580                           ;	CLKOUTEN = OFF, CLKOUT function is disabled. I/O or oscillator function on the CLKOUT 
      +                          pin
  8581                           ;	Internal/External Switchover
  8582                           ;	IESO = ON, Internal/External Switchover mode is enabled
  8583                           ;	Fail-Safe Clock Monitor Enable
  8584                           ;	FCMEN = ON, Fail-Safe Clock Monitor is enabled
  8585  8007                     	org	32775
  8586  8007  3FE4               	dw	16356
  8587                           
  8588                           ;Config register CONFIG2 @ 0x8008
  8589                           ;	Flash Memory Self-Write Protection
  8590                           ;	WRT = OFF, Write protection off
  8591                           ;	PLL Enable
  8592                           ;	PLLEN = OFF, 4x PLL disabled
  8593                           ;	Stack Overflow/Underflow Reset Enable
  8594                           ;	STVREN = ON, Stack Overflow or Underflow will cause a Reset
  8595                           ;	Brown-out Reset Voltage Selection
  8596                           ;	BORV = LO, Brown-out Reset Voltage (Vbor), low trip point selected.
  8597                           ;	Low-Voltage Programming Enable
  8598                           ;	LVP = ON, Low-voltage programming enabled
  8599  8008                     	org	32776
  8600  8008  3EFF               	dw	16127

Data Sizes:
    Strings     0
    Constant    0
    Data        0
    BSS         28
    Persistent  52
    Stack       0

Auto Spaces:
    Space          Size  Autos    Used
    COMMON           14      7      13
    BANK0            80     73      80
    BANK1            80      9      44
    BANK2            80      0       0
    BANK3            80      0       0
    BANK4            48      0       0

Pointer List with Targets:

    ADC_InterruptHandler	PTR FTN()void  size(2) Largest target is 1
		 -> Absolute function(), 

    IOCBF5_SetInterruptHandler@InterruptHandler	PTR FTN()void  size(2) Largest target is 1
		 -> sensor4(), IOCBF5_DefaultInterruptHandler(), 

    IOCBF5_InterruptHandler	PTR FTN()void  size(2) Largest target is 1
		 -> sensor4(), IOCBF5_DefaultInterruptHandler(), Absolute function(), 

    IOCBF4_SetInterruptHandler@InterruptHandler	PTR FTN()void  size(2) Largest target is 1
		 -> sensor3(), IOCBF4_DefaultInterruptHandler(), 

    IOCBF4_InterruptHandler	PTR FTN()void  size(2) Largest target is 1
		 -> sensor3(), IOCBF4_DefaultInterruptHandler(), Absolute function(), 

    IOCBF3_SetInterruptHandler@InterruptHandler	PTR FTN()void  size(2) Largest target is 1
		 -> sensor2(), IOCBF3_DefaultInterruptHandler(), 

    IOCBF3_InterruptHandler	PTR FTN()void  size(2) Largest target is 1
		 -> sensor2(), IOCBF3_DefaultInterruptHandler(), Absolute function(), 

    IOCBF0_SetInterruptHandler@InterruptHandler	PTR FTN()void  size(2) Largest target is 1
		 -> sensor1(), IOCBF0_DefaultInterruptHandler(), 

    IOCBF0_InterruptHandler	PTR FTN()void  size(2) Largest target is 1
		 -> sensor1(), IOCBF0_DefaultInterruptHandler(), Absolute function(), 

    CCP4_SetCallBack@customCallBack	PTR FTN(unsigned short ,)void  size(2) Largest target is 1
		 -> get_pulse(), CCP4_DefaultCallBack(), 

    CCP4_CallBack	PTR FTN(unsigned short ,)void  size(2) Largest target is 1
		 -> get_pulse(), CCP4_DefaultCallBack(), Absolute function(), 

    TMR4_SetInterruptHandler@InterruptHandler	PTR FTN()void  size(2) Largest target is 1
		 -> send_data(), TMR4_DefaultInterruptHandler(), 

    TMR4_InterruptHandler	PTR FTN()void  size(2) Largest target is 1
		 -> send_data(), Absolute function(), TMR4_DefaultInterruptHandler(), 

    EUSART_SetErrorHandler@interruptHandler	PTR FTN()void  size(2) Largest target is 1
		 -> EUSART_DefaultErrorHandler(), 

    EUSART_ErrorHandler	PTR FTN()void  size(2) Largest target is 1
		 -> Absolute function(), EUSART_DefaultErrorHandler(), 

    EUSART_SetOverrunErrorHandler@interruptHandler	PTR FTN()void  size(2) Largest target is 1
		 -> EUSART_DefaultOverrunErrorHandler(), 

    EUSART_OverrunErrorHandler	PTR FTN()void  size(2) Largest target is 1
		 -> Absolute function(), EUSART_DefaultOverrunErrorHandler(), 

    EUSART_SetFramingErrorHandler@interruptHandler	PTR FTN()void  size(2) Largest target is 1
		 -> EUSART_DefaultFramingErrorHandler(), 

    EUSART_FramingErrorHandler	PTR FTN()void  size(2) Largest target is 1
		 -> Absolute function(), EUSART_DefaultFramingErrorHandler(), 


Critical Paths under _main in COMMON

    None.

Critical Paths under _INTERRUPT_InterruptManager in COMMON

    _INTERRUPT_InterruptManager->_CCP4_CaptureISR
    _TMR4_ISR->_send_data
    _send_data->_EUSART_Write
    _send_data->_EUSART_is_tx_ready
    _IOCBF5_ISR->_sensor4
    _IOCBF4_ISR->_sensor3
    _CCP4_CaptureISR->_CCP4_DefaultCallBack
    _CCP4_CaptureISR->_get_pulse
    _get_pulse->_TMR1_WriteTimer

Critical Paths under _main in BANK0

    _main->_comunicacao
    _controle->___flmul
    _comunicacao->___fldiv
    ___xxtofl->_ADC_GetConversion
    ___flmul->___xxtofl
    ___fldiv->___flmul
    _TMR4_Initialize->_TMR4_SetInterruptHandler
    _PIN_MANAGER_Initialize->_IOCBF0_SetInterruptHandler
    _PIN_MANAGER_Initialize->_IOCBF3_SetInterruptHandler
    _PIN_MANAGER_Initialize->_IOCBF4_SetInterruptHandler
    _PIN_MANAGER_Initialize->_IOCBF5_SetInterruptHandler
    _EUSART_Initialize->_EUSART_SetErrorHandler
    _EUSART_Initialize->_EUSART_SetFramingErrorHandler
    _EUSART_Initialize->_EUSART_SetOverrunErrorHandler
    _CCP4_Initialize->_CCP4_SetCallBack

Critical Paths under _INTERRUPT_InterruptManager in BANK0

    None.

Critical Paths under _main in BANK1

    _main->_comunicacao

Critical Paths under _INTERRUPT_InterruptManager in BANK1

    None.

Critical Paths under _main in BANK2

    None.

Critical Paths under _INTERRUPT_InterruptManager in BANK2

    None.

Critical Paths under _main in BANK3

    None.

Critical Paths under _INTERRUPT_InterruptManager in BANK3

    None.

Critical Paths under _main in BANK4

    None.

Critical Paths under _INTERRUPT_InterruptManager in BANK4

    None.

Call Graph Tables:

 ---------------------------------------------------------------------------------
 (Depth) Function   	        Calls       Base Space   Used Autos Params    Refs
 ---------------------------------------------------------------------------------
 (0) _main                                                 0     0      0   11854
                   _CCP4_SetCallBack
         _IOCBF0_SetInterruptHandler
         _IOCBF3_SetInterruptHandler
         _IOCBF4_SetInterruptHandler
         _IOCBF5_SetInterruptHandler
                  _SYSTEM_Initialize
           _TMR4_SetInterruptHandler
                        _comunicacao
                           _controle
                      _gerenciamento
 ---------------------------------------------------------------------------------
 (1) _gerenciamento                                        0     0      0       0
 ---------------------------------------------------------------------------------
 (1) _controle                                             4     4      0    3521
                                             44 BANK0      4     4      0
                  _ADC_GetConversion
                            ___flmul
                           ___xxtofl
 ---------------------------------------------------------------------------------
 (2) _ADC_GetConversion                                    4     2      2      22
                                              0 BANK0      4     2      2
 ---------------------------------------------------------------------------------
 (1) _comunicacao                                         12    12      0    5438
                                             70 BANK0      3     3      0
                                              0 BANK1      9     9      0
                        _EUSART_Read
                 _EUSART_is_rx_ready
                            ___fldiv
                            ___flmul
                            ___fltol
                           ___xxtofl
 ---------------------------------------------------------------------------------
 (2) ___xxtofl                                            14    10      4     626
                                              4 BANK0     14    10      4
                  _ADC_GetConversion (ARG)
 ---------------------------------------------------------------------------------
 (2) ___fltol                                             11     7      4     533
                                              0 BANK0     11     7      4
 ---------------------------------------------------------------------------------
 (2) ___flmul                                             26    18      8    2873
                                             18 BANK0     26    18      8
                  _ADC_GetConversion (ARG)
                          __Umul8_16
                           ___xxtofl (ARG)
 ---------------------------------------------------------------------------------
 (3) __Umul8_16                                            9     7      2     799
                                              0 BANK0      9     7      2
 ---------------------------------------------------------------------------------
 (2) ___fldiv                                             26    18      8    1273
                                             44 BANK0     26    18      8
                            ___flmul (ARG)
                           ___xxtofl (ARG)
 ---------------------------------------------------------------------------------
 (2) _EUSART_is_rx_ready                                   0     0      0       0
 ---------------------------------------------------------------------------------
 (2) _EUSART_Read                                          0     0      0       0
 ---------------------------------------------------------------------------------
 (1) _SYSTEM_Initialize                                    0     0      0    1629
                     _ADC_Initialize
                    _CCP4_Initialize
                  _EUSART_Initialize
                     _FVR_Initialize
              _OSCILLATOR_Initialize
             _PIN_MANAGER_Initialize
                    _PWM3_Initialize
                    _TMR1_Initialize
                    _TMR2_Initialize
                    _TMR4_Initialize
                     _WDT_Initialize
 ---------------------------------------------------------------------------------
 (2) _WDT_Initialize                                       0     0      0       0
 ---------------------------------------------------------------------------------
 (2) _TMR4_Initialize                                      0     0      0     211
           _TMR4_SetInterruptHandler
 ---------------------------------------------------------------------------------
 (1) _TMR4_SetInterruptHandler                             2     0      2     211
                                              0 BANK0      2     0      2
 ---------------------------------------------------------------------------------
 (2) _TMR2_Initialize                                      0     0      0       0
 ---------------------------------------------------------------------------------
 (2) _TMR1_Initialize                                      0     0      0       0
 ---------------------------------------------------------------------------------
 (2) _PWM3_Initialize                                      0     0      0       0
 ---------------------------------------------------------------------------------
 (2) _PIN_MANAGER_Initialize                               0     0      0     844
         _IOCBF0_SetInterruptHandler
         _IOCBF3_SetInterruptHandler
         _IOCBF4_SetInterruptHandler
         _IOCBF5_SetInterruptHandler
 ---------------------------------------------------------------------------------
 (3) _IOCBF5_SetInterruptHandler                           2     0      2     211
                                              0 BANK0      2     0      2
 ---------------------------------------------------------------------------------
 (3) _IOCBF4_SetInterruptHandler                           2     0      2     211
                                              0 BANK0      2     0      2
 ---------------------------------------------------------------------------------
 (3) _IOCBF3_SetInterruptHandler                           2     0      2     211
                                              0 BANK0      2     0      2
 ---------------------------------------------------------------------------------
 (3) _IOCBF0_SetInterruptHandler                           2     0      2     211
                                              0 BANK0      2     0      2
 ---------------------------------------------------------------------------------
 (2) _OSCILLATOR_Initialize                                0     0      0       0
 ---------------------------------------------------------------------------------
 (2) _FVR_Initialize                                       0     0      0       0
 ---------------------------------------------------------------------------------
 (2) _EUSART_Initialize                                    0     0      0     363
             _EUSART_SetErrorHandler
      _EUSART_SetFramingErrorHandler
      _EUSART_SetOverrunErrorHandler
 ---------------------------------------------------------------------------------
 (3) _EUSART_SetOverrunErrorHandler                        2     0      2     121
                                              0 BANK0      2     0      2
 ---------------------------------------------------------------------------------
 (3) _EUSART_SetFramingErrorHandler                        2     0      2     121
                                              0 BANK0      2     0      2
 ---------------------------------------------------------------------------------
 (3) _EUSART_SetErrorHandler                               2     0      2     121
                                              0 BANK0      2     0      2
 ---------------------------------------------------------------------------------
 (2) _CCP4_Initialize                                      0     0      0     211
                   _CCP4_SetCallBack
 ---------------------------------------------------------------------------------
 (3) _CCP4_SetCallBack                                     2     0      2     211
                                              0 BANK0      2     0      2
 ---------------------------------------------------------------------------------
 (2) _ADC_Initialize                                       0     0      0       0
 ---------------------------------------------------------------------------------
 Estimated maximum stack depth 3
 ---------------------------------------------------------------------------------
 (Depth) Function   	        Calls       Base Space   Used Autos Params    Refs
 ---------------------------------------------------------------------------------
 (4) _INTERRUPT_InterruptManager                           0     0      0     454
                    _CCP4_CaptureISR
                    _PIN_MANAGER_IOC
                           _TMR4_ISR
 ---------------------------------------------------------------------------------
 (5) _TMR4_ISR                                             0     0      0      92
                   Absolute function *
       _TMR4_DefaultInterruptHandler *
                          _send_data *
 ---------------------------------------------------------------------------------
 (6) _send_data                                            3     3      0      92
                                              1 COMMON     3     3      0
                       _EUSART_Write
                 _EUSART_is_tx_ready
 ---------------------------------------------------------------------------------
 (7) _EUSART_is_tx_ready                                   1     1      0      24
                                              0 COMMON     1     1      0
 ---------------------------------------------------------------------------------
 (7) _EUSART_Write                                         1     1      0      22
                                              0 COMMON     1     1      0
 ---------------------------------------------------------------------------------
 (6) _TMR4_DefaultInterruptHandler                         0     0      0       0
 ---------------------------------------------------------------------------------
 (5) _PIN_MANAGER_IOC                                      0     0      0       0
                         _IOCBF0_ISR
                         _IOCBF3_ISR
                         _IOCBF4_ISR
                         _IOCBF5_ISR
 ---------------------------------------------------------------------------------
 (6) _IOCBF5_ISR                                           0     0      0       0
                   Absolute function *
     _IOCBF5_DefaultInterruptHandler *
                            _sensor4 *
 ---------------------------------------------------------------------------------
 (7) _sensor4                                              1     1      0       0
                                              0 COMMON     1     1      0
 ---------------------------------------------------------------------------------
 (7) _IOCBF5_DefaultInterruptHandler                       0     0      0       0
 ---------------------------------------------------------------------------------
 (6) _IOCBF4_ISR                                           0     0      0       0
                   Absolute function *
     _IOCBF4_DefaultInterruptHandler *
                            _sensor3 *
 ---------------------------------------------------------------------------------
 (7) _sensor3                                              1     1      0       0
                                              0 COMMON     1     1      0
 ---------------------------------------------------------------------------------
 (7) _IOCBF4_DefaultInterruptHandler                       0     0      0       0
 ---------------------------------------------------------------------------------
 (6) _IOCBF3_ISR                                           0     0      0       0
                   Absolute function *
     _IOCBF3_DefaultInterruptHandler *
                            _sensor2 *
 ---------------------------------------------------------------------------------
 (7) _sensor2                                              0     0      0       0
 ---------------------------------------------------------------------------------
 (7) _IOCBF3_DefaultInterruptHandler                       0     0      0       0
 ---------------------------------------------------------------------------------
 (6) _IOCBF0_ISR                                           0     0      0       0
                   Absolute function *
     _IOCBF0_DefaultInterruptHandler *
                            _sensor1 *
 ---------------------------------------------------------------------------------
 (7) _sensor1                                              0     0      0       0
 ---------------------------------------------------------------------------------
 (7) _IOCBF0_DefaultInterruptHandler                       0     0      0       0
 ---------------------------------------------------------------------------------
 (5) _CCP4_CaptureISR                                      3     3      0     362
                                              4 COMMON     3     3      0
                   Absolute function *
               _CCP4_DefaultCallBack *
                          _get_pulse *
 ---------------------------------------------------------------------------------
 (6) _get_pulse                                            2     0      2     315
                                              2 COMMON     2     0      2
                    _TMR1_WriteTimer
 ---------------------------------------------------------------------------------
 (7) _TMR1_WriteTimer                                      2     0      2     240
                                              0 COMMON     2     0      2
 ---------------------------------------------------------------------------------
 (6) _CCP4_DefaultCallBack                                 2     0      2       0
                                              2 COMMON     2     0      2
 ---------------------------------------------------------------------------------
 (6) Absolute function(Fake)                               0     0      0       0
 ---------------------------------------------------------------------------------
 Estimated maximum stack depth 7
 ---------------------------------------------------------------------------------

 Call Graph Graphs:

 _main (ROOT)
   _CCP4_SetCallBack
   _IOCBF0_SetInterruptHandler
   _IOCBF3_SetInterruptHandler
   _IOCBF4_SetInterruptHandler
   _IOCBF5_SetInterruptHandler
   _SYSTEM_Initialize
     _ADC_Initialize
     _CCP4_Initialize
       _CCP4_SetCallBack
     _EUSART_Initialize
       _EUSART_SetErrorHandler
       _EUSART_SetFramingErrorHandler
       _EUSART_SetOverrunErrorHandler
     _FVR_Initialize
     _OSCILLATOR_Initialize
     _PIN_MANAGER_Initialize
       _IOCBF0_SetInterruptHandler
       _IOCBF3_SetInterruptHandler
       _IOCBF4_SetInterruptHandler
       _IOCBF5_SetInterruptHandler
     _PWM3_Initialize
     _TMR1_Initialize
     _TMR2_Initialize
     _TMR4_Initialize
       _TMR4_SetInterruptHandler
     _WDT_Initialize
   _TMR4_SetInterruptHandler
   _comunicacao
     _EUSART_Read
     _EUSART_is_rx_ready
     ___fldiv
       ___flmul (ARG)
         _ADC_GetConversion (ARG)
         __Umul8_16 (ARG)
         ___xxtofl (ARG)
           _ADC_GetConversion (ARG)
       ___xxtofl (ARG)
         _ADC_GetConversion (ARG)
     ___flmul
       _ADC_GetConversion (ARG)
       __Umul8_16 (ARG)
       ___xxtofl (ARG)
         _ADC_GetConversion (ARG)
     ___fltol
     ___xxtofl
       _ADC_GetConversion (ARG)
   _controle
     _ADC_GetConversion
     ___flmul
       _ADC_GetConversion (ARG)
       __Umul8_16 (ARG)
       ___xxtofl (ARG)
         _ADC_GetConversion (ARG)
     ___xxtofl
       _ADC_GetConversion (ARG)
   _gerenciamento

 _INTERRUPT_InterruptManager (ROOT)
   _CCP4_CaptureISR
     Absolute function(Fake) *
     _CCP4_DefaultCallBack *
     _get_pulse *
       _TMR1_WriteTimer
   _PIN_MANAGER_IOC
     _IOCBF0_ISR
       Absolute function(Fake) *
       _IOCBF0_DefaultInterruptHandler *
       _sensor1 *
     _IOCBF3_ISR
       Absolute function(Fake) *
       _IOCBF3_DefaultInterruptHandler *
       _sensor2 *
     _IOCBF4_ISR
       Absolute function(Fake) *
       _IOCBF4_DefaultInterruptHandler *
       _sensor3 *
     _IOCBF5_ISR
       Absolute function(Fake) *
       _IOCBF5_DefaultInterruptHandler *
       _sensor4 *
   _TMR4_ISR
     Absolute function(Fake) *
     _TMR4_DefaultInterruptHandler *
     _send_data *
       _EUSART_Write
       _EUSART_is_tx_ready

 Address spaces:
Name               Size   Autos  Total    Cost      Usage
BIGRAM             170      0       0       0        0.0%
EEDATA             100      0       0       0        0.0%
NULL                 0      0       0       0        0.0%
CODE                 0      0       0       0        0.0%
BITCOMMON            E      0       0       1        0.0%
BITSFR0              0      0       0       1        0.0%
SFR0                 0      0       0       1        0.0%
COMMON               E      7       D       2       92.9%
BITSFR1              0      0       0       2        0.0%
SFR1                 0      0       0       2        0.0%
BITSFR2              0      0       0       3        0.0%
SFR2                 0      0       0       3        0.0%
STACK                0      0       0       3        0.0%
BITSFR3              0      0       0       4        0.0%
SFR3                 0      0       0       4        0.0%
ABS                  0      0      89       4        0.0%
BITBANK0            50      0       0       5        0.0%
BITSFR4              0      0       0       5        0.0%
SFR4                 0      0       0       5        0.0%
BANK0               50     49      50       6      100.0%
BITSFR5              0      0       0       6        0.0%
SFR5                 0      0       0       6        0.0%
BITBANK1            50      0       0       7        0.0%
BITSFR6              0      0       0       7        0.0%
SFR6                 0      0       0       7        0.0%
BANK1               50      9      2C       8       55.0%
BITSFR7              0      0       0       8        0.0%
SFR7                 0      0       0       8        0.0%
BITBANK2            50      0       0       9        0.0%
BITSFR8              0      0       0       9        0.0%
SFR8                 0      0       0       9        0.0%
BANK2               50      0       0      10        0.0%
BITSFR9              0      0       0      10        0.0%
SFR9                 0      0       0      10        0.0%
BITBANK3            50      0       0      11        0.0%
BITSFR10             0      0       0      11        0.0%
SFR10                0      0       0      11        0.0%
BANK3               50      0       0      12        0.0%
BITSFR11             0      0       0      12        0.0%
SFR11                0      0       0      12        0.0%
BITBANK4            30      0       0      13        0.0%
BITSFR12             0      0       0      13        0.0%
SFR12                0      0       0      13        0.0%
BANK4               30      0       0      14        0.0%
BITSFR13             0      0       0      14        0.0%
SFR13                0      0       0      14        0.0%
BITSFR14             0      0       0      15        0.0%
SFR14                0      0       0      15        0.0%
DATA                 0      0      89      15        0.0%
BITSFR15             0      0       0      16        0.0%
SFR15                0      0       0      16        0.0%
BITSFR16             0      0       0      17        0.0%
SFR16                0      0       0      17        0.0%
BITSFR17             0      0       0      18        0.0%
SFR17                0      0       0      18        0.0%
BITSFR18             0      0       0      19        0.0%
SFR18                0      0       0      19        0.0%
BITSFR19             0      0       0      20        0.0%
SFR19                0      0       0      20        0.0%
BITSFR20             0      0       0      21        0.0%
SFR20                0      0       0      21        0.0%
BITSFR21             0      0       0      22        0.0%
SFR21                0      0       0      22        0.0%
BITSFR22             0      0       0      23        0.0%
SFR22                0      0       0      23        0.0%
BITSFR23             0      0       0      24        0.0%
SFR23                0      0       0      24        0.0%
BITSFR24             0      0       0      25        0.0%
SFR24                0      0       0      25        0.0%
BITSFR25             0      0       0      26        0.0%
SFR25                0      0       0      26        0.0%
BITSFR26             0      0       0      27        0.0%
SFR26                0      0       0      27        0.0%
BITSFR27             0      0       0      28        0.0%
SFR27                0      0       0      28        0.0%
BITSFR28             0      0       0      29        0.0%
SFR28                0      0       0      29        0.0%
BITSFR29             0      0       0      30        0.0%
SFR29                0      0       0      30        0.0%
BITSFR30             0      0       0      31        0.0%
SFR30                0      0       0      31        0.0%
BITSFR31             0      0       0      32        0.0%
SFR31                0      0       0      32        0.0%


Microchip Technology PIC Macro Assembler V2.30 build 20200825195618 
Symbol Table                                                                                   Wed Dec 09 01:04:53 2020

                              _CCP4_Initialize 0F52                                   ___fldiv@aexp 0065  
                                 ___fldiv@bexp 0064               ??_IOCBF3_DefaultInterruptHandler 0070  
              ?_IOCBF3_DefaultInterruptHandler 0070                                   ___fldiv@sign 005D  
                                           l43 07E5                                             l51 0E3C  
                                           l60 0F32                                             l64 0F40  
                                           l82 0E92                                             l85 0E9B  
                                           l88 0E89                         __end_of_FVR_Initialize 0E38  
                                  _state_motor 00AA                            __Umul8_16@word_mpld 0026  
                                          l121 0FDB                                            l124 0E67  
                                          l127 07FF                                            l320 0E37  
                                          l225 0F77                                            l146 0ED8  
                                          l414 074D                                            l343 0F63  
                                          l247 0E5A                                            l185 0E77  
                                          l282 0FAE                                            l267 0E6F  
                                          l428 0E4E                                            l349 0E80  
                                          l285 0FB9                                            l438 0E54  
                                          l448 0EA4                                            l472 0EB6  
                                          l458 0EAD                                            l570 0003  
                                          l564 056E                                            l557 0783  
                                          l567 0694                                            l921 06F4  
                                          l914 0709                                            l924 0709  
                                          _PR2 001B                                            _PR4 0416  
                                          _I_m 00AF                                _timer1ReloadVal 007B  
               ?_EUSART_SetFramingErrorHandler 0020                                _TMR2_Initialize 0E70  
               CCP4_SetCallBack@customCallBack 0020                                            wreg 0009  
                                 ?_comunicacao 0070                               _CCP4_SetCallBack 0E78  
                                 ___flmul@aexp 0044                                   ___flmul@bexp 0045  
           __end_of_IOCBF4_SetInterruptHandler 0EA5                     _IOCBF4_SetInterruptHandler 0E9C  
                                 ___flmul@sign 003F                                   ___flmul@temp 004A  
                                 ___flmul@prod 0046                        __end_of_CCP4_CaptureISR 07FC  
                                 ?_EUSART_Read 0070                                   ___fltol@exp1 002A  
                                         l1101 0449                                           l1123 021A  
                                         l2020 0FF6                                           l2012 0FDE  
                                         l1117 029E                                           l2022 0FFB  
                                         l2014 0FE0                                           l1136 0FEF  
                                         l2016 0FE7                                           l1129 0292  
                                         l1161 0592                                           l1138 0FFF  
                                         l2018 0FEB                                           l2210 06EB  
                                         l2202 06D4                                           l2130 0FAC  
                                         l1163 061B                                           l2300 0393  
                                         l2220 02A9                                           l2212 06F9  
                                         l2204 06E4                                           l2132 0FB2  
                                         l2124 0F9B                                           l1093 03D4  
                                         l1077 02F6                                           l2310 03A9  
                                         l2302 039B                                           l2230 02C0  
                                         l2222 02AD                                           l2214 06FE  
                                         l1174 05E7                                           l2126 0FA7  
                                         l1079 0452                                           l1175 05F3  
                                         l1167 05CD                                           l2320 03BD  
                                         l2312 03B0                                           l2304 039D  
                                         l2240 02D4                                           l2232 02C1  
                                         l2224 02AE                                           l2216 029F  
                                         l2400 00B0                                           l2128 0FA8  
                                         l1098 0420                                           l2330 03E6  
                                         l2322 03D1                                           l2306 03A4  
                                         l2314 03B4                                           l2250 02EB  
                                         l2242 02D8                                           l2226 02B3  
                                         l2234 02C3                                           l2218 02A5  
                                         l2410 010B                                           l2402 00BD  
                                         l1099 043A                                           l2340 042E  
                                         l2332 03EA                                           l2316 03B8  
                                         l2308 03A8                                           l2260 030E  
                                         l2252 02EC                                           l2244 02D9  
                                         l2236 02CB                                           l2228 02B8  
                                         l2420 0140                                           l2412 0118  
                                         l2404 00CA                                           l2180 0695  
                                         l2500 057A                                           l2350 0445  
                                         l2342 0431                                           l2334 0402  
                                         l2326 03D9                                           l2318 03B9  
                                         l2270 0325                                           l2246 02DE  
                                         l2254 02EE                                           l2238 02D0  
                                         l2430 0183                                           l2422 014D  
                                         l2414 0125                                           l2406 00E4  
                                         l2190 06BE                                           l2182 06A1  
                                         l2510 05A8                                           l2502 058A  
                                         l2344 0439                                           l2328 03DE  
                                         l2336 0406                                           l2280 034F  
                                         l2272 0335                                           l2256 02FE  
                                         l2264 0317                                           l2248 02E3  
                                         l2440 01D7                                           l2432 0190  
                                         l2424 0154                                           l2416 012C  
                                         l2408 00F1                                           l2360 0052  
                                         l2192 06C6                                           l2520 05D4  
                                         l2512 05B3                                           l2504 059A  
                                         l2346 043F                                           l2338 0413  
                                         l2282 0354                                           l2290 036E  
                                         l2274 033D                                           l2266 031C  
                                         l2258 030A                                           l2450 01F6  
                                         l2442 01E3                                           l2434 01A4  
                                         l2426 0168                                           l2418 0139  
                                         l2370 0069                                           l2362 0056  
                                         l2194 06C8                                           l2186 06AA  
                                         l2530 0609                                           l2522 05DD  
                                         l2514 05BA                                           l2620 0E81  
                                         l2700 0734                                           l2348 0443  
                                         l2292 0380                                           l2284 0362  
                                         l2276 0345                                           l2460 0217  
                                         l2444 01EA                                           l2452 01FA  
                                         l2436 01B9                                           l2428 016F  
                                         l2380 0080                                           l2372 006B  
                                         l2364 0057                                           l2356 0048  
                                         l2196 06CC                                           l2188 06BD  
                                         l2532 060E                                           l2524 05E1  
                                         l2516 05BE                                           l2508 05A3  
                                         l2710 0E64                                           l2630 0E9C  
                                         l2702 073C                                           l2622 0E55  
                                         l2294 0381                                           l2286 0366  
                                         l2278 034D                                           l2470 0230  
                                         l2454 01FE                                           l2446 01EE  
                                         l2438 01D0                                           l2390 0095  
                                         l2382 0081                                           l2374 0073  
                                         l2366 005C                                           l2358 004E  
                                         l2534 0612                                           l2526 05EB  
                                         l2518 05C6                                           l2624 0E78  
                                         l2720 0F55                                           l2616 0E8A  
                                         l2640 07D3                                           l2712 0E65  
                                         l2632 0EA5                                           l2704 0744  
                                         l2296 0389                                           l2288 0367  
                                         l2480 0271                                           l2472 0248  
                                         l2464 021F                                           l2456 01FF  
                                         l2448 01EF                                           l2392 009D  
                                         l2384 0086                                           l2376 0078  
                                         l2368 0061                                           l2536 0613  
                                         l2528 05F5                                           l2730 0E68  
                                         l2722 0F56                                           l2618 0E93  
                                         l2642 07DB                                           l2634 07C1  
                                         l2626 0E49                                           l2706 074C  
                                         l2714 07FC                                           l2650 0F32  
                                         l2298 038D                                           l2490 028E  
                                         l2482 027A                                           l2466 0224  
                                         l2474 024C                                           l2458 0203  
                                         l2394 00A2                                           l2386 008B  
                                         l2378 007C                                           l2732 0E6B  
                                         l2724 0F57                                           l2644 07E3  
                                         l2636 07CA                                           l2716 0E34  
                                         l2708 0E61                                           l2628 0E4F  
                                         l2740 0F68                                           l2652 0F37  
                                         l2492 0296                                           l2484 027C  
                                         l2476 0259                                           l2468 022C  
                                         l2396 00A7                                           l2388 0093  
                                         l2734 0E6C                                           l2726 0F5F  
                                         l2718 0F52                                           l2638 07CB  
                                         l2670 0715                                           l2662 070A  
                                         l2750 0EB1                                           l2742 0F6A  
                                         l2654 0F38                                           l2646 0E38  
                                         l2486 0289                                           l2478 0263  
                                         l2728 0F61                                           l2680 0723  
                                         l2672 071A                                           l2664 070D  
                                         l2752 0EB2                                           l2760 0E74  
                                         l2744 0F6C                                           l2736 0F64  
                                         l2656 0F3D                                           l2488 028D  
                                         l2496 0571                                           l2690 0728  
                                         l2682 0724                                           l2674 071F  
                                         l2666 0710                                           l2754 0EB3  
                                         l2770 0ED6                                           l2762 0E75  
                                         l2746 0F74                                           l2738 0F67  
                                         l2658 0F3F                                           l2498 0576  
                                         l2692 0729                                           l2684 0725  
                                         l2676 0721                                           l2668 0712  
                                         l2748 0EAE                                           l2764 0ECD  
                                         l2756 0E70                                           l2772 0FBA  
                                         l2780 04F2                                           l2588 061C  
                                         l2694 072A                                           l2686 0726  
                                         l2678 0722                                           l2766 0ED1  
                                         l2758 0E73                                           l2790 0554  
                                         l2782 04FE                                           l2774 0453  
                                         l2696 072B                                           l2688 0727  
                                         l2768 0ED2                                           l2784 0506  
                                         l2776 04D8                                           l2792 074E  
                                         l2698 072C                                           l2786 0520  
                                         l2778 04E0                                           l2794 0751  
                                         l2788 053A                                           l2796 0752  
                                         l2798 0789                                           u2010 05D3  
                                         u2011 05D2                                           u1300 06A1  
                                         u1220 0FB2                                           u1301 06A0  
                                         u2005 05C7                                           u1221 0FB1  
                                         u1310 06B7                                           u2030 05E1  
                                         u2031 05E0                                           u1400 02AD  
                                         u1320 06CC                                           u2040 05E7  
                                         u1401 02AC                                           u1321 06CB  
                                         u2041 05E6                                           u2025 05D7  
                                         u1410 02B3                                           u1170 0FEB  
                                         u1330 06D3                                           u2050 05EB  
                                         u1411 02B2                                           u1171 0FEA  
                                         u1331 06D2                                           u1315 06B3  
                                         u2051 05EA                                           u1420 02B8  
                                         u2060 05FF                                           u1421 02B7  
                                         _LATA 010C                                           u2230 0F37  
                                         u1510 0366                                           u1430 02D8  
                                         u1190 0FFB                                           u1350 06E3  
                                         u2070 060E                                           _LATB 010D  
                                         u2231 0F36                                           u1511 0365  
                                         u1431 02D7                                           u1191 0FFA  
                                         u1351 06E2                                           u2071 060D  
                                         u2240 0F3D                                           u1600 03BD  
                                         u1440 02DE                                           u1360 06EA  
                                         u2080 0612                                           u2241 0F3C  
                                         u1601 03BC                                           u1505 035C  
                                         u1441 02DD                                           u1185 0FF0  
                                         u1361 06E9                                           u1345 06D5  
                                         u2081 0611                                           u2065 05FB  
                                         u1610 03D1                                           u1530 0380  
                                         u1450 02E3                                           u2250 04D8  
                                         u1611 03D0                                           u1531 037F  
                                         u1451 02E2                                           u2251 04D7  
                                         u1620 03D8                                           u1540 0393  
                                         u1460 02FE                                           u1700 005C  
                                         u1380 06F9                                           u1621 03D7  
                                         u1541 0392                                           u1525 0368  
                                         u1461 02FD                                           u1701 005B  
                                         u1381 06F8                                           u1630 03DE  
                                         u1550 039B                                           u1470 031C  
                                         u1710 0061                                           u1390 06FE  
                                         u1631 03DD                                           u1551 039A  
                                         u1535 037C                                           u1471 031B  
                                         u1711 0060                                           u1391 06FD  
                                         u1375 06EC                                           u1640 03EA  
                                         u1480 0354                                           u1800 01C6  
                                         u1720 0080                                           u1641 03E9  
                                         u1481 0353                                           u1721 007F  
                                         u2265 04E4                                           u1650 03F8  
                                         u1570 03A8                                           u1730 0086  
                                         u1571 03A7                                           u1731 0085  
                                         u1660 0413                                           u1900 0230  
                                         u1740 008B                                           u1661 0412  
                                         u1565 039E                                           u1901 022F  
                                         u1805 01C2                                           u1741 008A  
                                         u2277 0FA9                                           u1670 042E  
                                         u1590 03B8                                           u1910 023E  
                                         u1830 01EE                                           u1750 00A2  
                                         u1671 042D                                           u1655 03F4  
                                         u1591 03B7                                           u1495 0355  
                                         u1831 01ED                                           u1815 01D1  
                                         u1751 00A1                                           u1680 0443  
                                         u1920 0259                                           u1760 00A7  
                                         u1681 0442                                           u1665 040F  
                                         u1585 03AA                                           u1921 0258  
                                         u1825 01E4                                           u1761 00A6  
                                         u1930 0271                                           u1850 01FE  
                                         u1690 0056                                           u1675 042A  
                                         u1931 0270                                           u1915 023A  
                                         u1851 01FD                                           u1691 0055  
                                         u1940 028D                                           u1860 0203  
                                         u1941 028C                                           u1925 0255  
                                         u1861 0202                                           u1845 01F0  
                                         u1870 0217                                           u1790 01AF  
                                         u1950 0576                                           u1935 026D  
                                         u1871 0216                                           u1775 0126  
                                         u1951 0575                                           u1880 021E  
                                         u1960 057A                                           u1881 021D  
                                         u1785 0155                                           u1961 0579  
                                         u1890 0224                                           u1970 059A  
                                         u1891 0223                                           u1795 01AB  
                                         u1971 0599                                           u1990 05B9  
                       get_pulse@capturedValue 0072                                           u1991 05B8  
                                         u1985 05AD                                           i1l70 0EC0  
                                         i1l48 0F31                                           i1l67 0EB8  
                                         _TMR2 001A                                           _TMR4 0415  
                                         _WPUA 020C                                           _WPUB 020D  
                                         _main 074E                                           _byte 00A0  
                                         fsr0h 0005                                           fsr1h 0007  
                                         indf0 0000                                           fsr0l 0004  
                                         indf1 0001                                           fsr1l 0006  
                                         btemp 007E                                           start 0034  
                              ___fldiv@new_exp 005E                     ??_TMR4_SetInterruptHandler 0022  
                             comunicacao@speed 00C3                                ?_FVR_Initialize 0070  
                                ?_EUSART_Write 0070                 __size_of_OSCILLATOR_Initialize 0007  
                          __size_of_IOCBF0_ISR 000F                            __size_of_IOCBF3_ISR 000F  
                __end_of_OSCILLATOR_Initialize 0E68                            __size_of_IOCBF4_ISR 000F  
                          __size_of_IOCBF5_ISR 000F                                  ___fltol@sign1 0029  
                                        ?_main 0070                                __end_of___fldiv 0453  
                       ??_CCP4_DefaultCallBack 0074                                __end_of___flmul 029F  
                              __end_of___fltol 070A                                          _T1CON 0018  
                                        _T2CON 001C                                          _T4CON 0417  
                                        i1l160 0F51                                          i1l312 0032  
                                        i1l313 0032                                          i1l305 0012  
                                        i1l250 0002                                          i1l340 0E28  
                                        i1l244 0EE6                                          i1l308 0024  
                                        i1l421 0F98                                          i1l431 0E29  
                                        i1l425 0EF5                                          i1l441 0E2A  
                                        i1l346 07FB                                          i1l435 0F04  
                                        i1l451 0E2B                                          i1l540 0E2F  
                                        i1l445 0F13                                          i1l461 0E2C  
                                        i1l543 0E33                                          i1l455 0F22  
                                        i1l552 0ECC                                          i1l537 07C0  
                                        i1l546 0E42                                          i1l549 0E48  
                                        _RCREG 0199                                          _RCSTA 019D  
                                        _TMR1H 0017                                          _TMR1L 0016  
                                        _TRISA 008C                                          _TRISB 008D  
                                        _TXREG 019A                                          _TXSTA 019E  
                              _TMR4_Initialize 0F64                               __end_of_TMR4_ISR 0EE7  
                      __end_of_PIN_MANAGER_IOC 0F99                                 _WDT_Initialize 07FC  
                      __end_of_PWM3_Initialize 0EB7                        __end_of_TMR1_Initialize 0ED9  
                                        pclath 000A                                __end_of_sensor1 0E30  
                              __end_of_sensor2 0E34                                __end_of_sensor3 0E43  
                              __end_of_sensor4 0E49                                          status 0003  
                      __end_of_CCP4_Initialize 0F64                                          wtemp0 007E  
                              _TMR1_WriteTimer 0F41                                ??_gerenciamento 0020  
                              __initialization 0036                                   __end_of_main 078F  
                               ??_EUSART_Write 0070                        __end_of_TMR2_Initialize 0E78  
                  ?_INTERRUPT_InterruptManager 0070                                         ??_main 0069  
                      _IOCBF0_InterruptHandler 006B                         __end_of_WDT_Initialize 0800  
                             ?_CCP4_CaptureISR 0070              _EUSART_DefaultFramingErrorHandler 0000  
                                       _ADCON0 009D                                         _ADCON1 009E  
                   _EUSART_OverrunErrorHandler 00BF                   ??_IOCBF5_SetInterruptHandler 0022  
                                       _ADRESH 009C                                         _ADRESL 009B  
                                       _CCPR3H 0312                                         _CCPR4H 0319  
                                       _CCPR3L 0311                                         _CCPR4L 0318  
                                       _ANSELA 018C                                         _ANSELB 018D  
                   __end_of_EUSART_is_rx_ready 0E3D                                         _BORCON 0116  
                                       _T1GCON 0019                                         i1l2010 0E43  
                      TMR1_WriteTimer@timerVal 0070                                         i1l2004 0E2D  
                                       i1l2006 0E30                                         i1l2008 0E3D  
                                       i1l2140 0EF3                                         i1l2142 0EF6  
                                       i1l2150 0F0C                                         i1l2136 0EE7  
                                       i1l2144 0EFD                                         i1l2152 0F11  
                                       i1l2160 078F                                         i1l2138 0EEE  
                                       i1l2146 0F02                                         i1l2154 0F14  
                                       i1l2170 07AD                                         i1l2162 0793  
                                       i1l2148 0F05                                         i1l2156 0F1B  
                                       i1l2172 07B1                                         i1l2164 079A  
                                       i1l2158 0F20                                         i1l2174 07BE  
                                       i1l2166 079D                                         i1l2176 0EC1  
                                       u113_20 0F29                                         i1l2168 07A5  
                                       i1l2600 001B                                         u113_21 0F28  
                                       i1l2178 0EC7                                         i1l2602 0020  
                                       i1l2604 0029                                         i1l2550 0F7D  
                                       i1l2542 0ED9                                         i1l2606 002E  
                                       i1l2560 0F90                                         i1l2552 0F80  
                                       u210_20 0F7D                                         u114_20 0F2E  
                                       i1l2544 0EDB                                         u210_21 0F7C  
                                       u114_21 0F2D                                         i1l2562 0F95  
                                       i1l2554 0F85                                         i1l2546 0EE1  
                                       i1l2564 07E6                                         i1l2556 0F88  
                                       i1l2548 0F78                                         i1l2566 07E8  
                                       i1l2558 0F8D                                         i1l2568 07F1  
                                       u123_20 0EEE                                         u211_20 0F85  
                                       u115_20 0EBD                                         i1l2592 0006  
                                       u123_21 0EED                                         u211_21 0F84  
                                       u115_21 0EBC                                         i1l1970 0F30  
                                       i1l1962 0F23                                         i1l2594 000A  
                                       i1l1980 0F46                                         i1l1964 0F24  
                                       i1l2596 000E                                         i1l1990 0F4F  
                                       i1l1982 0F47                                         i1l1974 0EB8  
                                       i1l1966 0F29                                         i1l2598 0016  
                                       i1l1984 0F49                                         u116_20 0F46  
                                       u124_20 0EFD                                         u212_20 0F8D  
                                       i1l1976 0EBD                                         i1l1968 0F2E  
                                       u220_20 0020                                         u116_21 0F45  
                                       u124_21 0EFC                                         u212_21 0F8C  
                                       u220_21 001F                                         i1l1986 0F4B  
                                       i1l1978 0F41                                         i1l1988 0F4D  
                                       u125_20 0F0C                                         u213_20 0F95  
                                       u221_20 0029                                         u125_21 0F0B  
                                       u213_21 0F94                                         u221_21 0028  
                                       u126_20 0F1B                                         u222_20 002E  
                                       u126_21 0F1A                                         u222_21 002D  
                                       u127_20 079A                                         u127_21 0799  
                                       u128_20 07A5                                         u216_20 000A  
                                       u128_21 07A4                                         u216_21 0009  
                                       u129_20 07BE                                         u209_20 0EE1  
                                       u217_20 000E                                         u129_21 07BD  
                                       u209_21 0EE0                                         u217_21 000D  
                                       u129_25 07BA                                         u218_20 0016  
                                       u218_21 0015                                         u219_20 001B  
                                       _FVRCON 0117                                         u219_21 001A  
                   __end_of_EUSART_is_tx_ready 0F32                                         _OSCCON 0099  
                                       _SPBRGH 019C                                         _SPBRGL 019B  
                                       _WDTCON 0097                               __end_of___xxtofl 061C  
                                 _CCPTMRS0bits 029E                                      ??___fldiv 0054  
                                    ??___flmul 003A                               __end_of_controle 0695  
                                    ??___fltol 0024                        __end_of_TMR4_Initialize 0F78  
                                _CCP4_CallBack 00BB                                         _pulses 00B5  
          __size_of_IOCBF5_SetInterruptHandler 0009           __end_of_TMR4_DefaultInterruptHandler 0003  
        __size_of_TMR4_DefaultInterruptHandler 0001                   _TMR4_DefaultInterruptHandler 0002  
                           __size_of__Umul8_16 0024                                ?_WDT_Initialize 0070  
                                    ??_sensor1 0070                                      ??_sensor2 0070  
                                    ??_sensor3 0070                                      ??_sensor4 0070  
                     ADC_GetConversion@channel 0023     IOCBF5_SetInterruptHandler@InterruptHandler 0020  
   IOCBF4_SetInterruptHandler@InterruptHandler 0020     IOCBF3_SetInterruptHandler@InterruptHandler 0020  
   IOCBF0_SetInterruptHandler@InterruptHandler 0020       TMR4_SetInterruptHandler@InterruptHandler 0020  
                             ?_PIN_MANAGER_IOC 0070                           __size_of_comunicacao 011C  
                      __end_of_TMR1_WriteTimer 0F52                                   ??_IOCBF0_ISR 0070  
                                 ??_IOCBF3_ISR 0070                                   ??_IOCBF4_ISR 0071  
                                 ??_IOCBF5_ISR 0071                               ?_TMR1_Initialize 0070  
                             ?_PWM3_Initialize 0070                                   ___xxtofl@arg 002E  
                         __size_of_EUSART_Read 000F                                   ___xxtofl@exp 002D  
                            _SYSTEM_Initialize 0FBA                                   ___xxtofl@val 0024  
                      __end_of__initialization 0044                               ?_CCP4_Initialize 0070  
                           ?_SYSTEM_Initialize 0070                                     ___fltol@f1 0020  
                     __end_of_CCP4_SetCallBack 0E81                                 __pcstackCOMMON 0070  
                          ??_SYSTEM_Initialize 0022                                      ?_TMR4_ISR 0070  
       __end_of_IOCBF0_DefaultInterruptHandler 0E2A        __size_of_IOCBF0_DefaultInterruptHandler 0001  
               _IOCBF0_DefaultInterruptHandler 0E29                               ?_TMR2_Initialize 0070  
                           __end_of_IOCBF0_ISR 0EF6                             __end_of_IOCBF3_ISR 0F05  
                           __end_of_IOCBF4_ISR 0F14                             __end_of_IOCBF5_ISR 0F23  
                               _OPTION_REGbits 0095                  ?_TMR4_DefaultInterruptHandler 0070  
              ??_EUSART_SetOverrunErrorHandler 0022         __end_of_IOCBF3_DefaultInterruptHandler 0E2B  
      __size_of_IOCBF3_DefaultInterruptHandler 0001                 _IOCBF3_DefaultInterruptHandler 0E2A  
                  ?_IOCBF4_SetInterruptHandler 0020                             __size_of_get_pulse 000C  
                    __end_of_SYSTEM_Initialize 0FDC                                     __pbssBANK0 006F  
                                   __pbssBANK1 00A0                           __end_of_EUSART_Write 0EC1  
                                   __pnvCOMMON 007B                                     _and_origem 00A5  
                        _TMR4_InterruptHandler 006D                              __end_of__Umul8_16 1000  
                             ??_FVR_Initialize 0020                                     __pmaintext 074E  
                                   ??_TMR4_ISR 0074                                     __pintentry 0004  
                           __size_of_send_data 0032                                        _CCP3CON 0313  
                                      _CCP4CON 031A                                        _BAUDCON 019F  
                             ?_TMR4_Initialize 0070               ??_IOCBF4_DefaultInterruptHandler 0070  
              ?_IOCBF4_DefaultInterruptHandler 0070                                        _APFCON0 011D  
                                      _APFCON1 011E                        __size_of_ADC_Initialize 0008  
                                    ?___xxtofl 0024             __end_of_IOCBF5_SetInterruptHandler 0EAE  
                   _IOCBF5_SetInterruptHandler 0EA5                                        _OSCTUNE 0098  
                     ??_EUSART_SetErrorHandler 0022                               ?_TMR1_WriteTimer 0070  
                                    ?_controle 0070                           _ADC_InterruptHandler 0079  
                            __end_of_get_pulse 0ECD                                        ___fldiv 029F  
                                      ___flmul 0048                                        ___fltol 0695  
                                      _and_dst 00A7                                        __ptext1 0003  
                                      __ptext2 061C                                        __ptext3 0F99  
                                      __ptext4 0453                                        __ptext5 056F  
                                      __ptext6 0695                                        __ptext7 0048  
                                      __ptext8 0FDC                                        __ptext9 029F  
                                    _T1CONbits 0018                          _OSCILLATOR_Initialize 0E61  
                                    _T2CONbits 001C                                     ??___xxtofl 0028  
                __size_of_CCP4_DefaultCallBack 0001                                      _T4CONbits 0417  
                     ??_PIN_MANAGER_Initialize 0022              __size_of_TMR4_SetInterruptHandler 0006  
                                    _IOCBFbits 0396                      ?_TMR4_SetInterruptHandler 0020  
                                    _IOCBNbits 0395                                        _sensor1 0E2D  
                                      _sensor2 0E30                                        _sensor3 0E3D  
                                      _sensor4 0E43                                        _temp_mt 00AB  
                                    _IOCBPbits 0394                     __size_of_SYSTEM_Initialize 0022  
                                      clrloop0 0E5C                           end_of_initialization 0044  
                            __end_of_send_data 07C1                 ??_TMR4_DefaultInterruptHandler 0070  
                                   ??_controle 004C          __end_of_EUSART_SetOverrunErrorHandler 0E9C  
       __size_of_EUSART_SetOverrunErrorHandler 0009                  _EUSART_SetOverrunErrorHandler 0E93  
                            _EUSART_Initialize 07C1                          __end_of_gerenciamento 0004  
                           ?_EUSART_Initialize 0070                                      _RCSTAbits 019D  
                           _EUSART_is_rx_ready 0E38                             _EUSART_is_tx_ready 0F23  
                          ??_EUSART_Initialize 0022                               ??_WDT_Initialize 0020  
                          ?_EUSART_is_rx_ready 0070                            ?_EUSART_is_tx_ready 0070  
                                ___xxtofl@sign 002C                          __size_of_EUSART_Write 000A  
                                  ___fldiv@grs 0060                                    ___fldiv@rem 0059  
                 ??_IOCBF0_SetInterruptHandler 0022                   ??_IOCBF3_SetInterruptHandler 0022  
              __size_of_EUSART_SetErrorHandler 0009                                    ___flmul@grs 0040  
                    __end_of_EUSART_Initialize 07E6                           ??_EUSART_is_rx_ready 0020  
                         ??_EUSART_is_tx_ready 0070                                      _TXSTAbits 019E  
                     __size_of_CCP4_CaptureISR 0016              CCP4_DefaultCallBack@capturedValue 0072  
                            ?_CCP4_SetCallBack 0020                             ??_CCP4_SetCallBack 0022  
                   _EUSART_DefaultErrorHandler 0000                                   _EUSART_Write 0EB7  
                            __size_of_TMR4_ISR 000E                                 _ADC_Initialize 0E68  
          __size_of_IOCBF0_SetInterruptHandler 0006            __size_of_IOCBF3_SetInterruptHandler 0006  
                       ?_OSCILLATOR_Initialize 0070                                  ??_comunicacao 0066  
                          start_initialization 0036                __size_of_PIN_MANAGER_Initialize 0044  
                                ??_EUSART_Read 0020                         _EUSART_is_tx_ready$167 0070  
                     __size_of_PIN_MANAGER_IOC 0021                 ?_EUSART_SetOverrunErrorHandler 0020  
                     __size_of_PWM3_Initialize 0009                       __size_of_TMR1_Initialize 000C  
                   _EUSART_FramingErrorHandler 00C1                         _EUSART_SetErrorHandler 0E81  
                     __size_of_CCP4_Initialize 0012                         __end_of_ADC_Initialize 0E70  
                                    __Umul8_16 0FDC                          CCP4_CaptureISR@module 0075  
                                    ___fldiv@a 004C                                      ___fldiv@b 0050  
                                    ___flmul@a 0036                                      ___flmul@b 0032  
                                  __pbssCOMMON 0077                                      ___latbits 0001  
                                __pcstackBANK0 0020                                  __pcstackBANK1 00C3  
                     __size_of_TMR2_Initialize 0008                    ?_IOCBF5_SetInterruptHandler 0020  
                            __size_of___xxtofl 00AD                            comunicacao@position 00C7  
       __end_of_IOCBF4_DefaultInterruptHandler 0E2C        __size_of_IOCBF4_DefaultInterruptHandler 0001  
               _IOCBF4_DefaultInterruptHandler 0E2B                            __end_of_comunicacao 056F  
                   __size_of_EUSART_Initialize 0025                            __end_of_EUSART_Read 0F41  
                            __size_of_controle 0079                                      __pnvBANK0 0069  
                                    __pnvBANK1 00B7                                      _and_ating 00A9  
                                    _ccp_value 00B3                        _IOCBF3_InterruptHandler 0069  
                       _PIN_MANAGER_Initialize 070A               __end_of_TMR4_SetInterruptHandler 0E5B  
                                     ?___fldiv 004C                              ??_CCP4_CaptureISR 0074  
                                     ?___flmul 0032                                       ?___fltol 0020  
                                   ?__Umul8_16 0020                                ?_ADC_Initialize 0070  
                 ??_INTERRUPT_InterruptManager 0077                                     send_data@i 0072  
                                    _get_pulse 0EC1               ??_IOCBF5_DefaultInterruptHandler 0070  
              ?_IOCBF5_DefaultInterruptHandler 0070                                      _aux_tempo 0077  
           __end_of_IOCBF0_SetInterruptHandler 0E4F                     _IOCBF0_SetInterruptHandler 0E49  
           __end_of_IOCBF3_SetInterruptHandler 0E55                     _IOCBF3_SetInterruptHandler 0E4F  
                                     ?_sensor1 0070                                       ?_sensor2 0070  
                                     ?_sensor3 0070                                       ?_sensor4 0070  
                     __size_of_TMR4_Initialize 0014         EUSART_SetErrorHandler@interruptHandler 0020  
                                    clear_ram0 0E5B                   __end_of_CCP4_DefaultCallBack 0E29  
                                    _send_data 078F                                       _PIE3bits 0093  
                            _eusartRxLastError 006F                       __size_of_TMR1_WriteTimer 0011  
          __size_of_INTERRUPT_InterruptManager 0030                                       _PIR1bits 0011  
              ??_EUSART_SetFramingErrorHandler 0022                                       _PIR3bits 0013  
            _EUSART_DefaultOverrunErrorHandler 0000                                       _TMR4_ISR 0ED9  
                            ??_PIN_MANAGER_IOC 0071                              ??_TMR1_Initialize 0020  
                            ??_PWM3_Initialize 0020                                     ?_get_pulse 0072  
                                   _ADCON0bits 009D                        __size_of_FVR_Initialize 0004  
                            ??_CCP4_Initialize 0022                                    _comunicacao 0453  
                               comunicacao@aux 00CB                                    _EUSART_Read 0F32  
                            ??_TMR2_Initialize 0020                                     ?_send_data 0070  
                            _ADC_GetConversion 0F99                        ??_OSCILLATOR_Initialize 0020  
                                  ??__Umul8_16 0022                            _EUSART_ErrorHandler 00BD  
                           ?_ADC_GetConversion 0020                               __size_of___fldiv 01B4  
                             __size_of___flmul 0257                               __size_of___fltol 0075  
                     _TMR4_SetInterruptHandler 0E55                            ??_ADC_GetConversion 0022  
                      _IOCBF4_InterruptHandler 00B9                                       ___xxtofl 056F  
                    __size_of_CCP4_SetCallBack 0009                                       __ptext10 0E38  
                                     __ptext11 0F32                                       __ptext20 0EA5  
                                     __ptext12 0FBA                                       __ptext21 0E9C  
                                     __ptext13 07FC                                     _T1GCONbits 0019  
                                     __ptext30 0F52                                       __ptext22 0E4F  
                                     __ptext14 0F64                                       __ptext31 0E78  
                                     __ptext23 0E49                                       __ptext15 0E55  
                                     __ptext40 0F14                                       __ptext32 0E68  
                                     __ptext24 0E61                                       __ptext16 0E70  
                                     __ptext41 0E2C                                       __ptext25 0E34  
                                     __ptext17 0ECD                                       __ptext50 0E29  
                                     __ptext42 0E43                                       __ptext34 0ED9  
                                     __ptext26 07C1                                       __ptext18 0EAE  
                                     __ptext51 0E2D                                       __ptext43 0F05  
                                     __ptext35 0002                                       __ptext27 0E93  
                                     __ptext19 070A                                       __ptext52 07E6  
                                     __ptext44 0E2B                                       __ptext36 078F  
                                     __ptext28 0E8A                                       __ptext53 0E28  
                                     __ptext45 0E3D                                       __ptext37 0F23  
                                     __ptext29 0E81                                       __ptext54 0EC1  
                                     __ptext46 0EF6                                       __ptext38 0EB7  
                                     __ptext55 0F41                                       __ptext47 0E2A  
                                     __ptext39 0F78                                       __ptext48 0E30  
                                     __ptext49 0EE7                         __size_of_gerenciamento 0001  
                             __size_of_sensor1 0003                               __size_of_sensor2 0004  
                             __size_of_sensor3 0006                               __size_of_sensor4 0006  
                 ??_IOCBF4_SetInterruptHandler 0022                                     _IOCBF0_ISR 0EE7  
                                   _IOCBF3_ISR 0EF6                                     _IOCBF4_ISR 0F05  
                                   _IOCBF5_ISR 0F14                                       _controle 061C  
                            ??_TMR4_Initialize 0022                    __size_of_EUSART_is_rx_ready 0005  
                                __size_of_main 0041                    __size_of_EUSART_is_tx_ready 000F  
                    __end_of_ADC_GetConversion 0FBA                        ?_EUSART_SetErrorHandler 0020  
EUSART_SetOverrunErrorHandler@interruptHandler 0020                                       int$flags 007E  
           __end_of_INTERRUPT_InterruptManager 0034                     _INTERRUPT_InterruptManager 0004  
        __end_of_EUSART_SetFramingErrorHandler 0E93         __size_of_EUSART_SetFramingErrorHandler 0009  
                _EUSART_SetFramingErrorHandler 0E8A                              ??_TMR1_WriteTimer 0072  
                                  ??_get_pulse 0074            __size_of_IOCBF4_SetInterruptHandler 0009  
                                   _INTCONbits 000B                           _CCP4_DefaultCallBack 0E28  
                                   _FVRCONbits 0117                        __size_of_WDT_Initialize 0004  
                                     intlevel1 0000                                _CCP4_CaptureISR 07E6  
                      ?_PIN_MANAGER_Initialize 0070                 __end_of_EUSART_SetErrorHandler 0E8A  
                                  ??_send_data 0071                               ??_ADC_Initialize 0020  
                                _gerenciamento 0003  EUSART_SetFramingErrorHandler@interruptHandler 0020  
                               _FVR_Initialize 0E34                         __Umul8_16@multiplicand 0020  
                        ?_CCP4_DefaultCallBack 0072                    ?_IOCBF0_SetInterruptHandler 0020  
                  ?_IOCBF3_SetInterruptHandler 0020                                    ?_IOCBF0_ISR 0070  
                           EUSART_Write@txData 0070                                    ?_IOCBF3_ISR 0070  
                                  ?_IOCBF4_ISR 0070                                    ?_IOCBF5_ISR 0070  
               __end_of_PIN_MANAGER_Initialize 074E               ??_IOCBF0_DefaultInterruptHandler 0070  
              ?_IOCBF0_DefaultInterruptHandler 0070         __end_of_IOCBF5_DefaultInterruptHandler 0E2D  
      __size_of_IOCBF5_DefaultInterruptHandler 0001                 _IOCBF5_DefaultInterruptHandler 0E2C  
                              _PIN_MANAGER_IOC 0F78                           __Umul8_16@multiplier 0028  
                   __size_of_ADC_GetConversion 0021                        _IOCBF5_InterruptHandler 00B7  
                              _TMR1_Initialize 0ECD                                _PWM3_Initialize 0EAE  
                            __Umul8_16@product 0024                                 ?_gerenciamento 0070  
