

Microchip MPLAB XC8 Assembler V2.30 build 20200825195618 
                                                                                               Mon Dec 14 23:32:09 2020

Microchip MPLAB XC8 C Compiler v2.30 (Free license) build 20200825195618 Og1 
     1                           	processor	16F1827
     2                           	pagewidth 120
     3                           	opt	flic
     4                           	psect	nvBANK1,global,class=BANK1,space=1,delta=1,noexec
     5                           	psect	cinit,global,class=CODE,merge=1,delta=2
     6                           	psect	bssCOMMON,global,class=COMMON,space=1,delta=1,noexec
     7                           	psect	bssBANK0,global,class=BANK0,space=1,delta=1,noexec
     8                           	psect	bssBANK1,global,class=BANK1,space=1,delta=1,noexec
     9                           	psect	clrtext,global,class=CODE,delta=2
    10                           	psect	cstackBANK1,global,class=BANK1,space=1,delta=1,noexec
    11                           	psect	cstackCOMMON,global,class=COMMON,space=1,delta=1,noexec
    12                           	psect	cstackBANK0,global,class=BANK0,space=1,delta=1,noexec
    13                           	psect	maintext,global,class=CODE,merge=1,split=1,delta=2
    14                           	psect	text1,local,class=CODE,merge=1,delta=2
    15                           	psect	text2,local,class=CODE,merge=1,delta=2
    16                           	psect	text3,local,class=CODE,merge=1,delta=2,group=1
    17                           	psect	text4,local,class=CODE,merge=1,delta=2
    18                           	psect	text5,local,class=CODE,merge=1,delta=2
    19                           	psect	text6,local,class=CODE,merge=1,delta=2
    20                           	psect	text7,local,class=CODE,merge=1,delta=2
    21                           	psect	text8,local,class=CODE,merge=1,delta=2
    22                           	psect	text9,local,class=CODE,merge=1,delta=2,group=1
    23                           	psect	text10,local,class=CODE,merge=1,delta=2,group=1
    24                           	psect	text11,local,class=CODE,merge=1,delta=2,group=1
    25                           	psect	text12,local,class=CODE,merge=1,delta=2,group=1
    26                           	psect	text13,local,class=CODE,merge=1,delta=2,group=1
    27                           	psect	text14,local,class=CODE,merge=1,delta=2
    28                           	psect	text15,local,class=CODE,merge=1,delta=2
    29                           	psect	text16,local,class=CODE,merge=1,delta=2
    30                           	psect	text17,local,class=CODE,merge=1,delta=2
    31                           	psect	text18,local,class=CODE,merge=1,delta=2
    32                           	psect	text19,local,class=CODE,merge=1,delta=2
    33                           	psect	text20,local,class=CODE,merge=1,delta=2
    34                           	psect	text21,local,class=CODE,merge=1,delta=2
    35                           	psect	text22,local,class=CODE,merge=1,delta=2
    36                           	psect	text23,local,class=CODE,merge=1,delta=2
    37                           	psect	text24,local,class=CODE,merge=1,delta=2
    38                           	psect	text25,local,class=CODE,merge=1,delta=2
    39                           	psect	text26,local,class=CODE,merge=1,delta=2
    40                           	psect	text27,local,class=CODE,merge=1,delta=2
    41                           	psect	text28,local,class=CODE,merge=1,delta=2
    42                           	psect	text29,local,class=CODE,merge=1,delta=2
    43                           	psect	text30,local,class=CODE,merge=1,delta=2
    44                           	psect	text31,local,class=CODE,merge=1,delta=2
    45                           	psect	text32,local,class=CODE,merge=1,delta=2
    46                           	psect	text33,local,class=CODE,merge=1,delta=2
    47                           	psect	text34,local,class=CODE,merge=1,delta=2
    48                           	psect	text35,local,class=CODE,merge=1,delta=2
    49                           	psect	text36,local,class=CODE,merge=1,delta=2
    50                           	psect	text37,local,class=CODE,merge=1,delta=2
    51                           	psect	text38,local,class=CODE,merge=1,delta=2
    52                           	psect	text39,local,class=CODE,merge=1,delta=2
    53                           	psect	intentry,global,class=CODE,delta=2
    54                           	psect	text41,local,class=CODE,merge=1,delta=2
    55                           	psect	text42,local,class=CODE,merge=1,delta=2
    56                           	psect	text43,local,class=CODE,merge=1,delta=2
    57                           	psect	text44,local,class=CODE,merge=1,delta=2
    58                           	psect	text45,local,class=CODE,merge=1,delta=2
    59                           	psect	text46,local,class=CODE,merge=1,delta=2
    60                           	psect	text47,local,class=CODE,merge=1,delta=2
    61                           	psect	text48,local,class=CODE,merge=1,delta=2
    62                           	psect	text49,local,class=CODE,merge=1,delta=2
    63                           	psect	text50,local,class=CODE,merge=1,delta=2
    64                           	psect	text51,local,class=CODE,merge=1,delta=2
    65                           	psect	text52,local,class=CODE,merge=1,delta=2
    66                           	psect	text53,local,class=CODE,merge=1,delta=2
    67                           	psect	text54,local,class=CODE,merge=1,delta=2
    68                           	psect	text55,local,class=CODE,merge=1,delta=2
    69                           	psect	text56,local,class=CODE,merge=1,delta=2
    70                           	psect	text57,local,class=CODE,merge=1,delta=2
    71                           	psect	text58,local,class=CODE,merge=1,delta=2
    72                           	psect	text59,local,class=CODE,merge=1,delta=2
    73                           	psect	text60,local,class=CODE,merge=1,delta=2
    74                           	psect	text61,local,class=CODE,merge=1,delta=2
    75                           	psect	text62,local,class=CODE,merge=1,delta=2
    76                           	psect	text63,local,class=CODE,merge=1,delta=2
    77                           	psect	text64,local,class=CODE,merge=1,delta=2
    78                           	psect	text65,local,class=CODE,merge=1,delta=2
    79                           	psect	config,global,abs,ovrld,class=CONFIG,space=4,delta=2,noexec
    80                           	dabs	1,0x7E,2
    81  0000                     
    82                           ; Version 2.20
    83                           ; Generated 12/02/2020 GMT
    84                           ; 
    85                           ; Copyright © 2020, Microchip Technology Inc. and its subsidiaries ("Microchip")
    86                           ; All rights reserved.
    87                           ; 
    88                           ; This software is developed by Microchip Technology Inc. and its subsidiaries ("Microch
      +                          ip").
    89                           ; 
    90                           ; Redistribution and use in source and binary forms, with or without modification, are
    91                           ; permitted provided that the following conditions are met:
    92                           ; 
    93                           ;     1. Redistributions of source code must retain the above copyright notice, this lis
      +                          t of
    94                           ;        conditions and the following disclaimer.
    95                           ; 
    96                           ;     2. Redistributions in binary form must reproduce the above copyright notice, this 
      +                          list
    97                           ;        of conditions and the following disclaimer in the documentation and/or other
    98                           ;        materials provided with the distribution.
    99                           ; 
   100                           ;     3. Microchip's name may not be used to endorse or promote products derived from th
      +                          is
   101                           ;        software without specific prior written permission.
   102                           ; 
   103                           ; THIS SOFTWARE IS PROVIDED BY MICROCHIP "AS IS" AND ANY EXPRESS OR IMPLIED WARRANTIES,
   104                           ; INCLUDING, BUT NOT LIMITED TO, THE IMPLIED WARRANTIES OF MERCHANTABILITY AND FITNESS F
      +                          OR
   105                           ; PURPOSE ARE DISCLAIMED.  IN NO EVENT SHALL MICROCHIP BE LIABLE FOR ANY DIRECT, INDIREC
      +                          T,
   106                           ; INCIDENTAL, SPECIAL, EXEMPLARY, OR CONSEQUENTIAL DAMAGES (INCLUDING BUT NOT LIMITED TO
   107                           ; PROCUREMENT OF SUBSTITUTE GOODS OR SERVICES; LOSS OF USE, DATA OR PROFITS; OR BUSINESS
   108                           ; INTERRUPTION) HOWSOEVER CAUSED AND ON ANY THEORY OF LIABILITY, WHETHER IN CONTRACT, ST
      +                          RICT
   109                           ; LIABILITY, OR TORT (INCLUDING NEGLIGENCE OR OTHERWISE) ARISING IN ANY WAY OUT OF THE U
      +                          SE OF
   110                           ; THIS SOFTWARE, EVEN IF ADVISED OF THE POSSIBILITY OF SUCH DAMAGE.
   111                           ; 
   112                           ; 
   113                           ; Code-generator required, PIC16F1827 Definitions
   114                           ; 
   115                           ; SFR Addresses
   116  0000                     	;# 
   117  0001                     	;# 
   118  0002                     	;# 
   119  0003                     	;# 
   120  0004                     	;# 
   121  0005                     	;# 
   122  0006                     	;# 
   123  0007                     	;# 
   124  0008                     	;# 
   125  0009                     	;# 
   126  000A                     	;# 
   127  000B                     	;# 
   128  000C                     	;# 
   129  000D                     	;# 
   130  0011                     	;# 
   131  0012                     	;# 
   132  0013                     	;# 
   133  0014                     	;# 
   134  0015                     	;# 
   135  0016                     	;# 
   136  0016                     	;# 
   137  0017                     	;# 
   138  0018                     	;# 
   139  0019                     	;# 
   140  001A                     	;# 
   141  001B                     	;# 
   142  001C                     	;# 
   143  001E                     	;# 
   144  001F                     	;# 
   145  008C                     	;# 
   146  008D                     	;# 
   147  0091                     	;# 
   148  0092                     	;# 
   149  0093                     	;# 
   150  0094                     	;# 
   151  0095                     	;# 
   152  0096                     	;# 
   153  0097                     	;# 
   154  0098                     	;# 
   155  0099                     	;# 
   156  009A                     	;# 
   157  009B                     	;# 
   158  009B                     	;# 
   159  009C                     	;# 
   160  009D                     	;# 
   161  009E                     	;# 
   162  010C                     	;# 
   163  010D                     	;# 
   164  0111                     	;# 
   165  0112                     	;# 
   166  0113                     	;# 
   167  0114                     	;# 
   168  0115                     	;# 
   169  0116                     	;# 
   170  0117                     	;# 
   171  0118                     	;# 
   172  0119                     	;# 
   173  011A                     	;# 
   174  011B                     	;# 
   175  011D                     	;# 
   176  011E                     	;# 
   177  018C                     	;# 
   178  018D                     	;# 
   179  0191                     	;# 
   180  0191                     	;# 
   181  0192                     	;# 
   182  0193                     	;# 
   183  0193                     	;# 
   184  0193                     	;# 
   185  0194                     	;# 
   186  0195                     	;# 
   187  0196                     	;# 
   188  0199                     	;# 
   189  019A                     	;# 
   190  019B                     	;# 
   191  019B                     	;# 
   192  019B                     	;# 
   193  019B                     	;# 
   194  019C                     	;# 
   195  019C                     	;# 
   196  019D                     	;# 
   197  019E                     	;# 
   198  019F                     	;# 
   199  020C                     	;# 
   200  020D                     	;# 
   201  0211                     	;# 
   202  0211                     	;# 
   203  0212                     	;# 
   204  0212                     	;# 
   205  0213                     	;# 
   206  0213                     	;# 
   207  0214                     	;# 
   208  0214                     	;# 
   209  0215                     	;# 
   210  0215                     	;# 
   211  0215                     	;# 
   212  0216                     	;# 
   213  0216                     	;# 
   214  0217                     	;# 
   215  0217                     	;# 
   216  0219                     	;# 
   217  021A                     	;# 
   218  021B                     	;# 
   219  021C                     	;# 
   220  021D                     	;# 
   221  021E                     	;# 
   222  021F                     	;# 
   223  0291                     	;# 
   224  0291                     	;# 
   225  0292                     	;# 
   226  0293                     	;# 
   227  0294                     	;# 
   228  0295                     	;# 
   229  0295                     	;# 
   230  0296                     	;# 
   231  0298                     	;# 
   232  0298                     	;# 
   233  0299                     	;# 
   234  029A                     	;# 
   235  029B                     	;# 
   236  029C                     	;# 
   237  029C                     	;# 
   238  029D                     	;# 
   239  029E                     	;# 
   240  029E                     	;# 
   241  0311                     	;# 
   242  0311                     	;# 
   243  0312                     	;# 
   244  0313                     	;# 
   245  0318                     	;# 
   246  0318                     	;# 
   247  0319                     	;# 
   248  031A                     	;# 
   249  0394                     	;# 
   250  0395                     	;# 
   251  0396                     	;# 
   252  039A                     	;# 
   253  039C                     	;# 
   254  039D                     	;# 
   255  039E                     	;# 
   256  039F                     	;# 
   257  0415                     	;# 
   258  0416                     	;# 
   259  0417                     	;# 
   260  041C                     	;# 
   261  041D                     	;# 
   262  041E                     	;# 
   263  0FE4                     	;# 
   264  0FE5                     	;# 
   265  0FE6                     	;# 
   266  0FE7                     	;# 
   267  0FE8                     	;# 
   268  0FE9                     	;# 
   269  0FEA                     	;# 
   270  0FEB                     	;# 
   271  0FED                     	;# 
   272  0FEE                     	;# 
   273  0FEF                     	;# 
   274  0000                     	;# 
   275  0001                     	;# 
   276  0002                     	;# 
   277  0003                     	;# 
   278  0004                     	;# 
   279  0005                     	;# 
   280  0006                     	;# 
   281  0007                     	;# 
   282  0008                     	;# 
   283  0009                     	;# 
   284  000A                     	;# 
   285  000B                     	;# 
   286  000C                     	;# 
   287  000D                     	;# 
   288  0011                     	;# 
   289  0012                     	;# 
   290  0013                     	;# 
   291  0014                     	;# 
   292  0015                     	;# 
   293  0016                     	;# 
   294  0016                     	;# 
   295  0017                     	;# 
   296  0018                     	;# 
   297  0019                     	;# 
   298  001A                     	;# 
   299  001B                     	;# 
   300  001C                     	;# 
   301  001E                     	;# 
   302  001F                     	;# 
   303  008C                     	;# 
   304  008D                     	;# 
   305  0091                     	;# 
   306  0092                     	;# 
   307  0093                     	;# 
   308  0094                     	;# 
   309  0095                     	;# 
   310  0096                     	;# 
   311  0097                     	;# 
   312  0098                     	;# 
   313  0099                     	;# 
   314  009A                     	;# 
   315  009B                     	;# 
   316  009B                     	;# 
   317  009C                     	;# 
   318  009D                     	;# 
   319  009E                     	;# 
   320  010C                     	;# 
   321  010D                     	;# 
   322  0111                     	;# 
   323  0112                     	;# 
   324  0113                     	;# 
   325  0114                     	;# 
   326  0115                     	;# 
   327  0116                     	;# 
   328  0117                     	;# 
   329  0118                     	;# 
   330  0119                     	;# 
   331  011A                     	;# 
   332  011B                     	;# 
   333  011D                     	;# 
   334  011E                     	;# 
   335  018C                     	;# 
   336  018D                     	;# 
   337  0191                     	;# 
   338  0191                     	;# 
   339  0192                     	;# 
   340  0193                     	;# 
   341  0193                     	;# 
   342  0193                     	;# 
   343  0194                     	;# 
   344  0195                     	;# 
   345  0196                     	;# 
   346  0199                     	;# 
   347  019A                     	;# 
   348  019B                     	;# 
   349  019B                     	;# 
   350  019B                     	;# 
   351  019B                     	;# 
   352  019C                     	;# 
   353  019C                     	;# 
   354  019D                     	;# 
   355  019E                     	;# 
   356  019F                     	;# 
   357  020C                     	;# 
   358  020D                     	;# 
   359  0211                     	;# 
   360  0211                     	;# 
   361  0212                     	;# 
   362  0212                     	;# 
   363  0213                     	;# 
   364  0213                     	;# 
   365  0214                     	;# 
   366  0214                     	;# 
   367  0215                     	;# 
   368  0215                     	;# 
   369  0215                     	;# 
   370  0216                     	;# 
   371  0216                     	;# 
   372  0217                     	;# 
   373  0217                     	;# 
   374  0219                     	;# 
   375  021A                     	;# 
   376  021B                     	;# 
   377  021C                     	;# 
   378  021D                     	;# 
   379  021E                     	;# 
   380  021F                     	;# 
   381  0291                     	;# 
   382  0291                     	;# 
   383  0292                     	;# 
   384  0293                     	;# 
   385  0294                     	;# 
   386  0295                     	;# 
   387  0295                     	;# 
   388  0296                     	;# 
   389  0298                     	;# 
   390  0298                     	;# 
   391  0299                     	;# 
   392  029A                     	;# 
   393  029B                     	;# 
   394  029C                     	;# 
   395  029C                     	;# 
   396  029D                     	;# 
   397  029E                     	;# 
   398  029E                     	;# 
   399  0311                     	;# 
   400  0311                     	;# 
   401  0312                     	;# 
   402  0313                     	;# 
   403  0318                     	;# 
   404  0318                     	;# 
   405  0319                     	;# 
   406  031A                     	;# 
   407  0394                     	;# 
   408  0395                     	;# 
   409  0396                     	;# 
   410  039A                     	;# 
   411  039C                     	;# 
   412  039D                     	;# 
   413  039E                     	;# 
   414  039F                     	;# 
   415  0415                     	;# 
   416  0416                     	;# 
   417  0417                     	;# 
   418  041C                     	;# 
   419  041D                     	;# 
   420  041E                     	;# 
   421  0FE4                     	;# 
   422  0FE5                     	;# 
   423  0FE6                     	;# 
   424  0FE7                     	;# 
   425  0FE8                     	;# 
   426  0FE9                     	;# 
   427  0FEA                     	;# 
   428  0FEB                     	;# 
   429  0FED                     	;# 
   430  0FEE                     	;# 
   431  0FEF                     	;# 
   432  0000                     	;# 
   433  0001                     	;# 
   434  0002                     	;# 
   435  0003                     	;# 
   436  0004                     	;# 
   437  0005                     	;# 
   438  0006                     	;# 
   439  0007                     	;# 
   440  0008                     	;# 
   441  0009                     	;# 
   442  000A                     	;# 
   443  000B                     	;# 
   444  000C                     	;# 
   445  000D                     	;# 
   446  0011                     	;# 
   447  0012                     	;# 
   448  0013                     	;# 
   449  0014                     	;# 
   450  0015                     	;# 
   451  0016                     	;# 
   452  0016                     	;# 
   453  0017                     	;# 
   454  0018                     	;# 
   455  0019                     	;# 
   456  001A                     	;# 
   457  001B                     	;# 
   458  001C                     	;# 
   459  001E                     	;# 
   460  001F                     	;# 
   461  008C                     	;# 
   462  008D                     	;# 
   463  0091                     	;# 
   464  0092                     	;# 
   465  0093                     	;# 
   466  0094                     	;# 
   467  0095                     	;# 
   468  0096                     	;# 
   469  0097                     	;# 
   470  0098                     	;# 
   471  0099                     	;# 
   472  009A                     	;# 
   473  009B                     	;# 
   474  009B                     	;# 
   475  009C                     	;# 
   476  009D                     	;# 
   477  009E                     	;# 
   478  010C                     	;# 
   479  010D                     	;# 
   480  0111                     	;# 
   481  0112                     	;# 
   482  0113                     	;# 
   483  0114                     	;# 
   484  0115                     	;# 
   485  0116                     	;# 
   486  0117                     	;# 
   487  0118                     	;# 
   488  0119                     	;# 
   489  011A                     	;# 
   490  011B                     	;# 
   491  011D                     	;# 
   492  011E                     	;# 
   493  018C                     	;# 
   494  018D                     	;# 
   495  0191                     	;# 
   496  0191                     	;# 
   497  0192                     	;# 
   498  0193                     	;# 
   499  0193                     	;# 
   500  0193                     	;# 
   501  0194                     	;# 
   502  0195                     	;# 
   503  0196                     	;# 
   504  0199                     	;# 
   505  019A                     	;# 
   506  019B                     	;# 
   507  019B                     	;# 
   508  019B                     	;# 
   509  019B                     	;# 
   510  019C                     	;# 
   511  019C                     	;# 
   512  019D                     	;# 
   513  019E                     	;# 
   514  019F                     	;# 
   515  020C                     	;# 
   516  020D                     	;# 
   517  0211                     	;# 
   518  0211                     	;# 
   519  0212                     	;# 
   520  0212                     	;# 
   521  0213                     	;# 
   522  0213                     	;# 
   523  0214                     	;# 
   524  0214                     	;# 
   525  0215                     	;# 
   526  0215                     	;# 
   527  0215                     	;# 
   528  0216                     	;# 
   529  0216                     	;# 
   530  0217                     	;# 
   531  0217                     	;# 
   532  0219                     	;# 
   533  021A                     	;# 
   534  021B                     	;# 
   535  021C                     	;# 
   536  021D                     	;# 
   537  021E                     	;# 
   538  021F                     	;# 
   539  0291                     	;# 
   540  0291                     	;# 
   541  0292                     	;# 
   542  0293                     	;# 
   543  0294                     	;# 
   544  0295                     	;# 
   545  0295                     	;# 
   546  0296                     	;# 
   547  0298                     	;# 
   548  0298                     	;# 
   549  0299                     	;# 
   550  029A                     	;# 
   551  029B                     	;# 
   552  029C                     	;# 
   553  029C                     	;# 
   554  029D                     	;# 
   555  029E                     	;# 
   556  029E                     	;# 
   557  0311                     	;# 
   558  0311                     	;# 
   559  0312                     	;# 
   560  0313                     	;# 
   561  0318                     	;# 
   562  0318                     	;# 
   563  0319                     	;# 
   564  031A                     	;# 
   565  0394                     	;# 
   566  0395                     	;# 
   567  0396                     	;# 
   568  039A                     	;# 
   569  039C                     	;# 
   570  039D                     	;# 
   571  039E                     	;# 
   572  039F                     	;# 
   573  0415                     	;# 
   574  0416                     	;# 
   575  0417                     	;# 
   576  041C                     	;# 
   577  041D                     	;# 
   578  041E                     	;# 
   579  0FE4                     	;# 
   580  0FE5                     	;# 
   581  0FE6                     	;# 
   582  0FE7                     	;# 
   583  0FE8                     	;# 
   584  0FE9                     	;# 
   585  0FEA                     	;# 
   586  0FEB                     	;# 
   587  0FED                     	;# 
   588  0FEE                     	;# 
   589  0FEF                     	;# 
   590  0000                     	;# 
   591  0001                     	;# 
   592  0002                     	;# 
   593  0003                     	;# 
   594  0004                     	;# 
   595  0005                     	;# 
   596  0006                     	;# 
   597  0007                     	;# 
   598  0008                     	;# 
   599  0009                     	;# 
   600  000A                     	;# 
   601  000B                     	;# 
   602  000C                     	;# 
   603  000D                     	;# 
   604  0011                     	;# 
   605  0012                     	;# 
   606  0013                     	;# 
   607  0014                     	;# 
   608  0015                     	;# 
   609  0016                     	;# 
   610  0016                     	;# 
   611  0017                     	;# 
   612  0018                     	;# 
   613  0019                     	;# 
   614  001A                     	;# 
   615  001B                     	;# 
   616  001C                     	;# 
   617  001E                     	;# 
   618  001F                     	;# 
   619  008C                     	;# 
   620  008D                     	;# 
   621  0091                     	;# 
   622  0092                     	;# 
   623  0093                     	;# 
   624  0094                     	;# 
   625  0095                     	;# 
   626  0096                     	;# 
   627  0097                     	;# 
   628  0098                     	;# 
   629  0099                     	;# 
   630  009A                     	;# 
   631  009B                     	;# 
   632  009B                     	;# 
   633  009C                     	;# 
   634  009D                     	;# 
   635  009E                     	;# 
   636  010C                     	;# 
   637  010D                     	;# 
   638  0111                     	;# 
   639  0112                     	;# 
   640  0113                     	;# 
   641  0114                     	;# 
   642  0115                     	;# 
   643  0116                     	;# 
   644  0117                     	;# 
   645  0118                     	;# 
   646  0119                     	;# 
   647  011A                     	;# 
   648  011B                     	;# 
   649  011D                     	;# 
   650  011E                     	;# 
   651  018C                     	;# 
   652  018D                     	;# 
   653  0191                     	;# 
   654  0191                     	;# 
   655  0192                     	;# 
   656  0193                     	;# 
   657  0193                     	;# 
   658  0193                     	;# 
   659  0194                     	;# 
   660  0195                     	;# 
   661  0196                     	;# 
   662  0199                     	;# 
   663  019A                     	;# 
   664  019B                     	;# 
   665  019B                     	;# 
   666  019B                     	;# 
   667  019B                     	;# 
   668  019C                     	;# 
   669  019C                     	;# 
   670  019D                     	;# 
   671  019E                     	;# 
   672  019F                     	;# 
   673  020C                     	;# 
   674  020D                     	;# 
   675  0211                     	;# 
   676  0211                     	;# 
   677  0212                     	;# 
   678  0212                     	;# 
   679  0213                     	;# 
   680  0213                     	;# 
   681  0214                     	;# 
   682  0214                     	;# 
   683  0215                     	;# 
   684  0215                     	;# 
   685  0215                     	;# 
   686  0216                     	;# 
   687  0216                     	;# 
   688  0217                     	;# 
   689  0217                     	;# 
   690  0219                     	;# 
   691  021A                     	;# 
   692  021B                     	;# 
   693  021C                     	;# 
   694  021D                     	;# 
   695  021E                     	;# 
   696  021F                     	;# 
   697  0291                     	;# 
   698  0291                     	;# 
   699  0292                     	;# 
   700  0293                     	;# 
   701  0294                     	;# 
   702  0295                     	;# 
   703  0295                     	;# 
   704  0296                     	;# 
   705  0298                     	;# 
   706  0298                     	;# 
   707  0299                     	;# 
   708  029A                     	;# 
   709  029B                     	;# 
   710  029C                     	;# 
   711  029C                     	;# 
   712  029D                     	;# 
   713  029E                     	;# 
   714  029E                     	;# 
   715  0311                     	;# 
   716  0311                     	;# 
   717  0312                     	;# 
   718  0313                     	;# 
   719  0318                     	;# 
   720  0318                     	;# 
   721  0319                     	;# 
   722  031A                     	;# 
   723  0394                     	;# 
   724  0395                     	;# 
   725  0396                     	;# 
   726  039A                     	;# 
   727  039C                     	;# 
   728  039D                     	;# 
   729  039E                     	;# 
   730  039F                     	;# 
   731  0415                     	;# 
   732  0416                     	;# 
   733  0417                     	;# 
   734  041C                     	;# 
   735  041D                     	;# 
   736  041E                     	;# 
   737  0FE4                     	;# 
   738  0FE5                     	;# 
   739  0FE6                     	;# 
   740  0FE7                     	;# 
   741  0FE8                     	;# 
   742  0FE9                     	;# 
   743  0FEA                     	;# 
   744  0FEB                     	;# 
   745  0FED                     	;# 
   746  0FEE                     	;# 
   747  0FEF                     	;# 
   748  0000                     	;# 
   749  0001                     	;# 
   750  0002                     	;# 
   751  0003                     	;# 
   752  0004                     	;# 
   753  0005                     	;# 
   754  0006                     	;# 
   755  0007                     	;# 
   756  0008                     	;# 
   757  0009                     	;# 
   758  000A                     	;# 
   759  000B                     	;# 
   760  000C                     	;# 
   761  000D                     	;# 
   762  0011                     	;# 
   763  0012                     	;# 
   764  0013                     	;# 
   765  0014                     	;# 
   766  0015                     	;# 
   767  0016                     	;# 
   768  0016                     	;# 
   769  0017                     	;# 
   770  0018                     	;# 
   771  0019                     	;# 
   772  001A                     	;# 
   773  001B                     	;# 
   774  001C                     	;# 
   775  001E                     	;# 
   776  001F                     	;# 
   777  008C                     	;# 
   778  008D                     	;# 
   779  0091                     	;# 
   780  0092                     	;# 
   781  0093                     	;# 
   782  0094                     	;# 
   783  0095                     	;# 
   784  0096                     	;# 
   785  0097                     	;# 
   786  0098                     	;# 
   787  0099                     	;# 
   788  009A                     	;# 
   789  009B                     	;# 
   790  009B                     	;# 
   791  009C                     	;# 
   792  009D                     	;# 
   793  009E                     	;# 
   794  010C                     	;# 
   795  010D                     	;# 
   796  0111                     	;# 
   797  0112                     	;# 
   798  0113                     	;# 
   799  0114                     	;# 
   800  0115                     	;# 
   801  0116                     	;# 
   802  0117                     	;# 
   803  0118                     	;# 
   804  0119                     	;# 
   805  011A                     	;# 
   806  011B                     	;# 
   807  011D                     	;# 
   808  011E                     	;# 
   809  018C                     	;# 
   810  018D                     	;# 
   811  0191                     	;# 
   812  0191                     	;# 
   813  0192                     	;# 
   814  0193                     	;# 
   815  0193                     	;# 
   816  0193                     	;# 
   817  0194                     	;# 
   818  0195                     	;# 
   819  0196                     	;# 
   820  0199                     	;# 
   821  019A                     	;# 
   822  019B                     	;# 
   823  019B                     	;# 
   824  019B                     	;# 
   825  019B                     	;# 
   826  019C                     	;# 
   827  019C                     	;# 
   828  019D                     	;# 
   829  019E                     	;# 
   830  019F                     	;# 
   831  020C                     	;# 
   832  020D                     	;# 
   833  0211                     	;# 
   834  0211                     	;# 
   835  0212                     	;# 
   836  0212                     	;# 
   837  0213                     	;# 
   838  0213                     	;# 
   839  0214                     	;# 
   840  0214                     	;# 
   841  0215                     	;# 
   842  0215                     	;# 
   843  0215                     	;# 
   844  0216                     	;# 
   845  0216                     	;# 
   846  0217                     	;# 
   847  0217                     	;# 
   848  0219                     	;# 
   849  021A                     	;# 
   850  021B                     	;# 
   851  021C                     	;# 
   852  021D                     	;# 
   853  021E                     	;# 
   854  021F                     	;# 
   855  0291                     	;# 
   856  0291                     	;# 
   857  0292                     	;# 
   858  0293                     	;# 
   859  0294                     	;# 
   860  0295                     	;# 
   861  0295                     	;# 
   862  0296                     	;# 
   863  0298                     	;# 
   864  0298                     	;# 
   865  0299                     	;# 
   866  029A                     	;# 
   867  029B                     	;# 
   868  029C                     	;# 
   869  029C                     	;# 
   870  029D                     	;# 
   871  029E                     	;# 
   872  029E                     	;# 
   873  0311                     	;# 
   874  0311                     	;# 
   875  0312                     	;# 
   876  0313                     	;# 
   877  0318                     	;# 
   878  0318                     	;# 
   879  0319                     	;# 
   880  031A                     	;# 
   881  0394                     	;# 
   882  0395                     	;# 
   883  0396                     	;# 
   884  039A                     	;# 
   885  039C                     	;# 
   886  039D                     	;# 
   887  039E                     	;# 
   888  039F                     	;# 
   889  0415                     	;# 
   890  0416                     	;# 
   891  0417                     	;# 
   892  041C                     	;# 
   893  041D                     	;# 
   894  041E                     	;# 
   895  0FE4                     	;# 
   896  0FE5                     	;# 
   897  0FE6                     	;# 
   898  0FE7                     	;# 
   899  0FE8                     	;# 
   900  0FE9                     	;# 
   901  0FEA                     	;# 
   902  0FEB                     	;# 
   903  0FED                     	;# 
   904  0FEE                     	;# 
   905  0FEF                     	;# 
   906  0000                     	;# 
   907  0001                     	;# 
   908  0002                     	;# 
   909  0003                     	;# 
   910  0004                     	;# 
   911  0005                     	;# 
   912  0006                     	;# 
   913  0007                     	;# 
   914  0008                     	;# 
   915  0009                     	;# 
   916  000A                     	;# 
   917  000B                     	;# 
   918  000C                     	;# 
   919  000D                     	;# 
   920  0011                     	;# 
   921  0012                     	;# 
   922  0013                     	;# 
   923  0014                     	;# 
   924  0015                     	;# 
   925  0016                     	;# 
   926  0016                     	;# 
   927  0017                     	;# 
   928  0018                     	;# 
   929  0019                     	;# 
   930  001A                     	;# 
   931  001B                     	;# 
   932  001C                     	;# 
   933  001E                     	;# 
   934  001F                     	;# 
   935  008C                     	;# 
   936  008D                     	;# 
   937  0091                     	;# 
   938  0092                     	;# 
   939  0093                     	;# 
   940  0094                     	;# 
   941  0095                     	;# 
   942  0096                     	;# 
   943  0097                     	;# 
   944  0098                     	;# 
   945  0099                     	;# 
   946  009A                     	;# 
   947  009B                     	;# 
   948  009B                     	;# 
   949  009C                     	;# 
   950  009D                     	;# 
   951  009E                     	;# 
   952  010C                     	;# 
   953  010D                     	;# 
   954  0111                     	;# 
   955  0112                     	;# 
   956  0113                     	;# 
   957  0114                     	;# 
   958  0115                     	;# 
   959  0116                     	;# 
   960  0117                     	;# 
   961  0118                     	;# 
   962  0119                     	;# 
   963  011A                     	;# 
   964  011B                     	;# 
   965  011D                     	;# 
   966  011E                     	;# 
   967  018C                     	;# 
   968  018D                     	;# 
   969  0191                     	;# 
   970  0191                     	;# 
   971  0192                     	;# 
   972  0193                     	;# 
   973  0193                     	;# 
   974  0193                     	;# 
   975  0194                     	;# 
   976  0195                     	;# 
   977  0196                     	;# 
   978  0199                     	;# 
   979  019A                     	;# 
   980  019B                     	;# 
   981  019B                     	;# 
   982  019B                     	;# 
   983  019B                     	;# 
   984  019C                     	;# 
   985  019C                     	;# 
   986  019D                     	;# 
   987  019E                     	;# 
   988  019F                     	;# 
   989  020C                     	;# 
   990  020D                     	;# 
   991  0211                     	;# 
   992  0211                     	;# 
   993  0212                     	;# 
   994  0212                     	;# 
   995  0213                     	;# 
   996  0213                     	;# 
   997  0214                     	;# 
   998  0214                     	;# 
   999  0215                     	;# 
  1000  0215                     	;# 
  1001  0215                     	;# 
  1002  0216                     	;# 
  1003  0216                     	;# 
  1004  0217                     	;# 
  1005  0217                     	;# 
  1006  0219                     	;# 
  1007  021A                     	;# 
  1008  021B                     	;# 
  1009  021C                     	;# 
  1010  021D                     	;# 
  1011  021E                     	;# 
  1012  021F                     	;# 
  1013  0291                     	;# 
  1014  0291                     	;# 
  1015  0292                     	;# 
  1016  0293                     	;# 
  1017  0294                     	;# 
  1018  0295                     	;# 
  1019  0295                     	;# 
  1020  0296                     	;# 
  1021  0298                     	;# 
  1022  0298                     	;# 
  1023  0299                     	;# 
  1024  029A                     	;# 
  1025  029B                     	;# 
  1026  029C                     	;# 
  1027  029C                     	;# 
  1028  029D                     	;# 
  1029  029E                     	;# 
  1030  029E                     	;# 
  1031  0311                     	;# 
  1032  0311                     	;# 
  1033  0312                     	;# 
  1034  0313                     	;# 
  1035  0318                     	;# 
  1036  0318                     	;# 
  1037  0319                     	;# 
  1038  031A                     	;# 
  1039  0394                     	;# 
  1040  0395                     	;# 
  1041  0396                     	;# 
  1042  039A                     	;# 
  1043  039C                     	;# 
  1044  039D                     	;# 
  1045  039E                     	;# 
  1046  039F                     	;# 
  1047  0415                     	;# 
  1048  0416                     	;# 
  1049  0417                     	;# 
  1050  041C                     	;# 
  1051  041D                     	;# 
  1052  041E                     	;# 
  1053  0FE4                     	;# 
  1054  0FE5                     	;# 
  1055  0FE6                     	;# 
  1056  0FE7                     	;# 
  1057  0FE8                     	;# 
  1058  0FE9                     	;# 
  1059  0FEA                     	;# 
  1060  0FEB                     	;# 
  1061  0FED                     	;# 
  1062  0FEE                     	;# 
  1063  0FEF                     	;# 
  1064  0000                     	;# 
  1065  0001                     	;# 
  1066  0002                     	;# 
  1067  0003                     	;# 
  1068  0004                     	;# 
  1069  0005                     	;# 
  1070  0006                     	;# 
  1071  0007                     	;# 
  1072  0008                     	;# 
  1073  0009                     	;# 
  1074  000A                     	;# 
  1075  000B                     	;# 
  1076  000C                     	;# 
  1077  000D                     	;# 
  1078  0011                     	;# 
  1079  0012                     	;# 
  1080  0013                     	;# 
  1081  0014                     	;# 
  1082  0015                     	;# 
  1083  0016                     	;# 
  1084  0016                     	;# 
  1085  0017                     	;# 
  1086  0018                     	;# 
  1087  0019                     	;# 
  1088  001A                     	;# 
  1089  001B                     	;# 
  1090  001C                     	;# 
  1091  001E                     	;# 
  1092  001F                     	;# 
  1093  008C                     	;# 
  1094  008D                     	;# 
  1095  0091                     	;# 
  1096  0092                     	;# 
  1097  0093                     	;# 
  1098  0094                     	;# 
  1099  0095                     	;# 
  1100  0096                     	;# 
  1101  0097                     	;# 
  1102  0098                     	;# 
  1103  0099                     	;# 
  1104  009A                     	;# 
  1105  009B                     	;# 
  1106  009B                     	;# 
  1107  009C                     	;# 
  1108  009D                     	;# 
  1109  009E                     	;# 
  1110  010C                     	;# 
  1111  010D                     	;# 
  1112  0111                     	;# 
  1113  0112                     	;# 
  1114  0113                     	;# 
  1115  0114                     	;# 
  1116  0115                     	;# 
  1117  0116                     	;# 
  1118  0117                     	;# 
  1119  0118                     	;# 
  1120  0119                     	;# 
  1121  011A                     	;# 
  1122  011B                     	;# 
  1123  011D                     	;# 
  1124  011E                     	;# 
  1125  018C                     	;# 
  1126  018D                     	;# 
  1127  0191                     	;# 
  1128  0191                     	;# 
  1129  0192                     	;# 
  1130  0193                     	;# 
  1131  0193                     	;# 
  1132  0193                     	;# 
  1133  0194                     	;# 
  1134  0195                     	;# 
  1135  0196                     	;# 
  1136  0199                     	;# 
  1137  019A                     	;# 
  1138  019B                     	;# 
  1139  019B                     	;# 
  1140  019B                     	;# 
  1141  019B                     	;# 
  1142  019C                     	;# 
  1143  019C                     	;# 
  1144  019D                     	;# 
  1145  019E                     	;# 
  1146  019F                     	;# 
  1147  020C                     	;# 
  1148  020D                     	;# 
  1149  0211                     	;# 
  1150  0211                     	;# 
  1151  0212                     	;# 
  1152  0212                     	;# 
  1153  0213                     	;# 
  1154  0213                     	;# 
  1155  0214                     	;# 
  1156  0214                     	;# 
  1157  0215                     	;# 
  1158  0215                     	;# 
  1159  0215                     	;# 
  1160  0216                     	;# 
  1161  0216                     	;# 
  1162  0217                     	;# 
  1163  0217                     	;# 
  1164  0219                     	;# 
  1165  021A                     	;# 
  1166  021B                     	;# 
  1167  021C                     	;# 
  1168  021D                     	;# 
  1169  021E                     	;# 
  1170  021F                     	;# 
  1171  0291                     	;# 
  1172  0291                     	;# 
  1173  0292                     	;# 
  1174  0293                     	;# 
  1175  0294                     	;# 
  1176  0295                     	;# 
  1177  0295                     	;# 
  1178  0296                     	;# 
  1179  0298                     	;# 
  1180  0298                     	;# 
  1181  0299                     	;# 
  1182  029A                     	;# 
  1183  029B                     	;# 
  1184  029C                     	;# 
  1185  029C                     	;# 
  1186  029D                     	;# 
  1187  029E                     	;# 
  1188  029E                     	;# 
  1189  0311                     	;# 
  1190  0311                     	;# 
  1191  0312                     	;# 
  1192  0313                     	;# 
  1193  0318                     	;# 
  1194  0318                     	;# 
  1195  0319                     	;# 
  1196  031A                     	;# 
  1197  0394                     	;# 
  1198  0395                     	;# 
  1199  0396                     	;# 
  1200  039A                     	;# 
  1201  039C                     	;# 
  1202  039D                     	;# 
  1203  039E                     	;# 
  1204  039F                     	;# 
  1205  0415                     	;# 
  1206  0416                     	;# 
  1207  0417                     	;# 
  1208  041C                     	;# 
  1209  041D                     	;# 
  1210  041E                     	;# 
  1211  0FE4                     	;# 
  1212  0FE5                     	;# 
  1213  0FE6                     	;# 
  1214  0FE7                     	;# 
  1215  0FE8                     	;# 
  1216  0FE9                     	;# 
  1217  0FEA                     	;# 
  1218  0FEB                     	;# 
  1219  0FED                     	;# 
  1220  0FEE                     	;# 
  1221  0FEF                     	;# 
  1222  0000                     	;# 
  1223  0001                     	;# 
  1224  0002                     	;# 
  1225  0003                     	;# 
  1226  0004                     	;# 
  1227  0005                     	;# 
  1228  0006                     	;# 
  1229  0007                     	;# 
  1230  0008                     	;# 
  1231  0009                     	;# 
  1232  000A                     	;# 
  1233  000B                     	;# 
  1234  000C                     	;# 
  1235  000D                     	;# 
  1236  0011                     	;# 
  1237  0012                     	;# 
  1238  0013                     	;# 
  1239  0014                     	;# 
  1240  0015                     	;# 
  1241  0016                     	;# 
  1242  0016                     	;# 
  1243  0017                     	;# 
  1244  0018                     	;# 
  1245  0019                     	;# 
  1246  001A                     	;# 
  1247  001B                     	;# 
  1248  001C                     	;# 
  1249  001E                     	;# 
  1250  001F                     	;# 
  1251  008C                     	;# 
  1252  008D                     	;# 
  1253  0091                     	;# 
  1254  0092                     	;# 
  1255  0093                     	;# 
  1256  0094                     	;# 
  1257  0095                     	;# 
  1258  0096                     	;# 
  1259  0097                     	;# 
  1260  0098                     	;# 
  1261  0099                     	;# 
  1262  009A                     	;# 
  1263  009B                     	;# 
  1264  009B                     	;# 
  1265  009C                     	;# 
  1266  009D                     	;# 
  1267  009E                     	;# 
  1268  010C                     	;# 
  1269  010D                     	;# 
  1270  0111                     	;# 
  1271  0112                     	;# 
  1272  0113                     	;# 
  1273  0114                     	;# 
  1274  0115                     	;# 
  1275  0116                     	;# 
  1276  0117                     	;# 
  1277  0118                     	;# 
  1278  0119                     	;# 
  1279  011A                     	;# 
  1280  011B                     	;# 
  1281  011D                     	;# 
  1282  011E                     	;# 
  1283  018C                     	;# 
  1284  018D                     	;# 
  1285  0191                     	;# 
  1286  0191                     	;# 
  1287  0192                     	;# 
  1288  0193                     	;# 
  1289  0193                     	;# 
  1290  0193                     	;# 
  1291  0194                     	;# 
  1292  0195                     	;# 
  1293  0196                     	;# 
  1294  0199                     	;# 
  1295  019A                     	;# 
  1296  019B                     	;# 
  1297  019B                     	;# 
  1298  019B                     	;# 
  1299  019B                     	;# 
  1300  019C                     	;# 
  1301  019C                     	;# 
  1302  019D                     	;# 
  1303  019E                     	;# 
  1304  019F                     	;# 
  1305  020C                     	;# 
  1306  020D                     	;# 
  1307  0211                     	;# 
  1308  0211                     	;# 
  1309  0212                     	;# 
  1310  0212                     	;# 
  1311  0213                     	;# 
  1312  0213                     	;# 
  1313  0214                     	;# 
  1314  0214                     	;# 
  1315  0215                     	;# 
  1316  0215                     	;# 
  1317  0215                     	;# 
  1318  0216                     	;# 
  1319  0216                     	;# 
  1320  0217                     	;# 
  1321  0217                     	;# 
  1322  0219                     	;# 
  1323  021A                     	;# 
  1324  021B                     	;# 
  1325  021C                     	;# 
  1326  021D                     	;# 
  1327  021E                     	;# 
  1328  021F                     	;# 
  1329  0291                     	;# 
  1330  0291                     	;# 
  1331  0292                     	;# 
  1332  0293                     	;# 
  1333  0294                     	;# 
  1334  0295                     	;# 
  1335  0295                     	;# 
  1336  0296                     	;# 
  1337  0298                     	;# 
  1338  0298                     	;# 
  1339  0299                     	;# 
  1340  029A                     	;# 
  1341  029B                     	;# 
  1342  029C                     	;# 
  1343  029C                     	;# 
  1344  029D                     	;# 
  1345  029E                     	;# 
  1346  029E                     	;# 
  1347  0311                     	;# 
  1348  0311                     	;# 
  1349  0312                     	;# 
  1350  0313                     	;# 
  1351  0318                     	;# 
  1352  0318                     	;# 
  1353  0319                     	;# 
  1354  031A                     	;# 
  1355  0394                     	;# 
  1356  0395                     	;# 
  1357  0396                     	;# 
  1358  039A                     	;# 
  1359  039C                     	;# 
  1360  039D                     	;# 
  1361  039E                     	;# 
  1362  039F                     	;# 
  1363  0415                     	;# 
  1364  0416                     	;# 
  1365  0417                     	;# 
  1366  041C                     	;# 
  1367  041D                     	;# 
  1368  041E                     	;# 
  1369  0FE4                     	;# 
  1370  0FE5                     	;# 
  1371  0FE6                     	;# 
  1372  0FE7                     	;# 
  1373  0FE8                     	;# 
  1374  0FE9                     	;# 
  1375  0FEA                     	;# 
  1376  0FEB                     	;# 
  1377  0FED                     	;# 
  1378  0FEE                     	;# 
  1379  0FEF                     	;# 
  1380  0000                     	;# 
  1381  0001                     	;# 
  1382  0002                     	;# 
  1383  0003                     	;# 
  1384  0004                     	;# 
  1385  0005                     	;# 
  1386  0006                     	;# 
  1387  0007                     	;# 
  1388  0008                     	;# 
  1389  0009                     	;# 
  1390  000A                     	;# 
  1391  000B                     	;# 
  1392  000C                     	;# 
  1393  000D                     	;# 
  1394  0011                     	;# 
  1395  0012                     	;# 
  1396  0013                     	;# 
  1397  0014                     	;# 
  1398  0015                     	;# 
  1399  0016                     	;# 
  1400  0016                     	;# 
  1401  0017                     	;# 
  1402  0018                     	;# 
  1403  0019                     	;# 
  1404  001A                     	;# 
  1405  001B                     	;# 
  1406  001C                     	;# 
  1407  001E                     	;# 
  1408  001F                     	;# 
  1409  008C                     	;# 
  1410  008D                     	;# 
  1411  0091                     	;# 
  1412  0092                     	;# 
  1413  0093                     	;# 
  1414  0094                     	;# 
  1415  0095                     	;# 
  1416  0096                     	;# 
  1417  0097                     	;# 
  1418  0098                     	;# 
  1419  0099                     	;# 
  1420  009A                     	;# 
  1421  009B                     	;# 
  1422  009B                     	;# 
  1423  009C                     	;# 
  1424  009D                     	;# 
  1425  009E                     	;# 
  1426  010C                     	;# 
  1427  010D                     	;# 
  1428  0111                     	;# 
  1429  0112                     	;# 
  1430  0113                     	;# 
  1431  0114                     	;# 
  1432  0115                     	;# 
  1433  0116                     	;# 
  1434  0117                     	;# 
  1435  0118                     	;# 
  1436  0119                     	;# 
  1437  011A                     	;# 
  1438  011B                     	;# 
  1439  011D                     	;# 
  1440  011E                     	;# 
  1441  018C                     	;# 
  1442  018D                     	;# 
  1443  0191                     	;# 
  1444  0191                     	;# 
  1445  0192                     	;# 
  1446  0193                     	;# 
  1447  0193                     	;# 
  1448  0193                     	;# 
  1449  0194                     	;# 
  1450  0195                     	;# 
  1451  0196                     	;# 
  1452  0199                     	;# 
  1453  019A                     	;# 
  1454  019B                     	;# 
  1455  019B                     	;# 
  1456  019B                     	;# 
  1457  019B                     	;# 
  1458  019C                     	;# 
  1459  019C                     	;# 
  1460  019D                     	;# 
  1461  019E                     	;# 
  1462  019F                     	;# 
  1463  020C                     	;# 
  1464  020D                     	;# 
  1465  0211                     	;# 
  1466  0211                     	;# 
  1467  0212                     	;# 
  1468  0212                     	;# 
  1469  0213                     	;# 
  1470  0213                     	;# 
  1471  0214                     	;# 
  1472  0214                     	;# 
  1473  0215                     	;# 
  1474  0215                     	;# 
  1475  0215                     	;# 
  1476  0216                     	;# 
  1477  0216                     	;# 
  1478  0217                     	;# 
  1479  0217                     	;# 
  1480  0219                     	;# 
  1481  021A                     	;# 
  1482  021B                     	;# 
  1483  021C                     	;# 
  1484  021D                     	;# 
  1485  021E                     	;# 
  1486  021F                     	;# 
  1487  0291                     	;# 
  1488  0291                     	;# 
  1489  0292                     	;# 
  1490  0293                     	;# 
  1491  0294                     	;# 
  1492  0295                     	;# 
  1493  0295                     	;# 
  1494  0296                     	;# 
  1495  0298                     	;# 
  1496  0298                     	;# 
  1497  0299                     	;# 
  1498  029A                     	;# 
  1499  029B                     	;# 
  1500  029C                     	;# 
  1501  029C                     	;# 
  1502  029D                     	;# 
  1503  029E                     	;# 
  1504  029E                     	;# 
  1505  0311                     	;# 
  1506  0311                     	;# 
  1507  0312                     	;# 
  1508  0313                     	;# 
  1509  0318                     	;# 
  1510  0318                     	;# 
  1511  0319                     	;# 
  1512  031A                     	;# 
  1513  0394                     	;# 
  1514  0395                     	;# 
  1515  0396                     	;# 
  1516  039A                     	;# 
  1517  039C                     	;# 
  1518  039D                     	;# 
  1519  039E                     	;# 
  1520  039F                     	;# 
  1521  0415                     	;# 
  1522  0416                     	;# 
  1523  0417                     	;# 
  1524  041C                     	;# 
  1525  041D                     	;# 
  1526  041E                     	;# 
  1527  0FE4                     	;# 
  1528  0FE5                     	;# 
  1529  0FE6                     	;# 
  1530  0FE7                     	;# 
  1531  0FE8                     	;# 
  1532  0FE9                     	;# 
  1533  0FEA                     	;# 
  1534  0FEB                     	;# 
  1535  0FED                     	;# 
  1536  0FEE                     	;# 
  1537  0FEF                     	;# 
  1538  0000                     	;# 
  1539  0001                     	;# 
  1540  0002                     	;# 
  1541  0003                     	;# 
  1542  0004                     	;# 
  1543  0005                     	;# 
  1544  0006                     	;# 
  1545  0007                     	;# 
  1546  0008                     	;# 
  1547  0009                     	;# 
  1548  000A                     	;# 
  1549  000B                     	;# 
  1550  000C                     	;# 
  1551  000D                     	;# 
  1552  0011                     	;# 
  1553  0012                     	;# 
  1554  0013                     	;# 
  1555  0014                     	;# 
  1556  0015                     	;# 
  1557  0016                     	;# 
  1558  0016                     	;# 
  1559  0017                     	;# 
  1560  0018                     	;# 
  1561  0019                     	;# 
  1562  001A                     	;# 
  1563  001B                     	;# 
  1564  001C                     	;# 
  1565  001E                     	;# 
  1566  001F                     	;# 
  1567  008C                     	;# 
  1568  008D                     	;# 
  1569  0091                     	;# 
  1570  0092                     	;# 
  1571  0093                     	;# 
  1572  0094                     	;# 
  1573  0095                     	;# 
  1574  0096                     	;# 
  1575  0097                     	;# 
  1576  0098                     	;# 
  1577  0099                     	;# 
  1578  009A                     	;# 
  1579  009B                     	;# 
  1580  009B                     	;# 
  1581  009C                     	;# 
  1582  009D                     	;# 
  1583  009E                     	;# 
  1584  010C                     	;# 
  1585  010D                     	;# 
  1586  0111                     	;# 
  1587  0112                     	;# 
  1588  0113                     	;# 
  1589  0114                     	;# 
  1590  0115                     	;# 
  1591  0116                     	;# 
  1592  0117                     	;# 
  1593  0118                     	;# 
  1594  0119                     	;# 
  1595  011A                     	;# 
  1596  011B                     	;# 
  1597  011D                     	;# 
  1598  011E                     	;# 
  1599  018C                     	;# 
  1600  018D                     	;# 
  1601  0191                     	;# 
  1602  0191                     	;# 
  1603  0192                     	;# 
  1604  0193                     	;# 
  1605  0193                     	;# 
  1606  0193                     	;# 
  1607  0194                     	;# 
  1608  0195                     	;# 
  1609  0196                     	;# 
  1610  0199                     	;# 
  1611  019A                     	;# 
  1612  019B                     	;# 
  1613  019B                     	;# 
  1614  019B                     	;# 
  1615  019B                     	;# 
  1616  019C                     	;# 
  1617  019C                     	;# 
  1618  019D                     	;# 
  1619  019E                     	;# 
  1620  019F                     	;# 
  1621  020C                     	;# 
  1622  020D                     	;# 
  1623  0211                     	;# 
  1624  0211                     	;# 
  1625  0212                     	;# 
  1626  0212                     	;# 
  1627  0213                     	;# 
  1628  0213                     	;# 
  1629  0214                     	;# 
  1630  0214                     	;# 
  1631  0215                     	;# 
  1632  0215                     	;# 
  1633  0215                     	;# 
  1634  0216                     	;# 
  1635  0216                     	;# 
  1636  0217                     	;# 
  1637  0217                     	;# 
  1638  0219                     	;# 
  1639  021A                     	;# 
  1640  021B                     	;# 
  1641  021C                     	;# 
  1642  021D                     	;# 
  1643  021E                     	;# 
  1644  021F                     	;# 
  1645  0291                     	;# 
  1646  0291                     	;# 
  1647  0292                     	;# 
  1648  0293                     	;# 
  1649  0294                     	;# 
  1650  0295                     	;# 
  1651  0295                     	;# 
  1652  0296                     	;# 
  1653  0298                     	;# 
  1654  0298                     	;# 
  1655  0299                     	;# 
  1656  029A                     	;# 
  1657  029B                     	;# 
  1658  029C                     	;# 
  1659  029C                     	;# 
  1660  029D                     	;# 
  1661  029E                     	;# 
  1662  029E                     	;# 
  1663  0311                     	;# 
  1664  0311                     	;# 
  1665  0312                     	;# 
  1666  0313                     	;# 
  1667  0318                     	;# 
  1668  0318                     	;# 
  1669  0319                     	;# 
  1670  031A                     	;# 
  1671  0394                     	;# 
  1672  0395                     	;# 
  1673  0396                     	;# 
  1674  039A                     	;# 
  1675  039C                     	;# 
  1676  039D                     	;# 
  1677  039E                     	;# 
  1678  039F                     	;# 
  1679  0415                     	;# 
  1680  0416                     	;# 
  1681  0417                     	;# 
  1682  041C                     	;# 
  1683  041D                     	;# 
  1684  041E                     	;# 
  1685  0FE4                     	;# 
  1686  0FE5                     	;# 
  1687  0FE6                     	;# 
  1688  0FE7                     	;# 
  1689  0FE8                     	;# 
  1690  0FE9                     	;# 
  1691  0FEA                     	;# 
  1692  0FEB                     	;# 
  1693  0FED                     	;# 
  1694  0FEE                     	;# 
  1695  0FEF                     	;# 
  1696  0000                     	;# 
  1697  0001                     	;# 
  1698  0002                     	;# 
  1699  0003                     	;# 
  1700  0004                     	;# 
  1701  0005                     	;# 
  1702  0006                     	;# 
  1703  0007                     	;# 
  1704  0008                     	;# 
  1705  0009                     	;# 
  1706  000A                     	;# 
  1707  000B                     	;# 
  1708  000C                     	;# 
  1709  000D                     	;# 
  1710  0011                     	;# 
  1711  0012                     	;# 
  1712  0013                     	;# 
  1713  0014                     	;# 
  1714  0015                     	;# 
  1715  0016                     	;# 
  1716  0016                     	;# 
  1717  0017                     	;# 
  1718  0018                     	;# 
  1719  0019                     	;# 
  1720  001A                     	;# 
  1721  001B                     	;# 
  1722  001C                     	;# 
  1723  001E                     	;# 
  1724  001F                     	;# 
  1725  008C                     	;# 
  1726  008D                     	;# 
  1727  0091                     	;# 
  1728  0092                     	;# 
  1729  0093                     	;# 
  1730  0094                     	;# 
  1731  0095                     	;# 
  1732  0096                     	;# 
  1733  0097                     	;# 
  1734  0098                     	;# 
  1735  0099                     	;# 
  1736  009A                     	;# 
  1737  009B                     	;# 
  1738  009B                     	;# 
  1739  009C                     	;# 
  1740  009D                     	;# 
  1741  009E                     	;# 
  1742  010C                     	;# 
  1743  010D                     	;# 
  1744  0111                     	;# 
  1745  0112                     	;# 
  1746  0113                     	;# 
  1747  0114                     	;# 
  1748  0115                     	;# 
  1749  0116                     	;# 
  1750  0117                     	;# 
  1751  0118                     	;# 
  1752  0119                     	;# 
  1753  011A                     	;# 
  1754  011B                     	;# 
  1755  011D                     	;# 
  1756  011E                     	;# 
  1757  018C                     	;# 
  1758  018D                     	;# 
  1759  0191                     	;# 
  1760  0191                     	;# 
  1761  0192                     	;# 
  1762  0193                     	;# 
  1763  0193                     	;# 
  1764  0193                     	;# 
  1765  0194                     	;# 
  1766  0195                     	;# 
  1767  0196                     	;# 
  1768  0199                     	;# 
  1769  019A                     	;# 
  1770  019B                     	;# 
  1771  019B                     	;# 
  1772  019B                     	;# 
  1773  019B                     	;# 
  1774  019C                     	;# 
  1775  019C                     	;# 
  1776  019D                     	;# 
  1777  019E                     	;# 
  1778  019F                     	;# 
  1779  020C                     	;# 
  1780  020D                     	;# 
  1781  0211                     	;# 
  1782  0211                     	;# 
  1783  0212                     	;# 
  1784  0212                     	;# 
  1785  0213                     	;# 
  1786  0213                     	;# 
  1787  0214                     	;# 
  1788  0214                     	;# 
  1789  0215                     	;# 
  1790  0215                     	;# 
  1791  0215                     	;# 
  1792  0216                     	;# 
  1793  0216                     	;# 
  1794  0217                     	;# 
  1795  0217                     	;# 
  1796  0219                     	;# 
  1797  021A                     	;# 
  1798  021B                     	;# 
  1799  021C                     	;# 
  1800  021D                     	;# 
  1801  021E                     	;# 
  1802  021F                     	;# 
  1803  0291                     	;# 
  1804  0291                     	;# 
  1805  0292                     	;# 
  1806  0293                     	;# 
  1807  0294                     	;# 
  1808  0295                     	;# 
  1809  0295                     	;# 
  1810  0296                     	;# 
  1811  0298                     	;# 
  1812  0298                     	;# 
  1813  0299                     	;# 
  1814  029A                     	;# 
  1815  029B                     	;# 
  1816  029C                     	;# 
  1817  029C                     	;# 
  1818  029D                     	;# 
  1819  029E                     	;# 
  1820  029E                     	;# 
  1821  0311                     	;# 
  1822  0311                     	;# 
  1823  0312                     	;# 
  1824  0313                     	;# 
  1825  0318                     	;# 
  1826  0318                     	;# 
  1827  0319                     	;# 
  1828  031A                     	;# 
  1829  0394                     	;# 
  1830  0395                     	;# 
  1831  0396                     	;# 
  1832  039A                     	;# 
  1833  039C                     	;# 
  1834  039D                     	;# 
  1835  039E                     	;# 
  1836  039F                     	;# 
  1837  0415                     	;# 
  1838  0416                     	;# 
  1839  0417                     	;# 
  1840  041C                     	;# 
  1841  041D                     	;# 
  1842  041E                     	;# 
  1843  0FE4                     	;# 
  1844  0FE5                     	;# 
  1845  0FE6                     	;# 
  1846  0FE7                     	;# 
  1847  0FE8                     	;# 
  1848  0FE9                     	;# 
  1849  0FEA                     	;# 
  1850  0FEB                     	;# 
  1851  0FED                     	;# 
  1852  0FEE                     	;# 
  1853  0FEF                     	;# 
  1854  0000                     	;# 
  1855  0001                     	;# 
  1856  0002                     	;# 
  1857  0003                     	;# 
  1858  0004                     	;# 
  1859  0005                     	;# 
  1860  0006                     	;# 
  1861  0007                     	;# 
  1862  0008                     	;# 
  1863  0009                     	;# 
  1864  000A                     	;# 
  1865  000B                     	;# 
  1866  000C                     	;# 
  1867  000D                     	;# 
  1868  0011                     	;# 
  1869  0012                     	;# 
  1870  0013                     	;# 
  1871  0014                     	;# 
  1872  0015                     	;# 
  1873  0016                     	;# 
  1874  0016                     	;# 
  1875  0017                     	;# 
  1876  0018                     	;# 
  1877  0019                     	;# 
  1878  001A                     	;# 
  1879  001B                     	;# 
  1880  001C                     	;# 
  1881  001E                     	;# 
  1882  001F                     	;# 
  1883  008C                     	;# 
  1884  008D                     	;# 
  1885  0091                     	;# 
  1886  0092                     	;# 
  1887  0093                     	;# 
  1888  0094                     	;# 
  1889  0095                     	;# 
  1890  0096                     	;# 
  1891  0097                     	;# 
  1892  0098                     	;# 
  1893  0099                     	;# 
  1894  009A                     	;# 
  1895  009B                     	;# 
  1896  009B                     	;# 
  1897  009C                     	;# 
  1898  009D                     	;# 
  1899  009E                     	;# 
  1900  010C                     	;# 
  1901  010D                     	;# 
  1902  0111                     	;# 
  1903  0112                     	;# 
  1904  0113                     	;# 
  1905  0114                     	;# 
  1906  0115                     	;# 
  1907  0116                     	;# 
  1908  0117                     	;# 
  1909  0118                     	;# 
  1910  0119                     	;# 
  1911  011A                     	;# 
  1912  011B                     	;# 
  1913  011D                     	;# 
  1914  011E                     	;# 
  1915  018C                     	;# 
  1916  018D                     	;# 
  1917  0191                     	;# 
  1918  0191                     	;# 
  1919  0192                     	;# 
  1920  0193                     	;# 
  1921  0193                     	;# 
  1922  0193                     	;# 
  1923  0194                     	;# 
  1924  0195                     	;# 
  1925  0196                     	;# 
  1926  0199                     	;# 
  1927  019A                     	;# 
  1928  019B                     	;# 
  1929  019B                     	;# 
  1930  019B                     	;# 
  1931  019B                     	;# 
  1932  019C                     	;# 
  1933  019C                     	;# 
  1934  019D                     	;# 
  1935  019E                     	;# 
  1936  019F                     	;# 
  1937  020C                     	;# 
  1938  020D                     	;# 
  1939  0211                     	;# 
  1940  0211                     	;# 
  1941  0212                     	;# 
  1942  0212                     	;# 
  1943  0213                     	;# 
  1944  0213                     	;# 
  1945  0214                     	;# 
  1946  0214                     	;# 
  1947  0215                     	;# 
  1948  0215                     	;# 
  1949  0215                     	;# 
  1950  0216                     	;# 
  1951  0216                     	;# 
  1952  0217                     	;# 
  1953  0217                     	;# 
  1954  0219                     	;# 
  1955  021A                     	;# 
  1956  021B                     	;# 
  1957  021C                     	;# 
  1958  021D                     	;# 
  1959  021E                     	;# 
  1960  021F                     	;# 
  1961  0291                     	;# 
  1962  0291                     	;# 
  1963  0292                     	;# 
  1964  0293                     	;# 
  1965  0294                     	;# 
  1966  0295                     	;# 
  1967  0295                     	;# 
  1968  0296                     	;# 
  1969  0298                     	;# 
  1970  0298                     	;# 
  1971  0299                     	;# 
  1972  029A                     	;# 
  1973  029B                     	;# 
  1974  029C                     	;# 
  1975  029C                     	;# 
  1976  029D                     	;# 
  1977  029E                     	;# 
  1978  029E                     	;# 
  1979  0311                     	;# 
  1980  0311                     	;# 
  1981  0312                     	;# 
  1982  0313                     	;# 
  1983  0318                     	;# 
  1984  0318                     	;# 
  1985  0319                     	;# 
  1986  031A                     	;# 
  1987  0394                     	;# 
  1988  0395                     	;# 
  1989  0396                     	;# 
  1990  039A                     	;# 
  1991  039C                     	;# 
  1992  039D                     	;# 
  1993  039E                     	;# 
  1994  039F                     	;# 
  1995  0415                     	;# 
  1996  0416                     	;# 
  1997  0417                     	;# 
  1998  041C                     	;# 
  1999  041D                     	;# 
  2000  041E                     	;# 
  2001  0FE4                     	;# 
  2002  0FE5                     	;# 
  2003  0FE6                     	;# 
  2004  0FE7                     	;# 
  2005  0FE8                     	;# 
  2006  0FE9                     	;# 
  2007  0FEA                     	;# 
  2008  0FEB                     	;# 
  2009  0FED                     	;# 
  2010  0FEE                     	;# 
  2011  0FEF                     	;# 
  2012  0000                     	;# 
  2013  0001                     	;# 
  2014  0002                     	;# 
  2015  0003                     	;# 
  2016  0004                     	;# 
  2017  0005                     	;# 
  2018  0006                     	;# 
  2019  0007                     	;# 
  2020  0008                     	;# 
  2021  0009                     	;# 
  2022  000A                     	;# 
  2023  000B                     	;# 
  2024  000C                     	;# 
  2025  000D                     	;# 
  2026  0011                     	;# 
  2027  0012                     	;# 
  2028  0013                     	;# 
  2029  0014                     	;# 
  2030  0015                     	;# 
  2031  0016                     	;# 
  2032  0016                     	;# 
  2033  0017                     	;# 
  2034  0018                     	;# 
  2035  0019                     	;# 
  2036  001A                     	;# 
  2037  001B                     	;# 
  2038  001C                     	;# 
  2039  001E                     	;# 
  2040  001F                     	;# 
  2041  008C                     	;# 
  2042  008D                     	;# 
  2043  0091                     	;# 
  2044  0092                     	;# 
  2045  0093                     	;# 
  2046  0094                     	;# 
  2047  0095                     	;# 
  2048  0096                     	;# 
  2049  0097                     	;# 
  2050  0098                     	;# 
  2051  0099                     	;# 
  2052  009A                     	;# 
  2053  009B                     	;# 
  2054  009B                     	;# 
  2055  009C                     	;# 
  2056  009D                     	;# 
  2057  009E                     	;# 
  2058  010C                     	;# 
  2059  010D                     	;# 
  2060  0111                     	;# 
  2061  0112                     	;# 
  2062  0113                     	;# 
  2063  0114                     	;# 
  2064  0115                     	;# 
  2065  0116                     	;# 
  2066  0117                     	;# 
  2067  0118                     	;# 
  2068  0119                     	;# 
  2069  011A                     	;# 
  2070  011B                     	;# 
  2071  011D                     	;# 
  2072  011E                     	;# 
  2073  018C                     	;# 
  2074  018D                     	;# 
  2075  0191                     	;# 
  2076  0191                     	;# 
  2077  0192                     	;# 
  2078  0193                     	;# 
  2079  0193                     	;# 
  2080  0193                     	;# 
  2081  0194                     	;# 
  2082  0195                     	;# 
  2083  0196                     	;# 
  2084  0199                     	;# 
  2085  019A                     	;# 
  2086  019B                     	;# 
  2087  019B                     	;# 
  2088  019B                     	;# 
  2089  019B                     	;# 
  2090  019C                     	;# 
  2091  019C                     	;# 
  2092  019D                     	;# 
  2093  019E                     	;# 
  2094  019F                     	;# 
  2095  020C                     	;# 
  2096  020D                     	;# 
  2097  0211                     	;# 
  2098  0211                     	;# 
  2099  0212                     	;# 
  2100  0212                     	;# 
  2101  0213                     	;# 
  2102  0213                     	;# 
  2103  0214                     	;# 
  2104  0214                     	;# 
  2105  0215                     	;# 
  2106  0215                     	;# 
  2107  0215                     	;# 
  2108  0216                     	;# 
  2109  0216                     	;# 
  2110  0217                     	;# 
  2111  0217                     	;# 
  2112  0219                     	;# 
  2113  021A                     	;# 
  2114  021B                     	;# 
  2115  021C                     	;# 
  2116  021D                     	;# 
  2117  021E                     	;# 
  2118  021F                     	;# 
  2119  0291                     	;# 
  2120  0291                     	;# 
  2121  0292                     	;# 
  2122  0293                     	;# 
  2123  0294                     	;# 
  2124  0295                     	;# 
  2125  0295                     	;# 
  2126  0296                     	;# 
  2127  0298                     	;# 
  2128  0298                     	;# 
  2129  0299                     	;# 
  2130  029A                     	;# 
  2131  029B                     	;# 
  2132  029C                     	;# 
  2133  029C                     	;# 
  2134  029D                     	;# 
  2135  029E                     	;# 
  2136  029E                     	;# 
  2137  0311                     	;# 
  2138  0311                     	;# 
  2139  0312                     	;# 
  2140  0313                     	;# 
  2141  0318                     	;# 
  2142  0318                     	;# 
  2143  0319                     	;# 
  2144  031A                     	;# 
  2145  0394                     	;# 
  2146  0395                     	;# 
  2147  0396                     	;# 
  2148  039A                     	;# 
  2149  039C                     	;# 
  2150  039D                     	;# 
  2151  039E                     	;# 
  2152  039F                     	;# 
  2153  0415                     	;# 
  2154  0416                     	;# 
  2155  0417                     	;# 
  2156  041C                     	;# 
  2157  041D                     	;# 
  2158  041E                     	;# 
  2159  0FE4                     	;# 
  2160  0FE5                     	;# 
  2161  0FE6                     	;# 
  2162  0FE7                     	;# 
  2163  0FE8                     	;# 
  2164  0FE9                     	;# 
  2165  0FEA                     	;# 
  2166  0FEB                     	;# 
  2167  0FED                     	;# 
  2168  0FEE                     	;# 
  2169  0FEF                     	;# 
  2170  0000                     	;# 
  2171  0001                     	;# 
  2172  0002                     	;# 
  2173  0003                     	;# 
  2174  0004                     	;# 
  2175  0005                     	;# 
  2176  0006                     	;# 
  2177  0007                     	;# 
  2178  0008                     	;# 
  2179  0009                     	;# 
  2180  000A                     	;# 
  2181  000B                     	;# 
  2182  000C                     	;# 
  2183  000D                     	;# 
  2184  0011                     	;# 
  2185  0012                     	;# 
  2186  0013                     	;# 
  2187  0014                     	;# 
  2188  0015                     	;# 
  2189  0016                     	;# 
  2190  0016                     	;# 
  2191  0017                     	;# 
  2192  0018                     	;# 
  2193  0019                     	;# 
  2194  001A                     	;# 
  2195  001B                     	;# 
  2196  001C                     	;# 
  2197  001E                     	;# 
  2198  001F                     	;# 
  2199  008C                     	;# 
  2200  008D                     	;# 
  2201  0091                     	;# 
  2202  0092                     	;# 
  2203  0093                     	;# 
  2204  0094                     	;# 
  2205  0095                     	;# 
  2206  0096                     	;# 
  2207  0097                     	;# 
  2208  0098                     	;# 
  2209  0099                     	;# 
  2210  009A                     	;# 
  2211  009B                     	;# 
  2212  009B                     	;# 
  2213  009C                     	;# 
  2214  009D                     	;# 
  2215  009E                     	;# 
  2216  010C                     	;# 
  2217  010D                     	;# 
  2218  0111                     	;# 
  2219  0112                     	;# 
  2220  0113                     	;# 
  2221  0114                     	;# 
  2222  0115                     	;# 
  2223  0116                     	;# 
  2224  0117                     	;# 
  2225  0118                     	;# 
  2226  0119                     	;# 
  2227  011A                     	;# 
  2228  011B                     	;# 
  2229  011D                     	;# 
  2230  011E                     	;# 
  2231  018C                     	;# 
  2232  018D                     	;# 
  2233  0191                     	;# 
  2234  0191                     	;# 
  2235  0192                     	;# 
  2236  0193                     	;# 
  2237  0193                     	;# 
  2238  0193                     	;# 
  2239  0194                     	;# 
  2240  0195                     	;# 
  2241  0196                     	;# 
  2242  0199                     	;# 
  2243  019A                     	;# 
  2244  019B                     	;# 
  2245  019B                     	;# 
  2246  019B                     	;# 
  2247  019B                     	;# 
  2248  019C                     	;# 
  2249  019C                     	;# 
  2250  019D                     	;# 
  2251  019E                     	;# 
  2252  019F                     	;# 
  2253  020C                     	;# 
  2254  020D                     	;# 
  2255  0211                     	;# 
  2256  0211                     	;# 
  2257  0212                     	;# 
  2258  0212                     	;# 
  2259  0213                     	;# 
  2260  0213                     	;# 
  2261  0214                     	;# 
  2262  0214                     	;# 
  2263  0215                     	;# 
  2264  0215                     	;# 
  2265  0215                     	;# 
  2266  0216                     	;# 
  2267  0216                     	;# 
  2268  0217                     	;# 
  2269  0217                     	;# 
  2270  0219                     	;# 
  2271  021A                     	;# 
  2272  021B                     	;# 
  2273  021C                     	;# 
  2274  021D                     	;# 
  2275  021E                     	;# 
  2276  021F                     	;# 
  2277  0291                     	;# 
  2278  0291                     	;# 
  2279  0292                     	;# 
  2280  0293                     	;# 
  2281  0294                     	;# 
  2282  0295                     	;# 
  2283  0295                     	;# 
  2284  0296                     	;# 
  2285  0298                     	;# 
  2286  0298                     	;# 
  2287  0299                     	;# 
  2288  029A                     	;# 
  2289  029B                     	;# 
  2290  029C                     	;# 
  2291  029C                     	;# 
  2292  029D                     	;# 
  2293  029E                     	;# 
  2294  029E                     	;# 
  2295  0311                     	;# 
  2296  0311                     	;# 
  2297  0312                     	;# 
  2298  0313                     	;# 
  2299  0318                     	;# 
  2300  0318                     	;# 
  2301  0319                     	;# 
  2302  031A                     	;# 
  2303  0394                     	;# 
  2304  0395                     	;# 
  2305  0396                     	;# 
  2306  039A                     	;# 
  2307  039C                     	;# 
  2308  039D                     	;# 
  2309  039E                     	;# 
  2310  039F                     	;# 
  2311  0415                     	;# 
  2312  0416                     	;# 
  2313  0417                     	;# 
  2314  041C                     	;# 
  2315  041D                     	;# 
  2316  041E                     	;# 
  2317  0FE4                     	;# 
  2318  0FE5                     	;# 
  2319  0FE6                     	;# 
  2320  0FE7                     	;# 
  2321  0FE8                     	;# 
  2322  0FE9                     	;# 
  2323  0FEA                     	;# 
  2324  0FEB                     	;# 
  2325  0FED                     	;# 
  2326  0FEE                     	;# 
  2327  0FEF                     	;# 
  2328  0000                     	;# 
  2329  0001                     	;# 
  2330  0002                     	;# 
  2331  0003                     	;# 
  2332  0004                     	;# 
  2333  0005                     	;# 
  2334  0006                     	;# 
  2335  0007                     	;# 
  2336  0008                     	;# 
  2337  0009                     	;# 
  2338  000A                     	;# 
  2339  000B                     	;# 
  2340  000C                     	;# 
  2341  000D                     	;# 
  2342  0011                     	;# 
  2343  0012                     	;# 
  2344  0013                     	;# 
  2345  0014                     	;# 
  2346  0015                     	;# 
  2347  0016                     	;# 
  2348  0016                     	;# 
  2349  0017                     	;# 
  2350  0018                     	;# 
  2351  0019                     	;# 
  2352  001A                     	;# 
  2353  001B                     	;# 
  2354  001C                     	;# 
  2355  001E                     	;# 
  2356  001F                     	;# 
  2357  008C                     	;# 
  2358  008D                     	;# 
  2359  0091                     	;# 
  2360  0092                     	;# 
  2361  0093                     	;# 
  2362  0094                     	;# 
  2363  0095                     	;# 
  2364  0096                     	;# 
  2365  0097                     	;# 
  2366  0098                     	;# 
  2367  0099                     	;# 
  2368  009A                     	;# 
  2369  009B                     	;# 
  2370  009B                     	;# 
  2371  009C                     	;# 
  2372  009D                     	;# 
  2373  009E                     	;# 
  2374  010C                     	;# 
  2375  010D                     	;# 
  2376  0111                     	;# 
  2377  0112                     	;# 
  2378  0113                     	;# 
  2379  0114                     	;# 
  2380  0115                     	;# 
  2381  0116                     	;# 
  2382  0117                     	;# 
  2383  0118                     	;# 
  2384  0119                     	;# 
  2385  011A                     	;# 
  2386  011B                     	;# 
  2387  011D                     	;# 
  2388  011E                     	;# 
  2389  018C                     	;# 
  2390  018D                     	;# 
  2391  0191                     	;# 
  2392  0191                     	;# 
  2393  0192                     	;# 
  2394  0193                     	;# 
  2395  0193                     	;# 
  2396  0193                     	;# 
  2397  0194                     	;# 
  2398  0195                     	;# 
  2399  0196                     	;# 
  2400  0199                     	;# 
  2401  019A                     	;# 
  2402  019B                     	;# 
  2403  019B                     	;# 
  2404  019B                     	;# 
  2405  019B                     	;# 
  2406  019C                     	;# 
  2407  019C                     	;# 
  2408  019D                     	;# 
  2409  019E                     	;# 
  2410  019F                     	;# 
  2411  020C                     	;# 
  2412  020D                     	;# 
  2413  0211                     	;# 
  2414  0211                     	;# 
  2415  0212                     	;# 
  2416  0212                     	;# 
  2417  0213                     	;# 
  2418  0213                     	;# 
  2419  0214                     	;# 
  2420  0214                     	;# 
  2421  0215                     	;# 
  2422  0215                     	;# 
  2423  0215                     	;# 
  2424  0216                     	;# 
  2425  0216                     	;# 
  2426  0217                     	;# 
  2427  0217                     	;# 
  2428  0219                     	;# 
  2429  021A                     	;# 
  2430  021B                     	;# 
  2431  021C                     	;# 
  2432  021D                     	;# 
  2433  021E                     	;# 
  2434  021F                     	;# 
  2435  0291                     	;# 
  2436  0291                     	;# 
  2437  0292                     	;# 
  2438  0293                     	;# 
  2439  0294                     	;# 
  2440  0295                     	;# 
  2441  0295                     	;# 
  2442  0296                     	;# 
  2443  0298                     	;# 
  2444  0298                     	;# 
  2445  0299                     	;# 
  2446  029A                     	;# 
  2447  029B                     	;# 
  2448  029C                     	;# 
  2449  029C                     	;# 
  2450  029D                     	;# 
  2451  029E                     	;# 
  2452  029E                     	;# 
  2453  0311                     	;# 
  2454  0311                     	;# 
  2455  0312                     	;# 
  2456  0313                     	;# 
  2457  0318                     	;# 
  2458  0318                     	;# 
  2459  0319                     	;# 
  2460  031A                     	;# 
  2461  0394                     	;# 
  2462  0395                     	;# 
  2463  0396                     	;# 
  2464  039A                     	;# 
  2465  039C                     	;# 
  2466  039D                     	;# 
  2467  039E                     	;# 
  2468  039F                     	;# 
  2469  0415                     	;# 
  2470  0416                     	;# 
  2471  0417                     	;# 
  2472  041C                     	;# 
  2473  041D                     	;# 
  2474  041E                     	;# 
  2475  0FE4                     	;# 
  2476  0FE5                     	;# 
  2477  0FE6                     	;# 
  2478  0FE7                     	;# 
  2479  0FE8                     	;# 
  2480  0FE9                     	;# 
  2481  0FEA                     	;# 
  2482  0FEB                     	;# 
  2483  0FED                     	;# 
  2484  0FEE                     	;# 
  2485  0FEF                     	;# 
  2486                           
  2487 ;; Function _EUSART_DefaultFramingErrorHandler is unused but had its address taken
  2488  0000                     
  2489 ;; Function _EUSART_DefaultOverrunErrorHandler is unused but had its address taken
  2490  0000                     
  2491 ;; Function _EUSART_DefaultErrorHandler is unused but had its address taken
  2492  0000                     
  2493                           	psect	nvBANK1
  2494  00A0                     __pnvBANK1:
  2495  00A0                     _TMR6_InterruptHandler:
  2496  00A0                     	ds	2
  2497  00A2                     _IOCBF5_InterruptHandler:
  2498  00A2                     	ds	2
  2499  00A4                     _IOCBF4_InterruptHandler:
  2500  00A4                     	ds	2
  2501  00A6                     _IOCBF3_InterruptHandler:
  2502  00A6                     	ds	2
  2503  00A8                     _IOCBF0_InterruptHandler:
  2504  00A8                     	ds	2
  2505  00AA                     _CCP4_CallBack:
  2506  00AA                     	ds	2
  2507  00AC                     _TMR4_InterruptHandler:
  2508  00AC                     	ds	2
  2509  00AE                     _timer1ReloadVal:
  2510  00AE                     	ds	2
  2511  00B0                     _EUSART_ErrorHandler:
  2512  00B0                     	ds	2
  2513  00B2                     _EUSART_OverrunErrorHandler:
  2514  00B2                     	ds	2
  2515  00B4                     _EUSART_FramingErrorHandler:
  2516  00B4                     	ds	2
  2517  000B                     _INTCONbits	set	11
  2518  0013                     _PIR3bits	set	19
  2519  001C                     _T2CONbits	set	28
  2520  001C                     _T2CON	set	28
  2521  001A                     _TMR2	set	26
  2522  001B                     _PR2	set	27
  2523  0019                     _T1GCONbits	set	25
  2524  0018                     _T1CONbits	set	24
  2525  0018                     _T1CON	set	24
  2526  0016                     _TMR1L	set	22
  2527  0017                     _TMR1H	set	23
  2528  0019                     _T1GCON	set	25
  2529  0011                     _PIR1bits	set	17
  2530  0095                     _OPTION_REGbits	set	149
  2531  008D                     _TRISB	set	141
  2532  008C                     _TRISA	set	140
  2533  009D                     _ADCON0bits	set	157
  2534  009D                     _ADCON0	set	157
  2535  009C                     _ADRESH	set	156
  2536  009B                     _ADRESL	set	155
  2537  009E                     _ADCON1	set	158
  2538  0093                     _PIE3bits	set	147
  2539  0097                     _WDTCON	set	151
  2540  0098                     _OSCTUNE	set	152
  2541  0099                     _OSCCON	set	153
  2542  010C                     _LATAbits	set	268
  2543  011E                     _APFCON1	set	286
  2544  011D                     _APFCON0	set	285
  2545  010D                     _LATB	set	269
  2546  010C                     _LATA	set	268
  2547  0117                     _FVRCONbits	set	279
  2548  0117                     _FVRCON	set	279
  2549  0116                     _BORCON	set	278
  2550  018C                     _ANSELA	set	396
  2551  018D                     _ANSELB	set	397
  2552  019A                     _TXREG	set	410
  2553  0199                     _RCREG	set	409
  2554  019D                     _RCSTAbits	set	413
  2555  019E                     _TXSTAbits	set	414
  2556  019C                     _SPBRGH	set	412
  2557  019B                     _SPBRGL	set	411
  2558  019E                     _TXSTA	set	414
  2559  019D                     _RCSTA	set	413
  2560  019F                     _BAUDCON	set	415
  2561  020C                     _WPUA	set	524
  2562  020D                     _WPUB	set	525
  2563  0291                     _CCPR1L	set	657
  2564  0292                     _CCPR1H	set	658
  2565  0296                     _PSTR1CON	set	662
  2566  0294                     _PWM1CON	set	660
  2567  0295                     _ECCP1AS	set	661
  2568  0293                     _CCP1CON	set	659
  2569  029E                     _CCPTMRS0bits	set	670
  2570  0312                     _CCPR3H	set	786
  2571  0311                     _CCPR3L	set	785
  2572  0313                     _CCP3CON	set	787
  2573  0319                     _CCPR4H	set	793
  2574  0318                     _CCPR4L	set	792
  2575  031A                     _CCP4CON	set	794
  2576  0394                     _IOCBPbits	set	916
  2577  0395                     _IOCBNbits	set	917
  2578  0396                     _IOCBFbits	set	918
  2579  041E                     _T6CONbits	set	1054
  2580  041E                     _T6CON	set	1054
  2581  041C                     _TMR6	set	1052
  2582  041D                     _PR6	set	1053
  2583  0417                     _T4CONbits	set	1047
  2584  0417                     _T4CON	set	1047
  2585  0415                     _TMR4	set	1045
  2586  0416                     _PR4	set	1046
  2587                           
  2588                           	psect	cinit
  2589  0044                     start_initialization:	
  2590                           ; #config settings
  2591                           
  2592  0044                     __initialization:
  2593                           
  2594                           ; Clear objects allocated to COMMON
  2595  0044  01F7               	clrf	__pbssCOMMON& (0+127)
  2596  0045  01F8               	clrf	(__pbssCOMMON+1)& (0+127)
  2597  0046  01F9               	clrf	(__pbssCOMMON+2)& (0+127)
  2598  0047  01FA               	clrf	(__pbssCOMMON+3)& (0+127)
  2599  0048  01FB               	clrf	(__pbssCOMMON+4)& (0+127)
  2600  0049  01FC               	clrf	(__pbssCOMMON+5)& (0+127)
  2601                           
  2602                           ; Clear objects allocated to BANK0
  2603  004A  3068               	movlw	low __pbssBANK0
  2604  004B  0084               	movwf	4
  2605  004C  3000               	movlw	high __pbssBANK0
  2606  004D  0085               	movwf	5
  2607  004E  3007               	movlw	7
  2608  004F  318C  2473  3180   	fcall	clear_ram0
  2609                           
  2610                           ; Clear objects allocated to BANK1
  2611  0052  30B6               	movlw	low __pbssBANK1
  2612  0053  0084               	movwf	4
  2613  0054  3000               	movlw	high __pbssBANK1
  2614  0055  0085               	movwf	5
  2615  0056  3015               	movlw	21
  2616  0057  318C  2473  3180   	fcall	clear_ram0
  2617  005A                     end_of_initialization:	
  2618                           ;End of C runtime variable initialization code
  2619                           
  2620  005A                     __end_of__initialization:
  2621  005A  107E               	bcf	int$flags,0	;clear compiler interrupt flag (level 1)
  2622  005B  0020               	movlb	0
  2623  005C  3187  2F91         	ljmp	_main	;jump to C main() function
  2624                           
  2625                           	psect	bssCOMMON
  2626  0077                     __pbssCOMMON:
  2627  0077                     _aux_tempo:
  2628  0077                     	ds	2
  2629  0079                     _sentido:
  2630  0079                     	ds	2
  2631  007B                     _pulses:
  2632  007B                     	ds	2
  2633                           
  2634                           	psect	bssBANK0
  2635  0068                     __pbssBANK0:
  2636  0068                     _acabou_delay:
  2637  0068                     	ds	2
  2638  006A                     _aux_tempo_d2s:
  2639  006A                     	ds	2
  2640  006C                     _and_dst:
  2641  006C                     	ds	2
  2642  006E                     _eusartRxLastError:
  2643  006E                     	ds	1
  2644                           
  2645                           	psect	bssBANK1
  2646  00B6                     __pbssBANK1:
  2647  00B6                     _byte:
  2648  00B6                     	ds	5
  2649  00BB                     _estado:
  2650  00BB                     	ds	2
  2651  00BD                     _ADC_InterruptHandler:
  2652  00BD                     	ds	2
  2653  00BF                     _and_ating:
  2654  00BF                     	ds	1
  2655  00C0                     _state_motor:
  2656  00C0                     	ds	1
  2657  00C1                     _temp_mt:
  2658  00C1                     	ds	4
  2659  00C5                     _I_m:
  2660  00C5                     	ds	4
  2661  00C9                     _ccp_value:
  2662  00C9                     	ds	2
  2663                           
  2664                           	psect	clrtext
  2665  0C73                     clear_ram0:	
  2666                           ;	Called with FSR0 containing the base address, and
  2667                           ;	WREG with the size to clear
  2668                           
  2669  0C73  0064               	clrwdt	;clear the watchdog before getting into this loop
  2670  0C74                     clrloop0:
  2671  0C74  0180               	clrf	0	;clear RAM location pointed to by FSR
  2672  0C75  3101               	addfsr 0,1
  2673  0C76  0B89               	decfsz	9,f	;Have we reached the end of clearing yet?
  2674  0C77  2C74               	goto	clrloop0	;have we reached the end yet?
  2675  0C78  3400               	retlw	0	;all done for this memory range, return
  2676                           
  2677                           	psect	cstackBANK1
  2678  00CB                     __pcstackBANK1:
  2679  00CB                     comunicacao@speed:
  2680                           
  2681                           ; 4 bytes @ 0x0
  2682  00CB                     	ds	4
  2683  00CF                     comunicacao@position:
  2684                           
  2685                           ; 4 bytes @ 0x4
  2686  00CF                     	ds	4
  2687  00D3                     comunicacao@aux:
  2688                           
  2689                           ; 1 bytes @ 0x8
  2690  00D3                     	ds	1
  2691                           
  2692                           	psect	cstackCOMMON
  2693  0070                     __pcstackCOMMON:
  2694  0070                     ?_PIN_MANAGER_Initialize:
  2695  0070                     ?_OSCILLATOR_Initialize:	
  2696                           ; 1 bytes @ 0x0
  2697                           
  2698  0070                     ?_WDT_Initialize:	
  2699                           ; 1 bytes @ 0x0
  2700                           
  2701  0070                     ?_FVR_Initialize:	
  2702                           ; 1 bytes @ 0x0
  2703                           
  2704  0070                     ?_TMR4_Initialize:	
  2705                           ; 1 bytes @ 0x0
  2706                           
  2707  0070                     ?_TMR2_Initialize:	
  2708                           ; 1 bytes @ 0x0
  2709                           
  2710  0070                     ?_TMR6_Initialize:	
  2711                           ; 1 bytes @ 0x0
  2712                           
  2713  0070                     ?_CCP4_Initialize:	
  2714                           ; 1 bytes @ 0x0
  2715                           
  2716  0070                     ?_ADC_Initialize:	
  2717                           ; 1 bytes @ 0x0
  2718                           
  2719  0070                     ?_EPWM1_Initialize:	
  2720                           ; 1 bytes @ 0x0
  2721                           
  2722  0070                     ?_PWM3_Initialize:	
  2723                           ; 1 bytes @ 0x0
  2724                           
  2725  0070                     ?_TMR1_Initialize:	
  2726                           ; 1 bytes @ 0x0
  2727                           
  2728  0070                     ?_TMR4_DefaultInterruptHandler:	
  2729                           ; 1 bytes @ 0x0
  2730                           
  2731  0070                     ??_TMR4_DefaultInterruptHandler:	
  2732                           ; 1 bytes @ 0x0
  2733                           
  2734  0070                     ?_PIN_MANAGER_IOC:	
  2735                           ; 1 bytes @ 0x0
  2736                           
  2737  0070                     ?_TMR6_ISR:	
  2738                           ; 1 bytes @ 0x0
  2739                           
  2740  0070                     ??_TMR6_ISR:	
  2741                           ; 1 bytes @ 0x0
  2742                           
  2743  0070                     ?_CCP4_CaptureISR:	
  2744                           ; 1 bytes @ 0x0
  2745                           
  2746  0070                     ?_IOCBF0_DefaultInterruptHandler:	
  2747                           ; 1 bytes @ 0x0
  2748                           
  2749  0070                     ??_IOCBF0_DefaultInterruptHandler:	
  2750                           ; 1 bytes @ 0x0
  2751                           
  2752  0070                     ?_IOCBF3_DefaultInterruptHandler:	
  2753                           ; 1 bytes @ 0x0
  2754                           
  2755  0070                     ??_IOCBF3_DefaultInterruptHandler:	
  2756                           ; 1 bytes @ 0x0
  2757                           
  2758  0070                     ?_IOCBF4_DefaultInterruptHandler:	
  2759                           ; 1 bytes @ 0x0
  2760                           
  2761  0070                     ??_IOCBF4_DefaultInterruptHandler:	
  2762                           ; 1 bytes @ 0x0
  2763                           
  2764  0070                     ?_IOCBF5_DefaultInterruptHandler:	
  2765                           ; 1 bytes @ 0x0
  2766                           
  2767  0070                     ??_IOCBF5_DefaultInterruptHandler:	
  2768                           ; 1 bytes @ 0x0
  2769                           
  2770  0070                     ?_IOCBF0_ISR:	
  2771                           ; 1 bytes @ 0x0
  2772                           
  2773  0070                     ??_IOCBF0_ISR:	
  2774                           ; 1 bytes @ 0x0
  2775                           
  2776  0070                     ?_IOCBF3_ISR:	
  2777                           ; 1 bytes @ 0x0
  2778                           
  2779  0070                     ??_IOCBF3_ISR:	
  2780                           ; 1 bytes @ 0x0
  2781                           
  2782  0070                     ?_IOCBF4_ISR:	
  2783                           ; 1 bytes @ 0x0
  2784                           
  2785  0070                     ?_IOCBF5_ISR:	
  2786                           ; 1 bytes @ 0x0
  2787                           
  2788  0070                     ?_comunicacao:	
  2789                           ; 1 bytes @ 0x0
  2790                           
  2791  0070                     ?_controle:	
  2792                           ; 1 bytes @ 0x0
  2793                           
  2794  0070                     ?_movimento:	
  2795                           ; 1 bytes @ 0x0
  2796                           
  2797  0070                     ?_TMR6_WriteTimer:	
  2798                           ; 1 bytes @ 0x0
  2799                           
  2800  0070                     ?_TMR6_DefaultInterruptHandler:	
  2801                           ; 1 bytes @ 0x0
  2802                           
  2803  0070                     ??_TMR6_DefaultInterruptHandler:	
  2804                           ; 1 bytes @ 0x0
  2805                           
  2806  0070                     ?_EUSART_Initialize:	
  2807                           ; 1 bytes @ 0x0
  2808                           
  2809  0070                     ?_EUSART_is_tx_ready:	
  2810                           ; 1 bytes @ 0x0
  2811                           
  2812  0070                     ??_EUSART_is_tx_ready:	
  2813                           ; 1 bytes @ 0x0
  2814                           
  2815  0070                     ?_EUSART_is_rx_ready:	
  2816                           ; 1 bytes @ 0x0
  2817                           
  2818  0070                     ?_EUSART_Read:	
  2819                           ; 1 bytes @ 0x0
  2820                           
  2821  0070                     ?_EUSART_Write:	
  2822                           ; 1 bytes @ 0x0
  2823                           
  2824  0070                     ??_EUSART_Write:	
  2825                           ; 1 bytes @ 0x0
  2826                           
  2827  0070                     ?_SYSTEM_Initialize:	
  2828                           ; 1 bytes @ 0x0
  2829                           
  2830  0070                     ?_TMR1_WriteTimer:	
  2831                           ; 1 bytes @ 0x0
  2832                           
  2833  0070                     ?_TMR4_ISR:	
  2834                           ; 1 bytes @ 0x0
  2835                           
  2836  0070                     ?_INTERRUPT_InterruptManager:	
  2837                           ; 1 bytes @ 0x0
  2838                           
  2839  0070                     ?_send_data:	
  2840                           ; 1 bytes @ 0x0
  2841                           
  2842  0070                     ?_delay_2s:	
  2843                           ; 1 bytes @ 0x0
  2844                           
  2845  0070                     ??_delay_2s:	
  2846                           ; 1 bytes @ 0x0
  2847                           
  2848  0070                     ?_sensor1:	
  2849                           ; 1 bytes @ 0x0
  2850                           
  2851  0070                     ??_sensor1:	
  2852                           ; 1 bytes @ 0x0
  2853                           
  2854  0070                     ?_sensor2:	
  2855                           ; 1 bytes @ 0x0
  2856                           
  2857  0070                     ??_sensor2:	
  2858                           ; 1 bytes @ 0x0
  2859                           
  2860  0070                     ?_sensor3:	
  2861                           ; 1 bytes @ 0x0
  2862                           
  2863  0070                     ??_sensor3:	
  2864                           ; 1 bytes @ 0x0
  2865                           
  2866  0070                     ?_sensor4:	
  2867                           ; 1 bytes @ 0x0
  2868                           
  2869  0070                     ??_sensor4:	
  2870                           ; 1 bytes @ 0x0
  2871                           
  2872  0070                     ?_main:	
  2873                           ; 1 bytes @ 0x0
  2874                           
  2875  0070                     _EUSART_is_tx_ready$167:	
  2876                           ; 1 bytes @ 0x0
  2877                           
  2878  0070                     EUSART_Write@txData:	
  2879                           ; 1 bytes @ 0x0
  2880                           
  2881  0070                     TMR1_WriteTimer@timerVal:	
  2882                           ; 1 bytes @ 0x0
  2883                           
  2884                           
  2885                           ; 2 bytes @ 0x0
  2886  0070                     	ds	1
  2887  0071                     ??_PIN_MANAGER_IOC:
  2888  0071                     ??_IOCBF4_ISR:	
  2889                           ; 1 bytes @ 0x1
  2890                           
  2891  0071                     ??_IOCBF5_ISR:	
  2892                           ; 1 bytes @ 0x1
  2893                           
  2894  0071                     ??_send_data:	
  2895                           ; 1 bytes @ 0x1
  2896                           
  2897                           
  2898                           ; 1 bytes @ 0x1
  2899  0071                     	ds	1
  2900  0072                     ??_TMR1_WriteTimer:
  2901  0072                     ?_CCP4_DefaultCallBack:	
  2902                           ; 1 bytes @ 0x2
  2903                           
  2904  0072                     ?_get_pulse:	
  2905                           ; 1 bytes @ 0x2
  2906                           
  2907  0072                     CCP4_DefaultCallBack@capturedValue:	
  2908                           ; 1 bytes @ 0x2
  2909                           
  2910  0072                     send_data@i:	
  2911                           ; 2 bytes @ 0x2
  2912                           
  2913  0072                     get_pulse@capturedValue:	
  2914                           ; 2 bytes @ 0x2
  2915                           
  2916                           
  2917                           ; 2 bytes @ 0x2
  2918  0072                     	ds	2
  2919  0074                     ??_CCP4_CaptureISR:
  2920  0074                     ??_TMR4_ISR:	
  2921                           ; 1 bytes @ 0x4
  2922                           
  2923  0074                     ??_CCP4_DefaultCallBack:	
  2924                           ; 1 bytes @ 0x4
  2925                           
  2926  0074                     ??_get_pulse:	
  2927                           ; 1 bytes @ 0x4
  2928                           
  2929                           
  2930                           ; 1 bytes @ 0x4
  2931  0074                     	ds	1
  2932  0075                     CCP4_CaptureISR@module:
  2933                           
  2934                           ; 2 bytes @ 0x5
  2935  0075                     	ds	2
  2936  0077                     ??_INTERRUPT_InterruptManager:
  2937                           
  2938                           	psect	cstackBANK0
  2939  0020                     __pcstackBANK0:	
  2940                           ; 1 bytes @ 0x7
  2941                           
  2942  0020                     ?_EUSART_SetFramingErrorHandler:
  2943  0020                     ?_EUSART_SetOverrunErrorHandler:	
  2944                           ; 1 bytes @ 0x0
  2945                           
  2946  0020                     ?_EUSART_SetErrorHandler:	
  2947                           ; 1 bytes @ 0x0
  2948                           
  2949  0020                     ??_OSCILLATOR_Initialize:	
  2950                           ; 1 bytes @ 0x0
  2951                           
  2952  0020                     ??_WDT_Initialize:	
  2953                           ; 1 bytes @ 0x0
  2954                           
  2955  0020                     ??_FVR_Initialize:	
  2956                           ; 1 bytes @ 0x0
  2957                           
  2958  0020                     ??_TMR2_Initialize:	
  2959                           ; 1 bytes @ 0x0
  2960                           
  2961  0020                     ??_ADC_Initialize:	
  2962                           ; 1 bytes @ 0x0
  2963                           
  2964  0020                     ??_EPWM1_Initialize:	
  2965                           ; 1 bytes @ 0x0
  2966                           
  2967  0020                     ??_PWM3_Initialize:	
  2968                           ; 1 bytes @ 0x0
  2969                           
  2970  0020                     ??_TMR1_Initialize:	
  2971                           ; 1 bytes @ 0x0
  2972                           
  2973  0020                     ?_TMR4_SetInterruptHandler:	
  2974                           ; 1 bytes @ 0x0
  2975                           
  2976  0020                     ?_CCP4_SetCallBack:	
  2977                           ; 1 bytes @ 0x0
  2978                           
  2979  0020                     ?_IOCBF0_SetInterruptHandler:	
  2980                           ; 1 bytes @ 0x0
  2981                           
  2982  0020                     ?_IOCBF3_SetInterruptHandler:	
  2983                           ; 1 bytes @ 0x0
  2984                           
  2985  0020                     ?_IOCBF4_SetInterruptHandler:	
  2986                           ; 1 bytes @ 0x0
  2987                           
  2988  0020                     ?_IOCBF5_SetInterruptHandler:	
  2989                           ; 1 bytes @ 0x0
  2990                           
  2991  0020                     ?_TMR6_SetInterruptHandler:	
  2992                           ; 1 bytes @ 0x0
  2993                           
  2994  0020                     ?_EPWM1_LoadDutyValue:	
  2995                           ; 1 bytes @ 0x0
  2996                           
  2997  0020                     ??_TMR6_WriteTimer:	
  2998                           ; 1 bytes @ 0x0
  2999                           
  3000  0020                     ??_EUSART_is_rx_ready:	
  3001                           ; 1 bytes @ 0x0
  3002                           
  3003  0020                     ??_EUSART_Read:	
  3004                           ; 1 bytes @ 0x0
  3005                           
  3006  0020                     ?_PWM3_LoadDutyValue:	
  3007                           ; 1 bytes @ 0x0
  3008                           
  3009  0020                     ?__Umul8_16:	
  3010                           ; 1 bytes @ 0x0
  3011                           
  3012  0020                     ?_ADC_GetConversion:	
  3013                           ; 2 bytes @ 0x0
  3014                           
  3015  0020                     ?___wmul:	
  3016                           ; 2 bytes @ 0x0
  3017                           
  3018  0020                     ?___fltol:	
  3019                           ; 2 bytes @ 0x0
  3020                           
  3021  0020                     TMR6_WriteTimer@timerVal:	
  3022                           ; 4 bytes @ 0x0
  3023                           
  3024  0020                     __Umul8_16@multiplicand:	
  3025                           ; 1 bytes @ 0x0
  3026                           
  3027  0020                     EUSART_SetFramingErrorHandler@interruptHandler:	
  3028                           ; 1 bytes @ 0x0
  3029                           
  3030  0020                     EUSART_SetOverrunErrorHandler@interruptHandler:	
  3031                           ; 2 bytes @ 0x0
  3032                           
  3033  0020                     EUSART_SetErrorHandler@interruptHandler:	
  3034                           ; 2 bytes @ 0x0
  3035                           
  3036  0020                     TMR4_SetInterruptHandler@InterruptHandler:	
  3037                           ; 2 bytes @ 0x0
  3038                           
  3039  0020                     CCP4_SetCallBack@customCallBack:	
  3040                           ; 2 bytes @ 0x0
  3041                           
  3042  0020                     IOCBF0_SetInterruptHandler@InterruptHandler:	
  3043                           ; 2 bytes @ 0x0
  3044                           
  3045  0020                     IOCBF3_SetInterruptHandler@InterruptHandler:	
  3046                           ; 2 bytes @ 0x0
  3047                           
  3048  0020                     IOCBF4_SetInterruptHandler@InterruptHandler:	
  3049                           ; 2 bytes @ 0x0
  3050                           
  3051  0020                     IOCBF5_SetInterruptHandler@InterruptHandler:	
  3052                           ; 2 bytes @ 0x0
  3053                           
  3054  0020                     PWM3_LoadDutyValue@dutyValue:	
  3055                           ; 2 bytes @ 0x0
  3056                           
  3057  0020                     EPWM1_LoadDutyValue@dutyValue:	
  3058                           ; 2 bytes @ 0x0
  3059                           
  3060  0020                     TMR6_SetInterruptHandler@InterruptHandler:	
  3061                           ; 2 bytes @ 0x0
  3062                           
  3063  0020                     ___wmul@multiplier:	
  3064                           ; 2 bytes @ 0x0
  3065                           
  3066  0020                     ___fltol@f1:	
  3067                           ; 2 bytes @ 0x0
  3068                           
  3069                           
  3070                           ; 4 bytes @ 0x0
  3071  0020                     	ds	2
  3072  0022                     ??_EUSART_SetFramingErrorHandler:
  3073  0022                     ??_EUSART_SetOverrunErrorHandler:	
  3074                           ; 1 bytes @ 0x2
  3075                           
  3076  0022                     ??_EUSART_SetErrorHandler:	
  3077                           ; 1 bytes @ 0x2
  3078                           
  3079  0022                     ??_PIN_MANAGER_Initialize:	
  3080                           ; 1 bytes @ 0x2
  3081                           
  3082  0022                     ??_TMR4_Initialize:	
  3083                           ; 1 bytes @ 0x2
  3084                           
  3085  0022                     ??_TMR6_Initialize:	
  3086                           ; 1 bytes @ 0x2
  3087                           
  3088  0022                     ??_CCP4_Initialize:	
  3089                           ; 1 bytes @ 0x2
  3090                           
  3091  0022                     ??_TMR4_SetInterruptHandler:	
  3092                           ; 1 bytes @ 0x2
  3093                           
  3094  0022                     ??_CCP4_SetCallBack:	
  3095                           ; 1 bytes @ 0x2
  3096                           
  3097  0022                     ??_IOCBF0_SetInterruptHandler:	
  3098                           ; 1 bytes @ 0x2
  3099                           
  3100  0022                     ??_IOCBF3_SetInterruptHandler:	
  3101                           ; 1 bytes @ 0x2
  3102                           
  3103  0022                     ??_IOCBF4_SetInterruptHandler:	
  3104                           ; 1 bytes @ 0x2
  3105                           
  3106  0022                     ??_IOCBF5_SetInterruptHandler:	
  3107                           ; 1 bytes @ 0x2
  3108                           
  3109  0022                     ??_TMR6_SetInterruptHandler:	
  3110                           ; 1 bytes @ 0x2
  3111                           
  3112  0022                     ??_EPWM1_LoadDutyValue:	
  3113                           ; 1 bytes @ 0x2
  3114                           
  3115  0022                     ??__Umul8_16:	
  3116                           ; 1 bytes @ 0x2
  3117                           
  3118  0022                     ??_EUSART_Initialize:	
  3119                           ; 1 bytes @ 0x2
  3120                           
  3121  0022                     ??_SYSTEM_Initialize:	
  3122                           ; 1 bytes @ 0x2
  3123                           
  3124  0022                     ??_ADC_GetConversion:	
  3125                           ; 1 bytes @ 0x2
  3126                           
  3127  0022                     ??_PWM3_LoadDutyValue:	
  3128                           ; 1 bytes @ 0x2
  3129                           
  3130  0022                     ___wmul@multiplicand:	
  3131                           ; 1 bytes @ 0x2
  3132                           
  3133                           
  3134                           ; 2 bytes @ 0x2
  3135  0022                     	ds	1
  3136  0023                     ADC_GetConversion@channel:
  3137                           
  3138                           ; 1 bytes @ 0x3
  3139  0023                     	ds	1
  3140  0024                     ??___wmul:
  3141  0024                     ??___fltol:	
  3142                           ; 1 bytes @ 0x4
  3143                           
  3144  0024                     ?___xxtofl:	
  3145                           ; 1 bytes @ 0x4
  3146                           
  3147  0024                     ___wmul@product:	
  3148                           ; 4 bytes @ 0x4
  3149                           
  3150  0024                     __Umul8_16@product:	
  3151                           ; 2 bytes @ 0x4
  3152                           
  3153  0024                     ___xxtofl@val:	
  3154                           ; 2 bytes @ 0x4
  3155                           
  3156                           
  3157                           ; 4 bytes @ 0x4
  3158  0024                     	ds	2
  3159  0026                     ??_movimento:
  3160  0026                     __Umul8_16@word_mpld:	
  3161                           ; 1 bytes @ 0x6
  3162                           
  3163                           
  3164                           ; 2 bytes @ 0x6
  3165  0026                     	ds	1
  3166  0027                     movimento@ilum:
  3167                           
  3168                           ; 2 bytes @ 0x7
  3169  0027                     	ds	1
  3170  0028                     ??___xxtofl:
  3171  0028                     __Umul8_16@multiplier:	
  3172                           ; 1 bytes @ 0x8
  3173                           
  3174                           
  3175                           ; 1 bytes @ 0x8
  3176  0028                     	ds	1
  3177  0029                     ___fltol@sign1:
  3178  0029                     movimento@destiny:	
  3179                           ; 1 bytes @ 0x9
  3180                           
  3181                           
  3182                           ; 2 bytes @ 0x9
  3183  0029                     	ds	1
  3184  002A                     ___fltol@exp1:
  3185                           
  3186                           ; 1 bytes @ 0xA
  3187  002A                     	ds	1
  3188  002B                     movimento@route:
  3189                           
  3190                           ; 2 bytes @ 0xB
  3191  002B                     	ds	1
  3192  002C                     ___xxtofl@sign:
  3193                           
  3194                           ; 1 bytes @ 0xC
  3195  002C                     	ds	1
  3196  002D                     ___xxtofl@exp:
  3197  002D                     movimento@a:	
  3198                           ; 1 bytes @ 0xD
  3199                           
  3200                           
  3201                           ; 2 bytes @ 0xD
  3202  002D                     	ds	1
  3203  002E                     ___xxtofl@arg:
  3204                           
  3205                           ; 4 bytes @ 0xE
  3206  002E                     	ds	1
  3207  002F                     movimento@min_dutyValue:
  3208                           
  3209                           ; 2 bytes @ 0xF
  3210  002F                     	ds	2
  3211  0031                     movimento@max_dutyValue:
  3212                           
  3213                           ; 2 bytes @ 0x11
  3214  0031                     	ds	1
  3215  0032                     ?___flmul:
  3216  0032                     ___flmul@b:	
  3217                           ; 4 bytes @ 0x12
  3218                           
  3219                           
  3220                           ; 4 bytes @ 0x12
  3221  0032                     	ds	1
  3222  0033                     movimento@dutyValue:
  3223                           
  3224                           ; 2 bytes @ 0x13
  3225  0033                     	ds	2
  3226  0035                     movimento@count:
  3227                           
  3228                           ; 2 bytes @ 0x15
  3229  0035                     	ds	1
  3230  0036                     ___flmul@a:
  3231                           
  3232                           ; 4 bytes @ 0x16
  3233  0036                     	ds	4
  3234  003A                     ??___flmul:
  3235                           
  3236                           ; 1 bytes @ 0x1A
  3237  003A                     	ds	5
  3238  003F                     ___flmul@sign:
  3239                           
  3240                           ; 1 bytes @ 0x1F
  3241  003F                     	ds	1
  3242  0040                     ___flmul@grs:
  3243                           
  3244                           ; 4 bytes @ 0x20
  3245  0040                     	ds	4
  3246  0044                     ___flmul@aexp:
  3247                           
  3248                           ; 1 bytes @ 0x24
  3249  0044                     	ds	1
  3250  0045                     ___flmul@bexp:
  3251                           
  3252                           ; 1 bytes @ 0x25
  3253  0045                     	ds	1
  3254  0046                     ___flmul@prod:
  3255                           
  3256                           ; 4 bytes @ 0x26
  3257  0046                     	ds	4
  3258  004A                     ___flmul@temp:
  3259                           
  3260                           ; 2 bytes @ 0x2A
  3261  004A                     	ds	2
  3262  004C                     ??_controle:
  3263  004C                     ?___fldiv:	
  3264                           ; 1 bytes @ 0x2C
  3265                           
  3266  004C                     ___fldiv@a:	
  3267                           ; 4 bytes @ 0x2C
  3268                           
  3269                           
  3270                           ; 4 bytes @ 0x2C
  3271  004C                     	ds	4
  3272  0050                     ___fldiv@b:
  3273                           
  3274                           ; 4 bytes @ 0x30
  3275  0050                     	ds	4
  3276  0054                     ??___fldiv:
  3277                           
  3278                           ; 1 bytes @ 0x34
  3279  0054                     	ds	5
  3280  0059                     ___fldiv@rem:
  3281                           
  3282                           ; 4 bytes @ 0x39
  3283  0059                     	ds	4
  3284  005D                     ___fldiv@sign:
  3285                           
  3286                           ; 1 bytes @ 0x3D
  3287  005D                     	ds	1
  3288  005E                     ___fldiv@new_exp:
  3289                           
  3290                           ; 2 bytes @ 0x3E
  3291  005E                     	ds	2
  3292  0060                     ___fldiv@grs:
  3293                           
  3294                           ; 4 bytes @ 0x40
  3295  0060                     	ds	4
  3296  0064                     ___fldiv@bexp:
  3297                           
  3298                           ; 1 bytes @ 0x44
  3299  0064                     	ds	1
  3300  0065                     ___fldiv@aexp:
  3301                           
  3302                           ; 1 bytes @ 0x45
  3303  0065                     	ds	1
  3304  0066                     ??_comunicacao:
  3305                           
  3306                           ; 1 bytes @ 0x46
  3307  0066                     	ds	2
  3308  0068                     ??_main:
  3309                           
  3310                           	psect	maintext
  3311  0791                     __pmaintext:	
  3312                           ; 1 bytes @ 0x48
  3313 ;;
  3314 ;;Main: autosize = 0, tempsize = 0, incstack = 0, save=0
  3315 ;;
  3316 ;; *************** function _main *****************
  3317 ;; Defined at:
  3318 ;;		line 115 in file "main.c"
  3319 ;; Parameters:    Size  Location     Type
  3320 ;;		None
  3321 ;; Auto vars:     Size  Location     Type
  3322 ;;		None
  3323 ;; Return value:  Size  Location     Type
  3324 ;;                  1    wreg      void 
  3325 ;; Registers used:
  3326 ;;		wreg, status,2, status,0, pclath, cstack
  3327 ;; Tracked objects:
  3328 ;;		On entry : B1F/0
  3329 ;;		On exit  : 0/0
  3330 ;;		Unchanged: 0/0
  3331 ;; Data sizes:     COMMON   BANK0   BANK1   BANK2   BANK3   BANK4
  3332 ;;      Params:         0       0       0       0       0       0
  3333 ;;      Locals:         0       0       0       0       0       0
  3334 ;;      Temps:          0       0       0       0       0       0
  3335 ;;      Totals:         0       0       0       0       0       0
  3336 ;;Total ram usage:        0 bytes
  3337 ;; Hardware stack levels required when called:    7
  3338 ;; This function calls:
  3339 ;;		_CCP4_SetCallBack
  3340 ;;		_IOCBF0_SetInterruptHandler
  3341 ;;		_IOCBF3_SetInterruptHandler
  3342 ;;		_IOCBF4_SetInterruptHandler
  3343 ;;		_IOCBF5_SetInterruptHandler
  3344 ;;		_SYSTEM_Initialize
  3345 ;;		_TMR4_SetInterruptHandler
  3346 ;;		_TMR6_SetInterruptHandler
  3347 ;;		_comunicacao
  3348 ;;		_controle
  3349 ;; This function is called by:
  3350 ;;		Startup code after reset
  3351 ;; This function uses a non-reentrant model
  3352 ;;
  3353                           
  3354                           
  3355                           ;psect for function _main
  3356  0791                     _main:
  3357  0791                     l3376:	
  3358                           ;incstack = 0
  3359                           ; Regs used in _main: [wreg+status,2+status,0+pclath+cstack]
  3360                           
  3361                           
  3362                           ;main.c: 119:     SYSTEM_Initialize();
  3363  0791  318E  26EC  3187   	fcall	_SYSTEM_Initialize
  3364  0794                     l3378:
  3365                           
  3366                           ;main.c: 120:     (INTCONbits.GIE = 1);
  3367  0794  178B               	bsf	11,7	;volatile
  3368  0795                     l3380:
  3369                           
  3370                           ;main.c: 121:     (INTCONbits.PEIE = 1);
  3371  0795  170B               	bsf	11,6	;volatile
  3372                           
  3373                           ;main.c: 124:     TMR4_SetInterruptHandler(send_data);
  3374  0796  3014               	movlw	low _send_data
  3375  0797  0020               	movlb	0	; select bank0
  3376  0798  00A0               	movwf	TMR4_SetInterruptHandler@InterruptHandler
  3377  0799  300F               	movlw	high _send_data
  3378  079A  00A1               	movwf	TMR4_SetInterruptHandler@InterruptHandler+1
  3379  079B  318C  24E1  3187   	fcall	_TMR4_SetInterruptHandler
  3380                           
  3381                           ;main.c: 125:     TMR6_SetInterruptHandler(delay_2s);
  3382  079E  30DE               	movlw	low _delay_2s
  3383  079F  0020               	movlb	0	; select bank0
  3384  07A0  00A0               	movwf	TMR6_SetInterruptHandler@InterruptHandler
  3385  07A1  300D               	movlw	high _delay_2s
  3386  07A2  00A1               	movwf	TMR6_SetInterruptHandler@InterruptHandler+1
  3387  07A3  318C  24EA  3187   	fcall	_TMR6_SetInterruptHandler
  3388                           
  3389                           ;main.c: 126:     IOCBF0_SetInterruptHandler(sensor1);
  3390  07A6  304D               	movlw	low _sensor1
  3391  07A7  0020               	movlb	0	; select bank0
  3392  07A8  00A0               	movwf	IOCBF0_SetInterruptHandler@InterruptHandler
  3393  07A9  300C               	movlw	high _sensor1
  3394  07AA  00A1               	movwf	IOCBF0_SetInterruptHandler@InterruptHandler+1
  3395  07AB  318C  24B4  3187   	fcall	_IOCBF0_SetInterruptHandler
  3396                           
  3397                           ;main.c: 127:     IOCBF3_SetInterruptHandler(sensor2);
  3398  07AE  3050               	movlw	low _sensor2
  3399  07AF  0020               	movlb	0	; select bank0
  3400  07B0  00A0               	movwf	IOCBF3_SetInterruptHandler@InterruptHandler
  3401  07B1  300C               	movlw	high _sensor2
  3402  07B2  00A1               	movwf	IOCBF3_SetInterruptHandler@InterruptHandler+1
  3403  07B3  318C  24BD  3187   	fcall	_IOCBF3_SetInterruptHandler
  3404                           
  3405                           ;main.c: 128:     IOCBF4_SetInterruptHandler(sensor3);
  3406  07B6  3061               	movlw	low _sensor3
  3407  07B7  0020               	movlb	0	; select bank0
  3408  07B8  00A0               	movwf	IOCBF4_SetInterruptHandler@InterruptHandler
  3409  07B9  300C               	movlw	high _sensor3
  3410  07BA  00A1               	movwf	IOCBF4_SetInterruptHandler@InterruptHandler+1
  3411  07BB  318C  24C6  3187   	fcall	_IOCBF4_SetInterruptHandler
  3412                           
  3413                           ;main.c: 129:     IOCBF5_SetInterruptHandler(sensor4);
  3414  07BE  3067               	movlw	low _sensor4
  3415  07BF  0020               	movlb	0	; select bank0
  3416  07C0  00A0               	movwf	IOCBF5_SetInterruptHandler@InterruptHandler
  3417  07C1  300C               	movlw	high _sensor4
  3418  07C2  00A1               	movwf	IOCBF5_SetInterruptHandler@InterruptHandler+1
  3419  07C3  318C  24CF  3187   	fcall	_IOCBF5_SetInterruptHandler
  3420                           
  3421                           ;main.c: 130:     CCP4_SetCallBack(get_pulse);
  3422  07C6  30C7               	movlw	low _get_pulse
  3423  07C7  0020               	movlb	0	; select bank0
  3424  07C8  00A0               	movwf	CCP4_SetCallBack@customCallBack
  3425  07C9  300E               	movlw	high _get_pulse
  3426  07CA  00A1               	movwf	CCP4_SetCallBack@customCallBack+1
  3427  07CB  318C  2490  3187   	fcall	_CCP4_SetCallBack
  3428  07CE                     l3382:
  3429                           
  3430                           ;main.c: 131:     PIE3bits.TMR6IE=0;
  3431  07CE  0021               	movlb	1	; select bank1
  3432  07CF  1193               	bcf	19,3	;volatile
  3433  07D0                     l590:	
  3434                           ;main.c: 138:     while (1)
  3435                           
  3436                           
  3437                           ;main.c: 139:     {;main.c: 140:        comunicacao ();
  3438  07D0  3184  2469  3187   	fcall	_comunicacao
  3439                           
  3440                           ;main.c: 141:        controle();
  3441  07D3  3187  2701  3187   	fcall	_controle
  3442  07D6  2FD0               	goto	l590
  3443  07D7  3180  2842         	ljmp	start
  3444  07D9                     __end_of_main:
  3445                           
  3446                           	psect	text1
  3447  0701                     __ptext1:	
  3448 ;; *************** function _controle *****************
  3449 ;; Defined at:
  3450 ;;		line 174 in file "main.c"
  3451 ;; Parameters:    Size  Location     Type
  3452 ;;		None
  3453 ;; Auto vars:     Size  Location     Type
  3454 ;;  tempo_espera    2    0        int 
  3455 ;;  count           2    0        int 
  3456 ;; Return value:  Size  Location     Type
  3457 ;;                  1    wreg      void 
  3458 ;; Registers used:
  3459 ;;		wreg, status,2, status,0, pclath, cstack
  3460 ;; Tracked objects:
  3461 ;;		On entry : 0/0
  3462 ;;		On exit  : 0/0
  3463 ;;		Unchanged: 0/0
  3464 ;; Data sizes:     COMMON   BANK0   BANK1   BANK2   BANK3   BANK4
  3465 ;;      Params:         0       0       0       0       0       0
  3466 ;;      Locals:         0       4       0       0       0       0
  3467 ;;      Temps:          0       4       0       0       0       0
  3468 ;;      Totals:         0       8       0       0       0       0
  3469 ;;Total ram usage:        8 bytes
  3470 ;; Hardware stack levels used:    1
  3471 ;; Hardware stack levels required when called:    6
  3472 ;; This function calls:
  3473 ;;		_ADC_GetConversion
  3474 ;;		___flmul
  3475 ;;		___xxtofl
  3476 ;;		_movimento
  3477 ;; This function is called by:
  3478 ;;		_main
  3479 ;; This function uses a non-reentrant model
  3480 ;;
  3481                           
  3482                           
  3483                           ;psect for function _controle
  3484  0701                     _controle:
  3485  0701                     l3356:	
  3486                           ;incstack = 0
  3487                           ; Regs used in _controle: [wreg+status,2+status,0+pclath+cstack]
  3488                           
  3489                           
  3490                           ;main.c: 176:     I_m = 0.1*ADC_GetConversion(0);
  3491  0701  303D               	movlw	61
  3492  0702  0020               	movlb	0	; select bank0
  3493  0703  00B5               	movwf	___flmul@b+3
  3494  0704  30CC               	movlw	204
  3495  0705  00B4               	movwf	___flmul@b+2
  3496  0706  30CC               	movlw	204
  3497  0707  00B3               	movwf	___flmul@b+1
  3498  0708  30CD               	movlw	205
  3499  0709  00B2               	movwf	___flmul@b
  3500  070A  3000               	movlw	0
  3501  070B  318E  2682  3187   	fcall	_ADC_GetConversion
  3502  070E  0020               	movlb	0	; select bank0
  3503  070F  0820               	movf	?_ADC_GetConversion,w
  3504  0710  00CC               	movwf	??_controle
  3505  0711  0821               	movf	?_ADC_GetConversion+1,w
  3506  0712  00CD               	movwf	??_controle+1
  3507  0713  01CE               	clrf	??_controle+2
  3508  0714  01CF               	clrf	??_controle+3
  3509  0715  084F               	movf	??_controle+3,w
  3510  0716  00A7               	movwf	___xxtofl@val+3
  3511  0717  084E               	movf	??_controle+2,w
  3512  0718  00A6               	movwf	___xxtofl@val+2
  3513  0719  084D               	movf	??_controle+1,w
  3514  071A  00A5               	movwf	___xxtofl@val+1
  3515  071B  084C               	movf	??_controle,w
  3516  071C  00A4               	movwf	___xxtofl@val
  3517  071D  3000               	movlw	0
  3518  071E  3186  2654  3187   	fcall	___xxtofl
  3519  0721  0020               	movlb	0	; select bank0
  3520  0722  0827               	movf	?___xxtofl+3,w
  3521  0723  00B9               	movwf	___flmul@a+3
  3522  0724  0826               	movf	?___xxtofl+2,w
  3523  0725  00B8               	movwf	___flmul@a+2
  3524  0726  0825               	movf	?___xxtofl+1,w
  3525  0727  00B7               	movwf	___flmul@a+1
  3526  0728  0824               	movf	?___xxtofl,w
  3527  0729  00B6               	movwf	___flmul@a
  3528  072A  3180  205E  3187   	fcall	___flmul
  3529  072D  0020               	movlb	0	; select bank0
  3530  072E  0835               	movf	?___flmul+3,w
  3531  072F  0021               	movlb	1	; select bank1
  3532  0730  00C8               	movwf	(_I_m+3)^(0+128)
  3533  0731  0020               	movlb	0	; select bank0
  3534  0732  0834               	movf	?___flmul+2,w
  3535  0733  0021               	movlb	1	; select bank1
  3536  0734  00C7               	movwf	(_I_m+2)^(0+128)
  3537  0735  0020               	movlb	0	; select bank0
  3538  0736  0833               	movf	?___flmul+1,w
  3539  0737  0021               	movlb	1	; select bank1
  3540  0738  00C6               	movwf	(_I_m+1)^(0+128)
  3541  0739  0020               	movlb	0	; select bank0
  3542  073A  0832               	movf	?___flmul,w
  3543  073B  0021               	movlb	1	; select bank1
  3544  073C  00C5               	movwf	_I_m^(0+128)
  3545                           
  3546                           ;main.c: 177:     temp_mt = 0.3*ADC_GetConversion(1);
  3547  073D  303E               	movlw	62
  3548  073E  0020               	movlb	0	; select bank0
  3549  073F  00B5               	movwf	___flmul@b+3
  3550  0740  3099               	movlw	153
  3551  0741  00B4               	movwf	___flmul@b+2
  3552  0742  3099               	movlw	153
  3553  0743  00B3               	movwf	___flmul@b+1
  3554  0744  309A               	movlw	154
  3555  0745  00B2               	movwf	___flmul@b
  3556  0746  3001               	movlw	1
  3557  0747  318E  2682  3187   	fcall	_ADC_GetConversion
  3558  074A  0020               	movlb	0	; select bank0
  3559  074B  0820               	movf	?_ADC_GetConversion,w
  3560  074C  00CC               	movwf	??_controle
  3561  074D  0821               	movf	?_ADC_GetConversion+1,w
  3562  074E  00CD               	movwf	??_controle+1
  3563  074F  01CE               	clrf	??_controle+2
  3564  0750  01CF               	clrf	??_controle+3
  3565  0751  084F               	movf	??_controle+3,w
  3566  0752  00A7               	movwf	___xxtofl@val+3
  3567  0753  084E               	movf	??_controle+2,w
  3568  0754  00A6               	movwf	___xxtofl@val+2
  3569  0755  084D               	movf	??_controle+1,w
  3570  0756  00A5               	movwf	___xxtofl@val+1
  3571  0757  084C               	movf	??_controle,w
  3572  0758  00A4               	movwf	___xxtofl@val
  3573  0759  3000               	movlw	0
  3574  075A  3186  2654  3187   	fcall	___xxtofl
  3575  075D  0020               	movlb	0	; select bank0
  3576  075E  0827               	movf	?___xxtofl+3,w
  3577  075F  00B9               	movwf	___flmul@a+3
  3578  0760  0826               	movf	?___xxtofl+2,w
  3579  0761  00B8               	movwf	___flmul@a+2
  3580  0762  0825               	movf	?___xxtofl+1,w
  3581  0763  00B7               	movwf	___flmul@a+1
  3582  0764  0824               	movf	?___xxtofl,w
  3583  0765  00B6               	movwf	___flmul@a
  3584  0766  3180  205E  3187   	fcall	___flmul
  3585  0769  0020               	movlb	0	; select bank0
  3586  076A  0835               	movf	?___flmul+3,w
  3587  076B  0021               	movlb	1	; select bank1
  3588  076C  00C4               	movwf	(_temp_mt+3)^(0+128)
  3589  076D  0020               	movlb	0	; select bank0
  3590  076E  0834               	movf	?___flmul+2,w
  3591  076F  0021               	movlb	1	; select bank1
  3592  0770  00C3               	movwf	(_temp_mt+2)^(0+128)
  3593  0771  0020               	movlb	0	; select bank0
  3594  0772  0833               	movf	?___flmul+1,w
  3595  0773  0021               	movlb	1	; select bank1
  3596  0774  00C2               	movwf	(_temp_mt+1)^(0+128)
  3597  0775  0020               	movlb	0	; select bank0
  3598  0776  0832               	movf	?___flmul,w
  3599  0777  0021               	movlb	1	; select bank1
  3600  0778  00C1               	movwf	_temp_mt^(0+128)
  3601  0779                     l3358:
  3602  0779                     l3360:
  3603  0779                     l3362:
  3604  0779  0022               	movlb	2	; select bank2
  3605  077A  150C               	bsf	12,2	;volatile
  3606  077B                     l3364:
  3607                           
  3608                           ;main.c: 183:     estado = 1;
  3609  077B  3001               	movlw	1
  3610  077C  0021               	movlb	1	; select bank1
  3611  077D  00BB               	movwf	_estado^(0+128)
  3612  077E  3000               	movlw	0
  3613  077F  00BC               	movwf	(_estado^(0+128)+1)
  3614  0780                     l3366:
  3615                           
  3616                           ;main.c: 184:     movimento();
  3617  0780  3185  256C  3187   	fcall	_movimento
  3618  0783                     l3368:
  3619  0783  0022               	movlb	2	; select bank2
  3620  0784  110C               	bcf	12,2	;volatile
  3621  0785                     l3370:
  3622                           
  3623                           ;main.c: 190:     estado = 2;
  3624  0785  3002               	movlw	2
  3625  0786  0021               	movlb	1	; select bank1
  3626  0787  00BB               	movwf	_estado^(0+128)
  3627  0788  3000               	movlw	0
  3628  0789  00BC               	movwf	(_estado^(0+128)+1)
  3629  078A                     l3372:
  3630                           
  3631                           ;main.c: 191:     movimento();
  3632  078A  3185  256C  3187   	fcall	_movimento
  3633  078D                     l3374:
  3634                           
  3635                           ;main.c: 192:     and_dst=0;
  3636  078D  0020               	movlb	0	; select bank0
  3637  078E  01EC               	clrf	_and_dst
  3638  078F  01ED               	clrf	_and_dst+1
  3639  0790                     l604:
  3640  0790  0008               	return
  3641  0791                     __end_of_controle:
  3642                           
  3643                           	psect	text2
  3644  056C                     __ptext2:	
  3645 ;; *************** function _movimento *****************
  3646 ;; Defined at:
  3647 ;;		line 198 in file "main.c"
  3648 ;; Parameters:    Size  Location     Type
  3649 ;;		None
  3650 ;; Auto vars:     Size  Location     Type
  3651 ;;  count           2   21[BANK0 ] int 
  3652 ;;  dutyValue       2   19[BANK0 ] int 
  3653 ;;  max_dutyValu    2   17[BANK0 ] int 
  3654 ;;  min_dutyValu    2   15[BANK0 ] int 
  3655 ;;  a               2   13[BANK0 ] int 
  3656 ;;  route           2   11[BANK0 ] int 
  3657 ;;  destiny         2    9[BANK0 ] int 
  3658 ;;  ilum            2    7[BANK0 ] int 
  3659 ;; Return value:  Size  Location     Type
  3660 ;;                  1    wreg      void 
  3661 ;; Registers used:
  3662 ;;		wreg, status,2, status,0, pclath, cstack
  3663 ;; Tracked objects:
  3664 ;;		On entry : 0/0
  3665 ;;		On exit  : 0/0
  3666 ;;		Unchanged: 0/0
  3667 ;; Data sizes:     COMMON   BANK0   BANK1   BANK2   BANK3   BANK4
  3668 ;;      Params:         0       0       0       0       0       0
  3669 ;;      Locals:         0      16       0       0       0       0
  3670 ;;      Temps:          0       1       0       0       0       0
  3671 ;;      Totals:         0      17       0       0       0       0
  3672 ;;Total ram usage:       17 bytes
  3673 ;; Hardware stack levels used:    1
  3674 ;; Hardware stack levels required when called:    5
  3675 ;; This function calls:
  3676 ;;		_EPWM1_LoadDutyValue
  3677 ;;		_PWM3_LoadDutyValue
  3678 ;;		_TMR6_WriteTimer
  3679 ;;		___wmul
  3680 ;; This function is called by:
  3681 ;;		_controle
  3682 ;; This function uses a non-reentrant model
  3683 ;;
  3684                           
  3685                           
  3686                           ;psect for function _movimento
  3687  056C                     _movimento:
  3688  056C                     l3268:	
  3689                           ;incstack = 0
  3690                           ; Regs used in _movimento: [wreg+status,2+status,0+pclath+cstack]
  3691                           
  3692                           
  3693                           ;main.c: 201:     int a = 26;
  3694  056C  301A               	movlw	26
  3695  056D  0020               	movlb	0	; select bank0
  3696  056E  00AD               	movwf	movimento@a
  3697  056F  3000               	movlw	0
  3698  0570  00AE               	movwf	movimento@a+1
  3699                           
  3700                           ;main.c: 202:     int max_dutyValue = 612;
  3701  0571  3064               	movlw	100
  3702  0572  00B1               	movwf	movimento@max_dutyValue
  3703  0573  3002               	movlw	2
  3704  0574  00B2               	movwf	movimento@max_dutyValue+1
  3705                           
  3706                           ;main.c: 203:     int min_dutyValue = 153;
  3707  0575  3099               	movlw	153
  3708  0576  00AF               	movwf	movimento@min_dutyValue
  3709  0577  3000               	movlw	0
  3710  0578  00B0               	movwf	movimento@min_dutyValue+1
  3711  0579                     l3270:
  3712                           
  3713                           ;main.c: 204:     int destiny = and_dst*60;
  3714  0579  086D               	movf	_and_dst+1,w
  3715  057A  00A1               	movwf	___wmul@multiplier+1
  3716  057B  086C               	movf	_and_dst,w
  3717  057C  00A0               	movwf	___wmul@multiplier
  3718  057D  303C               	movlw	60
  3719  057E  00A2               	movwf	___wmul@multiplicand
  3720  057F  3000               	movlw	0
  3721  0580  00A3               	movwf	___wmul@multiplicand+1
  3722  0581  318E  2641  3185   	fcall	___wmul
  3723  0584  0020               	movlb	0	; select bank0
  3724  0585  0821               	movf	?___wmul+1,w
  3725  0586  00AA               	movwf	movimento@destiny+1
  3726  0587  0820               	movf	?___wmul,w
  3727  0588  00A9               	movwf	movimento@destiny
  3728  0589                     l3272:
  3729                           
  3730                           ;main.c: 205:     int route = destiny - 40;
  3731  0589  0829               	movf	movimento@destiny,w
  3732  058A  3ED8               	addlw	216
  3733  058B  00AB               	movwf	movimento@route
  3734  058C  30FF               	movlw	255
  3735  058D  3D2A               	addwfc	movimento@destiny+1,w
  3736  058E  00AC               	movwf	movimento@route+1
  3737  058F                     l3274:
  3738                           
  3739                           ;main.c: 206:     int dutyValue = 0;
  3740  058F  01B3               	clrf	movimento@dutyValue
  3741  0590  01B4               	clrf	movimento@dutyValue+1
  3742  0591                     l3276:
  3743  0591                     l3278:
  3744  0591                     l3280:
  3745                           
  3746                           ;main.c: 213:     for(count = 0; count < 20; count++){
  3747  0591  01B5               	clrf	movimento@count
  3748  0592  01B6               	clrf	movimento@count+1
  3749  0593                     l3286:
  3750                           
  3751                           ;main.c: 214:         dutyValue+=a;
  3752  0593  0020               	movlb	0	; select bank0
  3753  0594  082D               	movf	movimento@a,w
  3754  0595  07B3               	addwf	movimento@dutyValue,f
  3755  0596  082E               	movf	movimento@a+1,w
  3756  0597  3DB4               	addwfc	movimento@dutyValue+1,f
  3757  0598                     l3288:
  3758                           
  3759                           ;main.c: 216:         EPWM1_LoadDutyValue(ilum=-2);
  3760  0598  30FE               	movlw	254
  3761  0599  00A7               	movwf	movimento@ilum
  3762  059A  30FF               	movlw	255
  3763  059B  00A8               	movwf	movimento@ilum+1
  3764  059C  0828               	movf	movimento@ilum+1,w
  3765  059D  00A1               	movwf	EPWM1_LoadDutyValue@dutyValue+1
  3766  059E  0827               	movf	movimento@ilum,w
  3767  059F  00A0               	movwf	EPWM1_LoadDutyValue@dutyValue
  3768  05A0  318E  2609  3185   	fcall	_EPWM1_LoadDutyValue
  3769  05A3                     l3290:
  3770                           
  3771                           ;main.c: 217:         if(dutyValue > max_dutyValue){
  3772  05A3  0020               	movlb	0	; select bank0
  3773  05A4  0832               	movf	movimento@max_dutyValue+1,w
  3774  05A5  3A80               	xorlw	128
  3775  05A6  00A6               	movwf	??_movimento
  3776  05A7  0834               	movf	movimento@dutyValue+1,w
  3777  05A8  3A80               	xorlw	128
  3778  05A9  0226               	subwf	??_movimento,w
  3779  05AA  1D03               	skipz
  3780  05AB  2DAE               	goto	u2645
  3781  05AC  0833               	movf	movimento@dutyValue,w
  3782  05AD  0231               	subwf	movimento@max_dutyValue,w
  3783  05AE                     u2645:
  3784  05AE  1803               	skipnc
  3785  05AF  2DB1               	goto	u2641
  3786  05B0  2DB2               	goto	u2640
  3787  05B1                     u2641:
  3788  05B1  2DBB               	goto	l3294
  3789  05B2                     u2640:
  3790  05B2                     l3292:
  3791                           
  3792                           ;main.c: 218:             PWM3_LoadDutyValue(max_dutyValue);
  3793  05B2  0020               	movlb	0	; select bank0
  3794  05B3  0832               	movf	movimento@max_dutyValue+1,w
  3795  05B4  00A1               	movwf	PWM3_LoadDutyValue@dutyValue+1
  3796  05B5  0831               	movf	movimento@max_dutyValue,w
  3797  05B6  00A0               	movwf	PWM3_LoadDutyValue@dutyValue
  3798  05B7  318E  2625  3185   	fcall	_PWM3_LoadDutyValue
  3799                           
  3800                           ;main.c: 219:         }else{
  3801  05BA  2DC3               	goto	l3296
  3802  05BB                     l3294:
  3803                           
  3804                           ;main.c: 220:             PWM3_LoadDutyValue(dutyValue);
  3805  05BB  0020               	movlb	0	; select bank0
  3806  05BC  0834               	movf	movimento@dutyValue+1,w
  3807  05BD  00A1               	movwf	PWM3_LoadDutyValue@dutyValue+1
  3808  05BE  0833               	movf	movimento@dutyValue,w
  3809  05BF  00A0               	movwf	PWM3_LoadDutyValue@dutyValue
  3810  05C0  318E  2625  3185   	fcall	_PWM3_LoadDutyValue
  3811  05C3                     l3296:
  3812                           
  3813                           ;main.c: 223:     }
  3814  05C3  3001               	movlw	1
  3815  05C4  0020               	movlb	0	; select bank0
  3816  05C5  07B5               	addwf	movimento@count,f
  3817  05C6  3000               	movlw	0
  3818  05C7  3DB6               	addwfc	movimento@count+1,f
  3819  05C8                     l3298:
  3820  05C8  0836               	movf	movimento@count+1,w
  3821  05C9  3A80               	xorlw	128
  3822  05CA  00A6               	movwf	??_movimento
  3823  05CB  3080               	movlw	128
  3824  05CC  0226               	subwf	??_movimento,w
  3825  05CD  1D03               	skipz
  3826  05CE  2DD1               	goto	u2655
  3827  05CF  3014               	movlw	20
  3828  05D0  0235               	subwf	movimento@count,w
  3829  05D1                     u2655:
  3830  05D1  1C03               	skipc
  3831  05D2  2DD4               	goto	u2651
  3832  05D3  2DD5               	goto	u2650
  3833  05D4                     u2651:
  3834  05D4  2D93               	goto	l3286
  3835  05D5                     u2650:
  3836  05D5                     l3300:
  3837                           
  3838                           ;main.c: 224:     count = 0;
  3839  05D5  0020               	movlb	0	; select bank0
  3840  05D6  01B5               	clrf	movimento@count
  3841  05D7  01B6               	clrf	movimento@count+1
  3842                           
  3843                           ;main.c: 225:     for(count = 0; count < route ; count++){
  3844  05D8  01B5               	clrf	movimento@count
  3845  05D9  01B6               	clrf	movimento@count+1
  3846  05DA  2DE8               	goto	l3306
  3847  05DB                     l3302:
  3848                           
  3849                           ;main.c: 226:         PWM3_LoadDutyValue(max_dutyValue);
  3850  05DB  0020               	movlb	0	; select bank0
  3851  05DC  0832               	movf	movimento@max_dutyValue+1,w
  3852  05DD  00A1               	movwf	PWM3_LoadDutyValue@dutyValue+1
  3853  05DE  0831               	movf	movimento@max_dutyValue,w
  3854  05DF  00A0               	movwf	PWM3_LoadDutyValue@dutyValue
  3855  05E0  318E  2625  3185   	fcall	_PWM3_LoadDutyValue
  3856  05E3                     l3304:
  3857                           
  3858                           ;main.c: 227:     }
  3859  05E3  3001               	movlw	1
  3860  05E4  0020               	movlb	0	; select bank0
  3861  05E5  07B5               	addwf	movimento@count,f
  3862  05E6  3000               	movlw	0
  3863  05E7  3DB6               	addwfc	movimento@count+1,f
  3864  05E8                     l3306:
  3865  05E8  0836               	movf	movimento@count+1,w
  3866  05E9  3A80               	xorlw	128
  3867  05EA  00A6               	movwf	??_movimento
  3868  05EB  082C               	movf	movimento@route+1,w
  3869  05EC  3A80               	xorlw	128
  3870  05ED  0226               	subwf	??_movimento,w
  3871  05EE  1D03               	skipz
  3872  05EF  2DF2               	goto	u2665
  3873  05F0  082B               	movf	movimento@route,w
  3874  05F1  0235               	subwf	movimento@count,w
  3875  05F2                     u2665:
  3876  05F2  1C03               	skipc
  3877  05F3  2DF5               	goto	u2661
  3878  05F4  2DF6               	goto	u2660
  3879  05F5                     u2661:
  3880  05F5  2DDB               	goto	l3302
  3881  05F6                     u2660:
  3882  05F6                     l3308:
  3883                           
  3884                           ;main.c: 229:     count = 0;
  3885  05F6  0020               	movlb	0	; select bank0
  3886  05F7  01B5               	clrf	movimento@count
  3887  05F8  01B6               	clrf	movimento@count+1
  3888                           
  3889                           ;main.c: 230:     for(count = 0; count < 20; count++){
  3890  05F9  01B5               	clrf	movimento@count
  3891  05FA  01B6               	clrf	movimento@count+1
  3892  05FB                     l3314:
  3893                           
  3894                           ;main.c: 231:         dutyValue-=a;
  3895  05FB  0020               	movlb	0	; select bank0
  3896  05FC  082D               	movf	movimento@a,w
  3897  05FD  02B3               	subwf	movimento@dutyValue,f
  3898  05FE  082E               	movf	movimento@a+1,w
  3899  05FF  3BB4               	subwfb	movimento@dutyValue+1,f
  3900  0600                     l3316:
  3901                           
  3902                           ;main.c: 232:         EPWM1_LoadDutyValue(ilum=-2);
  3903  0600  30FE               	movlw	254
  3904  0601  00A7               	movwf	movimento@ilum
  3905  0602  30FF               	movlw	255
  3906  0603  00A8               	movwf	movimento@ilum+1
  3907  0604  0828               	movf	movimento@ilum+1,w
  3908  0605  00A1               	movwf	EPWM1_LoadDutyValue@dutyValue+1
  3909  0606  0827               	movf	movimento@ilum,w
  3910  0607  00A0               	movwf	EPWM1_LoadDutyValue@dutyValue
  3911  0608  318E  2609  3185   	fcall	_EPWM1_LoadDutyValue
  3912  060B                     l3318:
  3913                           
  3914                           ;main.c: 233:         if(dutyValue < min_dutyValue){
  3915  060B  0020               	movlb	0	; select bank0
  3916  060C  0834               	movf	movimento@dutyValue+1,w
  3917  060D  3A80               	xorlw	128
  3918  060E  00A6               	movwf	??_movimento
  3919  060F  0830               	movf	movimento@min_dutyValue+1,w
  3920  0610  3A80               	xorlw	128
  3921  0611  0226               	subwf	??_movimento,w
  3922  0612  1D03               	skipz
  3923  0613  2E16               	goto	u2675
  3924  0614  082F               	movf	movimento@min_dutyValue,w
  3925  0615  0233               	subwf	movimento@dutyValue,w
  3926  0616                     u2675:
  3927  0616  1803               	skipnc
  3928  0617  2E19               	goto	u2671
  3929  0618  2E1A               	goto	u2670
  3930  0619                     u2671:
  3931  0619  2E23               	goto	l3322
  3932  061A                     u2670:
  3933  061A                     l3320:
  3934                           
  3935                           ;main.c: 234:             PWM3_LoadDutyValue(min_dutyValue);
  3936  061A  0020               	movlb	0	; select bank0
  3937  061B  0830               	movf	movimento@min_dutyValue+1,w
  3938  061C  00A1               	movwf	PWM3_LoadDutyValue@dutyValue+1
  3939  061D  082F               	movf	movimento@min_dutyValue,w
  3940  061E  00A0               	movwf	PWM3_LoadDutyValue@dutyValue
  3941  061F  318E  2625  3185   	fcall	_PWM3_LoadDutyValue
  3942                           
  3943                           ;main.c: 235:         }else{
  3944  0622  2E2B               	goto	l3324
  3945  0623                     l3322:
  3946                           
  3947                           ;main.c: 236:         PWM3_LoadDutyValue(dutyValue);
  3948  0623  0020               	movlb	0	; select bank0
  3949  0624  0834               	movf	movimento@dutyValue+1,w
  3950  0625  00A1               	movwf	PWM3_LoadDutyValue@dutyValue+1
  3951  0626  0833               	movf	movimento@dutyValue,w
  3952  0627  00A0               	movwf	PWM3_LoadDutyValue@dutyValue
  3953  0628  318E  2625  3185   	fcall	_PWM3_LoadDutyValue
  3954  062B                     l3324:
  3955                           
  3956                           ;main.c: 238:     }
  3957  062B  3001               	movlw	1
  3958  062C  0020               	movlb	0	; select bank0
  3959  062D  07B5               	addwf	movimento@count,f
  3960  062E  3000               	movlw	0
  3961  062F  3DB6               	addwfc	movimento@count+1,f
  3962  0630                     l3326:
  3963  0630  0836               	movf	movimento@count+1,w
  3964  0631  3A80               	xorlw	128
  3965  0632  00A6               	movwf	??_movimento
  3966  0633  3080               	movlw	128
  3967  0634  0226               	subwf	??_movimento,w
  3968  0635  1D03               	skipz
  3969  0636  2E39               	goto	u2685
  3970  0637  3014               	movlw	20
  3971  0638  0235               	subwf	movimento@count,w
  3972  0639                     u2685:
  3973  0639  1C03               	skipc
  3974  063A  2E3C               	goto	u2681
  3975  063B  2E3D               	goto	u2680
  3976  063C                     u2681:
  3977  063C  2DFB               	goto	l3314
  3978  063D                     u2680:
  3979  063D                     l3328:
  3980                           
  3981                           ;main.c: 240:     estado = 0;
  3982  063D  0021               	movlb	1	; select bank1
  3983  063E  01BB               	clrf	_estado^(0+128)
  3984  063F  01BC               	clrf	(_estado+1)^(0+128)
  3985  0640                     l3330:
  3986                           
  3987                           ;main.c: 241:     PIE3bits.TMR6IE=1;
  3988  0640  1593               	bsf	19,3	;volatile
  3989                           
  3990                           ;main.c: 242:     acabou_delay=0;
  3991  0641  0020               	movlb	0	; select bank0
  3992  0642  01E8               	clrf	_acabou_delay
  3993  0643  01E9               	clrf	_acabou_delay+1
  3994  0644                     l3332:
  3995                           
  3996                           ;main.c: 243:     TMR6_WriteTimer(0);
  3997  0644  3000               	movlw	0
  3998  0645  318C  246D  3185   	fcall	_TMR6_WriteTimer
  3999  0648                     l3334:
  4000                           
  4001                           ;main.c: 245:         {;main.c: 246:         if(acabou_delay == 1)
  4002  0648  0020               	movlb	0	; select bank0
  4003  0649  0368               	decf	_acabou_delay,w
  4004  064A  0469               	iorwf	_acabou_delay+1,w
  4005  064B  1D03               	btfss	3,2
  4006  064C  2E4E               	goto	u2691
  4007  064D  2E4F               	goto	u2690
  4008  064E                     u2691:
  4009  064E  2E48               	goto	l3334
  4010  064F                     u2690:
  4011  064F                     l3336:
  4012                           
  4013                           ;main.c: 247:             {;main.c: 248:                 acabou_delay=0;
  4014  064F  01E8               	clrf	_acabou_delay
  4015  0650  01E9               	clrf	_acabou_delay+1
  4016  0651                     l620:	
  4017                           ;main.c: 249:                 break;
  4018                           
  4019                           
  4020                           ;main.c: 252:     PIE3bits.TMR6IE=0;
  4021  0651  0021               	movlb	1	; select bank1
  4022  0652  1193               	bcf	19,3	;volatile
  4023  0653                     l622:
  4024  0653  0008               	return
  4025  0654                     __end_of_movimento:
  4026                           
  4027                           	psect	text3
  4028  0E41                     __ptext3:	
  4029 ;; *************** function ___wmul *****************
  4030 ;; Defined at:
  4031 ;;		line 15 in file "C:\Program Files\Microchip\xc8\v2.30\pic\sources\c99\common\Umul16.c"
  4032 ;; Parameters:    Size  Location     Type
  4033 ;;  multiplier      2    0[BANK0 ] unsigned int 
  4034 ;;  multiplicand    2    2[BANK0 ] unsigned int 
  4035 ;; Auto vars:     Size  Location     Type
  4036 ;;  product         2    4[BANK0 ] unsigned int 
  4037 ;; Return value:  Size  Location     Type
  4038 ;;                  2    0[BANK0 ] unsigned int 
  4039 ;; Registers used:
  4040 ;;		wreg, status,2, status,0
  4041 ;; Tracked objects:
  4042 ;;		On entry : 0/0
  4043 ;;		On exit  : 0/0
  4044 ;;		Unchanged: 0/0
  4045 ;; Data sizes:     COMMON   BANK0   BANK1   BANK2   BANK3   BANK4
  4046 ;;      Params:         0       4       0       0       0       0
  4047 ;;      Locals:         0       2       0       0       0       0
  4048 ;;      Temps:          0       0       0       0       0       0
  4049 ;;      Totals:         0       6       0       0       0       0
  4050 ;;Total ram usage:        6 bytes
  4051 ;; Hardware stack levels used:    1
  4052 ;; Hardware stack levels required when called:    4
  4053 ;; This function calls:
  4054 ;;		Nothing
  4055 ;; This function is called by:
  4056 ;;		_movimento
  4057 ;; This function uses a non-reentrant model
  4058 ;;
  4059                           
  4060                           
  4061                           ;psect for function ___wmul
  4062  0E41                     ___wmul:
  4063  0E41                     l3088:	
  4064                           ;incstack = 0
  4065                           ; Regs used in ___wmul: [wreg+status,2+status,0]
  4066                           
  4067  0E41  0020               	movlb	0	; select bank0
  4068  0E42  01A4               	clrf	___wmul@product
  4069  0E43  01A5               	clrf	___wmul@product+1
  4070  0E44                     l3090:
  4071  0E44  1C20               	btfss	___wmul@multiplier,0
  4072  0E45  2E47               	goto	u2581
  4073  0E46  2E48               	goto	u2580
  4074  0E47                     u2581:
  4075  0E47  2E4C               	goto	l838
  4076  0E48                     u2580:
  4077  0E48                     l3092:
  4078  0E48  0822               	movf	___wmul@multiplicand,w
  4079  0E49  07A4               	addwf	___wmul@product,f
  4080  0E4A  0823               	movf	___wmul@multiplicand+1,w
  4081  0E4B  3DA5               	addwfc	___wmul@product+1,f
  4082  0E4C                     l838:
  4083  0E4C  3001               	movlw	1
  4084  0E4D                     u2595:
  4085  0E4D  35A2               	lslf	___wmul@multiplicand,f
  4086  0E4E  0DA3               	rlf	___wmul@multiplicand+1,f
  4087  0E4F  0B89               	decfsz	9,f
  4088  0E50  2E4D               	goto	u2595
  4089  0E51                     l3094:
  4090  0E51  3001               	movlw	1
  4091  0E52                     u2605:
  4092  0E52  36A1               	lsrf	___wmul@multiplier+1,f
  4093  0E53  0CA0               	rrf	___wmul@multiplier,f
  4094  0E54  0B89               	decfsz	9,f
  4095  0E55  2E52               	goto	u2605
  4096  0E56                     l3096:
  4097  0E56  0820               	movf	___wmul@multiplier,w
  4098  0E57  0421               	iorwf	___wmul@multiplier+1,w
  4099  0E58  1D03               	btfss	3,2
  4100  0E59  2E5B               	goto	u2611
  4101  0E5A  2E5C               	goto	u2610
  4102  0E5B                     u2611:
  4103  0E5B  2E44               	goto	l3090
  4104  0E5C                     u2610:
  4105  0E5C                     l3098:
  4106  0E5C  0825               	movf	___wmul@product+1,w
  4107  0E5D  00A1               	movwf	?___wmul+1
  4108  0E5E  0824               	movf	___wmul@product,w
  4109  0E5F  00A0               	movwf	?___wmul
  4110  0E60                     l840:
  4111  0E60  0008               	return
  4112  0E61                     __end_of___wmul:
  4113                           
  4114                           	psect	text4
  4115  0C6D                     __ptext4:	
  4116 ;; *************** function _TMR6_WriteTimer *****************
  4117 ;; Defined at:
  4118 ;;		line 108 in file "mcc_generated_files/tmr6.c"
  4119 ;; Parameters:    Size  Location     Type
  4120 ;;  timerVal        1    wreg     unsigned char 
  4121 ;; Auto vars:     Size  Location     Type
  4122 ;;  timerVal        1    0[BANK0 ] unsigned char 
  4123 ;; Return value:  Size  Location     Type
  4124 ;;                  1    wreg      void 
  4125 ;; Registers used:
  4126 ;;		wreg
  4127 ;; Tracked objects:
  4128 ;;		On entry : 0/0
  4129 ;;		On exit  : 0/0
  4130 ;;		Unchanged: 0/0
  4131 ;; Data sizes:     COMMON   BANK0   BANK1   BANK2   BANK3   BANK4
  4132 ;;      Params:         0       0       0       0       0       0
  4133 ;;      Locals:         0       1       0       0       0       0
  4134 ;;      Temps:          0       0       0       0       0       0
  4135 ;;      Totals:         0       1       0       0       0       0
  4136 ;;Total ram usage:        1 bytes
  4137 ;; Hardware stack levels used:    1
  4138 ;; Hardware stack levels required when called:    4
  4139 ;; This function calls:
  4140 ;;		Nothing
  4141 ;; This function is called by:
  4142 ;;		_movimento
  4143 ;; This function uses a non-reentrant model
  4144 ;;
  4145                           
  4146                           
  4147                           ;psect for function _TMR6_WriteTimer
  4148  0C6D                     _TMR6_WriteTimer:
  4149                           
  4150                           ;incstack = 0
  4151                           ; Regs used in _TMR6_WriteTimer: [wreg]
  4152                           ;TMR6_WriteTimer@timerVal stored from wreg
  4153  0C6D  0020               	movlb	0	; select bank0
  4154  0C6E  00A0               	movwf	TMR6_WriteTimer@timerVal
  4155  0C6F                     l3086:
  4156                           
  4157                           ;mcc_generated_files/tmr6.c: 108: void TMR6_WriteTimer(uint8_t timerVal);mcc_generated_f
      +                          iles/tmr6.c: 109: {;mcc_generated_files/tmr6.c: 111:     TMR6 = timerVal;
  4158  0C6F  0820               	movf	TMR6_WriteTimer@timerVal,w
  4159  0C70  0028               	movlb	8	; select bank8
  4160  0C71  009C               	movwf	28	;volatile
  4161  0C72                     l675:
  4162  0C72  0008               	return
  4163  0C73                     __end_of_TMR6_WriteTimer:
  4164                           
  4165                           	psect	text5
  4166  0E25                     __ptext5:	
  4167 ;; *************** function _PWM3_LoadDutyValue *****************
  4168 ;; Defined at:
  4169 ;;		line 82 in file "mcc_generated_files/pwm3.c"
  4170 ;; Parameters:    Size  Location     Type
  4171 ;;  dutyValue       2    0[BANK0 ] unsigned short 
  4172 ;; Auto vars:     Size  Location     Type
  4173 ;;		None
  4174 ;; Return value:  Size  Location     Type
  4175 ;;                  1    wreg      void 
  4176 ;; Registers used:
  4177 ;;		wreg, status,2, status,0
  4178 ;; Tracked objects:
  4179 ;;		On entry : 0/0
  4180 ;;		On exit  : 0/0
  4181 ;;		Unchanged: 0/0
  4182 ;; Data sizes:     COMMON   BANK0   BANK1   BANK2   BANK3   BANK4
  4183 ;;      Params:         0       2       0       0       0       0
  4184 ;;      Locals:         0       0       0       0       0       0
  4185 ;;      Temps:          0       2       0       0       0       0
  4186 ;;      Totals:         0       4       0       0       0       0
  4187 ;;Total ram usage:        4 bytes
  4188 ;; Hardware stack levels used:    1
  4189 ;; Hardware stack levels required when called:    4
  4190 ;; This function calls:
  4191 ;;		Nothing
  4192 ;; This function is called by:
  4193 ;;		_movimento
  4194 ;; This function uses a non-reentrant model
  4195 ;;
  4196                           
  4197                           
  4198                           ;psect for function _PWM3_LoadDutyValue
  4199  0E25                     _PWM3_LoadDutyValue:
  4200  0E25                     l2294:	
  4201                           ;incstack = 0
  4202                           ; Regs used in _PWM3_LoadDutyValue: [wreg+status,2+status,0]
  4203                           
  4204                           
  4205                           ;mcc_generated_files/pwm3.c: 82: void PWM3_LoadDutyValue(uint16_t dutyValue);mcc_generat
      +                          ed_files/pwm3.c: 83: {;mcc_generated_files/pwm3.c: 85:     CCPR3L = ((dutyValue & 0x03FC
      +                          )>>2);
  4206  0E25  0020               	movlb	0	; select bank0
  4207  0E26  0821               	movf	PWM3_LoadDutyValue@dutyValue+1,w
  4208  0E27  00A3               	movwf	??_PWM3_LoadDutyValue+1
  4209  0E28  0820               	movf	PWM3_LoadDutyValue@dutyValue,w
  4210  0E29  00A2               	movwf	??_PWM3_LoadDutyValue
  4211  0E2A  36A3               	lsrf	??_PWM3_LoadDutyValue+1,f
  4212  0E2B  0CA2               	rrf	??_PWM3_LoadDutyValue,f
  4213  0E2C  36A3               	lsrf	??_PWM3_LoadDutyValue+1,f
  4214  0E2D  0CA2               	rrf	??_PWM3_LoadDutyValue,f
  4215  0E2E  0822               	movf	??_PWM3_LoadDutyValue,w
  4216  0E2F  0026               	movlb	6	; select bank6
  4217  0E30  0091               	movwf	17	;volatile
  4218                           
  4219                           ;mcc_generated_files/pwm3.c: 88:     CCP3CON = ((uint8_t)(CCP3CON & 0xCF) | ((dutyValue 
      +                          & 0x0003)<<4));
  4220  0E31  0020               	movlb	0	; select bank0
  4221  0E32  0820               	movf	PWM3_LoadDutyValue@dutyValue,w
  4222  0E33  3903               	andlw	3
  4223  0E34  00A2               	movwf	??_PWM3_LoadDutyValue
  4224  0E35  3004               	movlw	4
  4225  0E36                     u1345:
  4226  0E36  35A2               	lslf	??_PWM3_LoadDutyValue,f
  4227  0E37  0B89               	decfsz	9,f
  4228  0E38  2E36               	goto	u1345
  4229  0E39  0026               	movlb	6	; select bank6
  4230  0E3A  0813               	movf	19,w	;volatile
  4231  0E3B  39CF               	andlw	207
  4232  0E3C  0020               	movlb	0	; select bank0
  4233  0E3D  0422               	iorwf	??_PWM3_LoadDutyValue,w
  4234  0E3E  0026               	movlb	6	; select bank6
  4235  0E3F  0093               	movwf	19	;volatile
  4236  0E40                     l483:
  4237  0E40  0008               	return
  4238  0E41                     __end_of_PWM3_LoadDutyValue:
  4239                           
  4240                           	psect	text6
  4241  0E09                     __ptext6:	
  4242 ;; *************** function _EPWM1_LoadDutyValue *****************
  4243 ;; Defined at:
  4244 ;;		line 90 in file "mcc_generated_files/epwm1.c"
  4245 ;; Parameters:    Size  Location     Type
  4246 ;;  dutyValue       2    0[BANK0 ] unsigned short 
  4247 ;; Auto vars:     Size  Location     Type
  4248 ;;		None
  4249 ;; Return value:  Size  Location     Type
  4250 ;;                  1    wreg      void 
  4251 ;; Registers used:
  4252 ;;		wreg, status,2, status,0
  4253 ;; Tracked objects:
  4254 ;;		On entry : 0/0
  4255 ;;		On exit  : 0/0
  4256 ;;		Unchanged: 0/0
  4257 ;; Data sizes:     COMMON   BANK0   BANK1   BANK2   BANK3   BANK4
  4258 ;;      Params:         0       2       0       0       0       0
  4259 ;;      Locals:         0       0       0       0       0       0
  4260 ;;      Temps:          0       2       0       0       0       0
  4261 ;;      Totals:         0       4       0       0       0       0
  4262 ;;Total ram usage:        4 bytes
  4263 ;; Hardware stack levels used:    1
  4264 ;; Hardware stack levels required when called:    4
  4265 ;; This function calls:
  4266 ;;		Nothing
  4267 ;; This function is called by:
  4268 ;;		_movimento
  4269 ;; This function uses a non-reentrant model
  4270 ;;
  4271                           
  4272                           
  4273                           ;psect for function _EPWM1_LoadDutyValue
  4274  0E09                     _EPWM1_LoadDutyValue:
  4275  0E09                     l2306:	
  4276                           ;incstack = 0
  4277                           ; Regs used in _EPWM1_LoadDutyValue: [wreg+status,2+status,0]
  4278                           
  4279                           
  4280                           ;mcc_generated_files/epwm1.c: 90: void EPWM1_LoadDutyValue(uint16_t dutyValue);mcc_gener
      +                          ated_files/epwm1.c: 91: {;mcc_generated_files/epwm1.c: 93:     CCPR1L = ((dutyValue & 0x
      +                          03FC)>>2);
  4281  0E09  0020               	movlb	0	; select bank0
  4282  0E0A  0821               	movf	EPWM1_LoadDutyValue@dutyValue+1,w
  4283  0E0B  00A3               	movwf	??_EPWM1_LoadDutyValue+1
  4284  0E0C  0820               	movf	EPWM1_LoadDutyValue@dutyValue,w
  4285  0E0D  00A2               	movwf	??_EPWM1_LoadDutyValue
  4286  0E0E  36A3               	lsrf	??_EPWM1_LoadDutyValue+1,f
  4287  0E0F  0CA2               	rrf	??_EPWM1_LoadDutyValue,f
  4288  0E10  36A3               	lsrf	??_EPWM1_LoadDutyValue+1,f
  4289  0E11  0CA2               	rrf	??_EPWM1_LoadDutyValue,f
  4290  0E12  0822               	movf	??_EPWM1_LoadDutyValue,w
  4291  0E13  0025               	movlb	5	; select bank5
  4292  0E14  0091               	movwf	17	;volatile
  4293                           
  4294                           ;mcc_generated_files/epwm1.c: 96:     CCP1CON = ((uint8_t)(CCP1CON & 0xCF) | ((dutyValue
      +                           & 0x0003)<<4));
  4295  0E15  0020               	movlb	0	; select bank0
  4296  0E16  0820               	movf	EPWM1_LoadDutyValue@dutyValue,w
  4297  0E17  3903               	andlw	3
  4298  0E18  00A2               	movwf	??_EPWM1_LoadDutyValue
  4299  0E19  3004               	movlw	4
  4300  0E1A                     u1355:
  4301  0E1A  35A2               	lslf	??_EPWM1_LoadDutyValue,f
  4302  0E1B  0B89               	decfsz	9,f
  4303  0E1C  2E1A               	goto	u1355
  4304  0E1D  0025               	movlb	5	; select bank5
  4305  0E1E  0813               	movf	19,w	;volatile
  4306  0E1F  39CF               	andlw	207
  4307  0E20  0020               	movlb	0	; select bank0
  4308  0E21  0422               	iorwf	??_EPWM1_LoadDutyValue,w
  4309  0E22  0025               	movlb	5	; select bank5
  4310  0E23  0093               	movwf	19	;volatile
  4311  0E24                     l642:
  4312  0E24  0008               	return
  4313  0E25                     __end_of_EPWM1_LoadDutyValue:
  4314                           
  4315                           	psect	text7
  4316  0E82                     __ptext7:	
  4317 ;; *************** function _ADC_GetConversion *****************
  4318 ;; Defined at:
  4319 ;;		line 112 in file "mcc_generated_files/adc.c"
  4320 ;; Parameters:    Size  Location     Type
  4321 ;;  channel         1    wreg     enum E2476
  4322 ;; Auto vars:     Size  Location     Type
  4323 ;;  channel         1    3[BANK0 ] enum E2476
  4324 ;; Return value:  Size  Location     Type
  4325 ;;                  2    0[BANK0 ] unsigned short 
  4326 ;; Registers used:
  4327 ;;		wreg, status,2, status,0
  4328 ;; Tracked objects:
  4329 ;;		On entry : 0/0
  4330 ;;		On exit  : 0/0
  4331 ;;		Unchanged: 0/0
  4332 ;; Data sizes:     COMMON   BANK0   BANK1   BANK2   BANK3   BANK4
  4333 ;;      Params:         0       2       0       0       0       0
  4334 ;;      Locals:         0       1       0       0       0       0
  4335 ;;      Temps:          0       1       0       0       0       0
  4336 ;;      Totals:         0       4       0       0       0       0
  4337 ;;Total ram usage:        4 bytes
  4338 ;; Hardware stack levels used:    1
  4339 ;; Hardware stack levels required when called:    4
  4340 ;; This function calls:
  4341 ;;		Nothing
  4342 ;; This function is called by:
  4343 ;;		_controle
  4344 ;; This function uses a non-reentrant model
  4345 ;;
  4346                           
  4347                           
  4348                           ;psect for function _ADC_GetConversion
  4349  0E82                     _ADC_GetConversion:
  4350                           
  4351                           ;incstack = 0
  4352                           ; Regs used in _ADC_GetConversion: [wreg+status,2+status,0]
  4353                           ;ADC_GetConversion@channel stored from wreg
  4354  0E82  0020               	movlb	0	; select bank0
  4355  0E83  00A3               	movwf	ADC_GetConversion@channel
  4356  0E84                     l2460:
  4357                           
  4358                           ;mcc_generated_files/adc.c: 112: adc_result_t ADC_GetConversion(adc_channel_t channel);m
      +                          cc_generated_files/adc.c: 113: {;mcc_generated_files/adc.c: 115:     ADCON0bits.CHS = ch
      +                          annel;
  4359  0E84  0823               	movf	ADC_GetConversion@channel,w
  4360  0E85  00A2               	movwf	??_ADC_GetConversion
  4361  0E86  0DA2               	rlf	??_ADC_GetConversion,f
  4362  0E87  0DA2               	rlf	??_ADC_GetConversion,f
  4363  0E88  0021               	movlb	1	; select bank1
  4364  0E89  081D               	movf	29,w	;volatile
  4365  0E8A  0020               	movlb	0	; select bank0
  4366  0E8B  0622               	xorwf	??_ADC_GetConversion,w
  4367  0E8C  3983               	andlw	-125
  4368  0E8D  0622               	xorwf	??_ADC_GetConversion,w
  4369  0E8E  0021               	movlb	1	; select bank1
  4370  0E8F  009D               	movwf	29	;volatile
  4371  0E90                     l2462:
  4372                           
  4373                           ;mcc_generated_files/adc.c: 118:     ADCON0bits.ADON = 1;
  4374  0E90  141D               	bsf	29,0	;volatile
  4375  0E91                     l2464:
  4376                           
  4377                           ;mcc_generated_files/adc.c: 121:     _delay((unsigned long)((5)*(8000000/4000000.0)));
  4378  0E91  3003               	movlw	3
  4379  0E92                     u2717:
  4380  0E92  0B89               	decfsz	9,f
  4381  0E93  2E92               	goto	u2717
  4382  0E94  0000               	nop
  4383  0E95                     l2466:
  4384                           
  4385                           ;mcc_generated_files/adc.c: 124:     ADCON0bits.GO_nDONE = 1;
  4386  0E95  0021               	movlb	1	; select bank1
  4387  0E96  149D               	bsf	29,1	;volatile
  4388  0E97                     l286:	
  4389                           ;mcc_generated_files/adc.c: 128:     {;mcc_generated_files/adc.c: 129:     }
  4390                           
  4391                           
  4392                           ;mcc_generated_files/adc.c: 127:     while (ADCON0bits.GO_nDONE)
  4393  0E97  189D               	btfsc	29,1	;volatile
  4394  0E98  2E9A               	goto	u1451
  4395  0E99  2E9B               	goto	u1450
  4396  0E9A                     u1451:
  4397  0E9A  2E97               	goto	l286
  4398  0E9B                     u1450:
  4399  0E9B                     l2468:
  4400                           
  4401                           ;mcc_generated_files/adc.c: 132:     return ((adc_result_t)((ADRESH << 8) + ADRESL));
  4402  0E9B  081C               	movf	28,w	;volatile
  4403  0E9C  0020               	movlb	0	; select bank0
  4404  0E9D  00A1               	movwf	?_ADC_GetConversion+1
  4405  0E9E  0021               	movlb	1	; select bank1
  4406  0E9F  081B               	movf	27,w	;volatile
  4407  0EA0  0020               	movlb	0	; select bank0
  4408  0EA1  00A0               	movwf	?_ADC_GetConversion
  4409  0EA2                     l289:
  4410  0EA2  0008               	return
  4411  0EA3                     __end_of_ADC_GetConversion:
  4412                           
  4413                           	psect	text8
  4414  0469                     __ptext8:	
  4415 ;; *************** function _comunicacao *****************
  4416 ;; Defined at:
  4417 ;;		line 145 in file "main.c"
  4418 ;; Parameters:    Size  Location     Type
  4419 ;;		None
  4420 ;; Auto vars:     Size  Location     Type
  4421 ;;  position        4    4[BANK1 ] float 
  4422 ;;  speed           4    0[BANK1 ] float 
  4423 ;;  aux             1    8[BANK1 ] unsigned char 
  4424 ;; Return value:  Size  Location     Type
  4425 ;;                  1    wreg      void 
  4426 ;; Registers used:
  4427 ;;		wreg, status,2, status,0, pclath, cstack
  4428 ;; Tracked objects:
  4429 ;;		On entry : 0/0
  4430 ;;		On exit  : 0/0
  4431 ;;		Unchanged: 0/0
  4432 ;; Data sizes:     COMMON   BANK0   BANK1   BANK2   BANK3   BANK4
  4433 ;;      Params:         0       0       0       0       0       0
  4434 ;;      Locals:         0       0       9       0       0       0
  4435 ;;      Temps:          0       2       0       0       0       0
  4436 ;;      Totals:         0       2       9       0       0       0
  4437 ;;Total ram usage:       11 bytes
  4438 ;; Hardware stack levels used:    1
  4439 ;; Hardware stack levels required when called:    6
  4440 ;; This function calls:
  4441 ;;		_EUSART_Read
  4442 ;;		_EUSART_is_rx_ready
  4443 ;;		___fldiv
  4444 ;;		___flmul
  4445 ;;		___fltol
  4446 ;;		___xxtofl
  4447 ;; This function is called by:
  4448 ;;		_main
  4449 ;; This function uses a non-reentrant model
  4450 ;;
  4451                           
  4452                           
  4453                           ;psect for function _comunicacao
  4454  0469                     _comunicacao:
  4455  0469                     l3340:	
  4456                           ;incstack = 0
  4457                           ; Regs used in _comunicacao: [wreg+status,2+status,0+pclath+cstack]
  4458                           
  4459                           
  4460                           ;main.c: 149:     uint8_t aux;;main.c: 150:     float speed = 3.75/(((float)ccp_value)*0
      +                          .0000005);
  4461  0469  3035               	movlw	53
  4462  046A  0020               	movlb	0	; select bank0
  4463  046B  00B5               	movwf	___flmul@b+3
  4464  046C  3006               	movlw	6
  4465  046D  00B4               	movwf	___flmul@b+2
  4466  046E  3037               	movlw	55
  4467  046F  00B3               	movwf	___flmul@b+1
  4468  0470  30BD               	movlw	189
  4469  0471  00B2               	movwf	___flmul@b
  4470  0472  0021               	movlb	1	; select bank1
  4471  0473  0849               	movf	_ccp_value^(0+128),w
  4472  0474  0020               	movlb	0	; select bank0
  4473  0475  00A4               	movwf	___xxtofl@val
  4474  0476  0021               	movlb	1	; select bank1
  4475  0477  084A               	movf	(_ccp_value+1)^(0+128),w
  4476  0478  0020               	movlb	0	; select bank0
  4477  0479  00A5               	movwf	___xxtofl@val+1
  4478  047A  01A6               	clrf	___xxtofl@val+2
  4479  047B  01A7               	clrf	___xxtofl@val+3
  4480  047C  3000               	movlw	0
  4481  047D  3186  2654  3184   	fcall	___xxtofl
  4482  0480  0020               	movlb	0	; select bank0
  4483  0481  0827               	movf	?___xxtofl+3,w
  4484  0482  00B9               	movwf	___flmul@a+3
  4485  0483  0826               	movf	?___xxtofl+2,w
  4486  0484  00B8               	movwf	___flmul@a+2
  4487  0485  0825               	movf	?___xxtofl+1,w
  4488  0486  00B7               	movwf	___flmul@a+1
  4489  0487  0824               	movf	?___xxtofl,w
  4490  0488  00B6               	movwf	___flmul@a
  4491  0489  3180  205E  3184   	fcall	___flmul
  4492  048C  0020               	movlb	0	; select bank0
  4493  048D  0835               	movf	?___flmul+3,w
  4494  048E  00CF               	movwf	___fldiv@a+3
  4495  048F  0834               	movf	?___flmul+2,w
  4496  0490  00CE               	movwf	___fldiv@a+2
  4497  0491  0833               	movf	?___flmul+1,w
  4498  0492  00CD               	movwf	___fldiv@a+1
  4499  0493  0832               	movf	?___flmul,w
  4500  0494  00CC               	movwf	___fldiv@a
  4501  0495  3040               	movlw	64
  4502  0496  00D3               	movwf	___fldiv@b+3
  4503  0497  3070               	movlw	112
  4504  0498  00D2               	movwf	___fldiv@b+2
  4505  0499  3000               	movlw	0
  4506  049A  00D1               	movwf	___fldiv@b+1
  4507  049B  3000               	movlw	0
  4508  049C  00D0               	movwf	___fldiv@b
  4509  049D  3182  22B5  3184   	fcall	___fldiv
  4510  04A0  0020               	movlb	0	; select bank0
  4511  04A1  084F               	movf	?___fldiv+3,w
  4512  04A2  0021               	movlb	1	; select bank1
  4513  04A3  00CE               	movwf	(comunicacao@speed+3)^(0+128)
  4514  04A4  0020               	movlb	0	; select bank0
  4515  04A5  084E               	movf	?___fldiv+2,w
  4516  04A6  0021               	movlb	1	; select bank1
  4517  04A7  00CD               	movwf	(comunicacao@speed+2)^(0+128)
  4518  04A8  0020               	movlb	0	; select bank0
  4519  04A9  084D               	movf	?___fldiv+1,w
  4520  04AA  0021               	movlb	1	; select bank1
  4521  04AB  00CC               	movwf	(comunicacao@speed+1)^(0+128)
  4522  04AC  0020               	movlb	0	; select bank0
  4523  04AD  084C               	movf	?___fldiv,w
  4524  04AE  0021               	movlb	1	; select bank1
  4525  04AF  00CB               	movwf	comunicacao@speed^(0+128)
  4526                           
  4527                           ;main.c: 151:     float position = 1.5*pulses;
  4528  04B0  303F               	movlw	63
  4529  04B1  0020               	movlb	0	; select bank0
  4530  04B2  00B5               	movwf	___flmul@b+3
  4531  04B3  30C0               	movlw	192
  4532  04B4  00B4               	movwf	___flmul@b+2
  4533  04B5  3000               	movlw	0
  4534  04B6  00B3               	movwf	___flmul@b+1
  4535  04B7  3000               	movlw	0
  4536  04B8  00B2               	movwf	___flmul@b
  4537  04B9  087B               	movf	_pulses,w
  4538  04BA  00A4               	movwf	___xxtofl@val
  4539  04BB  087C               	movf	_pulses+1,w
  4540  04BC  00A5               	movwf	___xxtofl@val+1
  4541  04BD  0D89               	rlf	9,f
  4542  04BE  3B89               	subwfb	9,f
  4543  04BF  0989               	comf	9,f
  4544  04C0  00A6               	movwf	___xxtofl@val+2
  4545  04C1  00A7               	movwf	___xxtofl@val+3
  4546  04C2  3001               	movlw	1
  4547  04C3  3186  2654  3184   	fcall	___xxtofl
  4548  04C6  0020               	movlb	0	; select bank0
  4549  04C7  0827               	movf	?___xxtofl+3,w
  4550  04C8  00B9               	movwf	___flmul@a+3
  4551  04C9  0826               	movf	?___xxtofl+2,w
  4552  04CA  00B8               	movwf	___flmul@a+2
  4553  04CB  0825               	movf	?___xxtofl+1,w
  4554  04CC  00B7               	movwf	___flmul@a+1
  4555  04CD  0824               	movf	?___xxtofl,w
  4556  04CE  00B6               	movwf	___flmul@a
  4557  04CF  3180  205E  3184   	fcall	___flmul
  4558  04D2  0020               	movlb	0	; select bank0
  4559  04D3  0835               	movf	?___flmul+3,w
  4560  04D4  0021               	movlb	1	; select bank1
  4561  04D5  00D2               	movwf	(comunicacao@position+3)^(0+128)
  4562  04D6  0020               	movlb	0	; select bank0
  4563  04D7  0834               	movf	?___flmul+2,w
  4564  04D8  0021               	movlb	1	; select bank1
  4565  04D9  00D1               	movwf	(comunicacao@position+2)^(0+128)
  4566  04DA  0020               	movlb	0	; select bank0
  4567  04DB  0833               	movf	?___flmul+1,w
  4568  04DC  0021               	movlb	1	; select bank1
  4569  04DD  00D0               	movwf	(comunicacao@position+1)^(0+128)
  4570  04DE  0020               	movlb	0	; select bank0
  4571  04DF  0832               	movf	?___flmul,w
  4572  04E0  0021               	movlb	1	; select bank1
  4573  04E1  00CF               	movwf	comunicacao@position^(0+128)
  4574                           
  4575                           ;main.c: 152:     if(EUSART_is_rx_ready())
  4576  04E2  318C  245C  3184   	fcall	_EUSART_is_rx_ready
  4577  04E5  3A00               	xorlw	0
  4578  04E6  1903               	skipnz
  4579  04E7  2CE9               	goto	u2701
  4580  04E8  2CEA               	goto	u2700
  4581  04E9                     u2701:
  4582  04E9  2CFB               	goto	l3346
  4583  04EA                     u2700:
  4584  04EA                     l3342:
  4585                           
  4586                           ;main.c: 153:         {;main.c: 154:             aux= EUSART_Read();
  4587  04EA  318D  2574  3184   	fcall	_EUSART_Read
  4588  04ED  0020               	movlb	0	; select bank0
  4589  04EE  00E6               	movwf	??_comunicacao
  4590  04EF  0866               	movf	??_comunicacao,w
  4591  04F0  0021               	movlb	1	; select bank1
  4592  04F1  00D3               	movwf	comunicacao@aux^(0+128)
  4593  04F2                     l3344:
  4594                           
  4595                           ;main.c: 155:             and_dst = (int)(aux & 0x02);
  4596  04F2  0853               	movf	comunicacao@aux^(0+128),w
  4597  04F3  3902               	andlw	2
  4598  04F4  0020               	movlb	0	; select bank0
  4599  04F5  00E6               	movwf	??_comunicacao
  4600  04F6  01E7               	clrf	??_comunicacao+1
  4601  04F7  0866               	movf	??_comunicacao,w
  4602  04F8  00EC               	movwf	_and_dst
  4603  04F9  0867               	movf	??_comunicacao+1,w
  4604  04FA  00ED               	movwf	_and_dst+1
  4605  04FB                     l3346:
  4606                           
  4607                           ;main.c: 166:     byte[0] = ((state_motor<<4)& 0x20)|(and_ating & 0x02);
  4608  04FB  0021               	movlb	1	; select bank1
  4609  04FC  083F               	movf	_and_ating^(0+128),w
  4610  04FD  3902               	andlw	2
  4611  04FE  0020               	movlb	0	; select bank0
  4612  04FF  00E6               	movwf	??_comunicacao
  4613  0500  0866               	movf	??_comunicacao,w
  4614  0501  0021               	movlb	1	; select bank1
  4615  0502  00B6               	movwf	_byte^(0+128)
  4616  0503                     l3348:
  4617                           
  4618                           ;main.c: 167:     byte[1] = 0x80 |((((uint8_t)position)>>1)& 0x7F);
  4619  0503  0852               	movf	(comunicacao@position+3)^(0+128),w
  4620  0504  0020               	movlb	0	; select bank0
  4621  0505  00A3               	movwf	___fltol@f1+3
  4622  0506  0021               	movlb	1	; select bank1
  4623  0507  0851               	movf	(comunicacao@position+2)^(0+128),w
  4624  0508  0020               	movlb	0	; select bank0
  4625  0509  00A2               	movwf	___fltol@f1+2
  4626  050A  0021               	movlb	1	; select bank1
  4627  050B  0850               	movf	(comunicacao@position+1)^(0+128),w
  4628  050C  0020               	movlb	0	; select bank0
  4629  050D  00A1               	movwf	___fltol@f1+1
  4630  050E  0021               	movlb	1	; select bank1
  4631  050F  084F               	movf	comunicacao@position^(0+128),w
  4632  0510  0020               	movlb	0	; select bank0
  4633  0511  00A0               	movwf	___fltol@f1
  4634  0512  318F  278B  3184   	fcall	___fltol
  4635  0515  0020               	movlb	0	; select bank0
  4636  0516  3620               	lsrf	?___fltol,w
  4637  0517  397F               	andlw	127
  4638  0518  3880               	iorlw	128
  4639  0519  00E6               	movwf	??_comunicacao
  4640  051A  0866               	movf	??_comunicacao,w
  4641  051B  0021               	movlb	1	; select bank1
  4642  051C  00B7               	movwf	(_byte^(0+128)+1)
  4643  051D                     l3350:
  4644                           
  4645                           ;main.c: 168:     byte[2] = 0x80 |((((uint8_t)speed)>>1)& 0x7F);
  4646  051D  084E               	movf	(comunicacao@speed+3)^(0+128),w
  4647  051E  0020               	movlb	0	; select bank0
  4648  051F  00A3               	movwf	___fltol@f1+3
  4649  0520  0021               	movlb	1	; select bank1
  4650  0521  084D               	movf	(comunicacao@speed+2)^(0+128),w
  4651  0522  0020               	movlb	0	; select bank0
  4652  0523  00A2               	movwf	___fltol@f1+2
  4653  0524  0021               	movlb	1	; select bank1
  4654  0525  084C               	movf	(comunicacao@speed+1)^(0+128),w
  4655  0526  0020               	movlb	0	; select bank0
  4656  0527  00A1               	movwf	___fltol@f1+1
  4657  0528  0021               	movlb	1	; select bank1
  4658  0529  084B               	movf	comunicacao@speed^(0+128),w
  4659  052A  0020               	movlb	0	; select bank0
  4660  052B  00A0               	movwf	___fltol@f1
  4661  052C  318F  278B  3184   	fcall	___fltol
  4662  052F  0020               	movlb	0	; select bank0
  4663  0530  3620               	lsrf	?___fltol,w
  4664  0531  397F               	andlw	127
  4665  0532  3880               	iorlw	128
  4666  0533  00E6               	movwf	??_comunicacao
  4667  0534  0866               	movf	??_comunicacao,w
  4668  0535  0021               	movlb	1	; select bank1
  4669  0536  00B8               	movwf	(_byte^(0+128)+2)
  4670  0537                     l3352:
  4671                           
  4672                           ;main.c: 169:     byte[3] = 0x80 |((((uint8_t)I_m)>>1)& 0x7F);
  4673  0537  0848               	movf	(_I_m+3)^(0+128),w
  4674  0538  0020               	movlb	0	; select bank0
  4675  0539  00A3               	movwf	___fltol@f1+3
  4676  053A  0021               	movlb	1	; select bank1
  4677  053B  0847               	movf	(_I_m+2)^(0+128),w
  4678  053C  0020               	movlb	0	; select bank0
  4679  053D  00A2               	movwf	___fltol@f1+2
  4680  053E  0021               	movlb	1	; select bank1
  4681  053F  0846               	movf	(_I_m+1)^(0+128),w
  4682  0540  0020               	movlb	0	; select bank0
  4683  0541  00A1               	movwf	___fltol@f1+1
  4684  0542  0021               	movlb	1	; select bank1
  4685  0543  0845               	movf	_I_m^(0+128),w
  4686  0544  0020               	movlb	0	; select bank0
  4687  0545  00A0               	movwf	___fltol@f1
  4688  0546  318F  278B  3184   	fcall	___fltol
  4689  0549  0020               	movlb	0	; select bank0
  4690  054A  3620               	lsrf	?___fltol,w
  4691  054B  397F               	andlw	127
  4692  054C  3880               	iorlw	128
  4693  054D  00E6               	movwf	??_comunicacao
  4694  054E  0866               	movf	??_comunicacao,w
  4695  054F  0021               	movlb	1	; select bank1
  4696  0550  00B9               	movwf	(_byte^(0+128)+3)
  4697  0551                     l3354:
  4698                           
  4699                           ;main.c: 170:     byte[4] = 0x80 |((((uint8_t)temp_mt)>>1)& 0x7F);
  4700  0551  0844               	movf	(_temp_mt+3)^(0+128),w
  4701  0552  0020               	movlb	0	; select bank0
  4702  0553  00A3               	movwf	___fltol@f1+3
  4703  0554  0021               	movlb	1	; select bank1
  4704  0555  0843               	movf	(_temp_mt+2)^(0+128),w
  4705  0556  0020               	movlb	0	; select bank0
  4706  0557  00A2               	movwf	___fltol@f1+2
  4707  0558  0021               	movlb	1	; select bank1
  4708  0559  0842               	movf	(_temp_mt+1)^(0+128),w
  4709  055A  0020               	movlb	0	; select bank0
  4710  055B  00A1               	movwf	___fltol@f1+1
  4711  055C  0021               	movlb	1	; select bank1
  4712  055D  0841               	movf	_temp_mt^(0+128),w
  4713  055E  0020               	movlb	0	; select bank0
  4714  055F  00A0               	movwf	___fltol@f1
  4715  0560  318F  278B  3184   	fcall	___fltol
  4716  0563  0020               	movlb	0	; select bank0
  4717  0564  3620               	lsrf	?___fltol,w
  4718  0565  397F               	andlw	127
  4719  0566  3880               	iorlw	128
  4720  0567  00E6               	movwf	??_comunicacao
  4721  0568  0866               	movf	??_comunicacao,w
  4722  0569  0021               	movlb	1	; select bank1
  4723  056A  00BA               	movwf	(_byte^(0+128)+4)
  4724  056B                     l597:
  4725  056B  0008               	return
  4726  056C                     __end_of_comunicacao:
  4727                           
  4728                           	psect	text9
  4729  0654                     __ptext9:	
  4730 ;; *************** function ___xxtofl *****************
  4731 ;; Defined at:
  4732 ;;		line 10 in file "C:\Program Files\Microchip\xc8\v2.30\pic\sources\c99\common\xxtofl.c"
  4733 ;; Parameters:    Size  Location     Type
  4734 ;;  sign            1    wreg     unsigned char 
  4735 ;;  val             4    4[BANK0 ] long 
  4736 ;; Auto vars:     Size  Location     Type
  4737 ;;  sign            1   12[BANK0 ] unsigned char 
  4738 ;;  arg             4   14[BANK0 ] unsigned long 
  4739 ;;  exp             1   13[BANK0 ] unsigned char 
  4740 ;; Return value:  Size  Location     Type
  4741 ;;                  4    4[BANK0 ] unsigned char 
  4742 ;; Registers used:
  4743 ;;		wreg, status,2, status,0
  4744 ;; Tracked objects:
  4745 ;;		On entry : 0/0
  4746 ;;		On exit  : 0/0
  4747 ;;		Unchanged: 0/0
  4748 ;; Data sizes:     COMMON   BANK0   BANK1   BANK2   BANK3   BANK4
  4749 ;;      Params:         0       4       0       0       0       0
  4750 ;;      Locals:         0       6       0       0       0       0
  4751 ;;      Temps:          0       4       0       0       0       0
  4752 ;;      Totals:         0      14       0       0       0       0
  4753 ;;Total ram usage:       14 bytes
  4754 ;; Hardware stack levels used:    1
  4755 ;; Hardware stack levels required when called:    4
  4756 ;; This function calls:
  4757 ;;		Nothing
  4758 ;; This function is called by:
  4759 ;;		_comunicacao
  4760 ;;		_controle
  4761 ;; This function uses a non-reentrant model
  4762 ;;
  4763                           
  4764                           
  4765                           ;psect for function ___xxtofl
  4766  0654                     ___xxtofl:
  4767                           
  4768                           ;incstack = 0
  4769                           ; Regs used in ___xxtofl: [wreg+status,2+status,0]
  4770                           ;___xxtofl@sign stored from wreg
  4771  0654  0020               	movlb	0	; select bank0
  4772  0655  00AC               	movwf	___xxtofl@sign
  4773  0656                     l2920:
  4774  0656  082C               	movf	___xxtofl@sign,w
  4775  0657  1903               	btfsc	3,2
  4776  0658  2E5A               	goto	u2281
  4777  0659  2E5B               	goto	u2280
  4778  065A                     u2281:
  4779  065A  2E6F               	goto	l2926
  4780  065B                     u2280:
  4781  065B                     l2922:
  4782  065B  1FA7               	btfss	___xxtofl@val+3,7
  4783  065C  2E5E               	goto	u2291
  4784  065D  2E5F               	goto	u2290
  4785  065E                     u2291:
  4786  065E  2E6F               	goto	l2926
  4787  065F                     u2290:
  4788  065F                     l2924:
  4789  065F  0924               	comf	___xxtofl@val,w
  4790  0660  00AE               	movwf	___xxtofl@arg
  4791  0661  0925               	comf	___xxtofl@val+1,w
  4792  0662  00AF               	movwf	___xxtofl@arg+1
  4793  0663  0926               	comf	___xxtofl@val+2,w
  4794  0664  00B0               	movwf	___xxtofl@arg+2
  4795  0665  0927               	comf	___xxtofl@val+3,w
  4796  0666  00B1               	movwf	___xxtofl@arg+3
  4797  0667  0AAE               	incf	___xxtofl@arg,f
  4798  0668  1903               	skipnz
  4799  0669  0AAF               	incf	___xxtofl@arg+1,f
  4800  066A  1903               	skipnz
  4801  066B  0AB0               	incf	___xxtofl@arg+2,f
  4802  066C  1903               	skipnz
  4803  066D  0AB1               	incf	___xxtofl@arg+3,f
  4804  066E  2E77               	goto	l1279
  4805  066F                     l2926:
  4806  066F  0827               	movf	___xxtofl@val+3,w
  4807  0670  00B1               	movwf	___xxtofl@arg+3
  4808  0671  0826               	movf	___xxtofl@val+2,w
  4809  0672  00B0               	movwf	___xxtofl@arg+2
  4810  0673  0825               	movf	___xxtofl@val+1,w
  4811  0674  00AF               	movwf	___xxtofl@arg+1
  4812  0675  0824               	movf	___xxtofl@val,w
  4813  0676  00AE               	movwf	___xxtofl@arg
  4814  0677                     l1279:
  4815  0677  0827               	movf	___xxtofl@val+3,w
  4816  0678  0426               	iorwf	___xxtofl@val+2,w
  4817  0679  0425               	iorwf	___xxtofl@val+1,w
  4818  067A  0424               	iorwf	___xxtofl@val,w
  4819  067B  1D03               	skipz
  4820  067C  2E7E               	goto	u2301
  4821  067D  2E7F               	goto	u2300
  4822  067E                     u2301:
  4823  067E  2E88               	goto	l2932
  4824  067F                     u2300:
  4825  067F                     l2928:
  4826  067F  3000               	movlw	0
  4827  0680  00A7               	movwf	?___xxtofl+3
  4828  0681  3000               	movlw	0
  4829  0682  00A6               	movwf	?___xxtofl+2
  4830  0683  3000               	movlw	0
  4831  0684  00A5               	movwf	?___xxtofl+1
  4832  0685  3000               	movlw	0
  4833  0686  00A4               	movwf	?___xxtofl
  4834  0687  2F00               	goto	l1281
  4835  0688                     l2932:
  4836  0688  3096               	movlw	150
  4837  0689  00A8               	movwf	??___xxtofl
  4838  068A  0828               	movf	??___xxtofl,w
  4839  068B  00AD               	movwf	___xxtofl@exp
  4840  068C  2E98               	goto	l2936
  4841  068D                     l2934:
  4842  068D  3001               	movlw	1
  4843  068E  00A8               	movwf	??___xxtofl
  4844  068F  0828               	movf	??___xxtofl,w
  4845  0690  07AD               	addwf	___xxtofl@exp,f
  4846  0691  3001               	movlw	1
  4847  0692                     u2315:
  4848  0692  36B1               	lsrf	___xxtofl@arg+3,f
  4849  0693  0CB0               	rrf	___xxtofl@arg+2,f
  4850  0694  0CAF               	rrf	___xxtofl@arg+1,f
  4851  0695  0CAE               	rrf	___xxtofl@arg,f
  4852  0696  0B89               	decfsz	9,f
  4853  0697  2E92               	goto	u2315
  4854  0698                     l2936:
  4855  0698  30FE               	movlw	254
  4856  0699  0531               	andwf	___xxtofl@arg+3,w
  4857  069A  1D03               	btfss	3,2
  4858  069B  2E9D               	goto	u2321
  4859  069C  2E9E               	goto	u2320
  4860  069D                     u2321:
  4861  069D  2E8D               	goto	l2934
  4862  069E                     u2320:
  4863  069E  2EB2               	goto	l1285
  4864  069F                     l2938:
  4865  069F  3001               	movlw	1
  4866  06A0  00A8               	movwf	??___xxtofl
  4867  06A1  0828               	movf	??___xxtofl,w
  4868  06A2  07AD               	addwf	___xxtofl@exp,f
  4869  06A3                     l2940:
  4870  06A3  3001               	movlw	1
  4871  06A4  07AE               	addwf	___xxtofl@arg,f
  4872  06A5  3000               	movlw	0
  4873  06A6  3DAF               	addwfc	___xxtofl@arg+1,f
  4874  06A7  3000               	movlw	0
  4875  06A8  3DB0               	addwfc	___xxtofl@arg+2,f
  4876  06A9  3000               	movlw	0
  4877  06AA  3DB1               	addwfc	___xxtofl@arg+3,f
  4878  06AB                     l2942:
  4879  06AB  3001               	movlw	1
  4880  06AC                     u2335:
  4881  06AC  36B1               	lsrf	___xxtofl@arg+3,f
  4882  06AD  0CB0               	rrf	___xxtofl@arg+2,f
  4883  06AE  0CAF               	rrf	___xxtofl@arg+1,f
  4884  06AF  0CAE               	rrf	___xxtofl@arg,f
  4885  06B0  0B89               	decfsz	9,f
  4886  06B1  2EAC               	goto	u2335
  4887  06B2                     l1285:
  4888  06B2  30FF               	movlw	255
  4889  06B3  0531               	andwf	___xxtofl@arg+3,w
  4890  06B4  1D03               	btfss	3,2
  4891  06B5  2EB7               	goto	u2341
  4892  06B6  2EB8               	goto	u2340
  4893  06B7                     u2341:
  4894  06B7  2E9F               	goto	l2938
  4895  06B8                     u2340:
  4896  06B8  2EC2               	goto	l2946
  4897  06B9                     l2944:
  4898  06B9  3001               	movlw	1
  4899  06BA  02AD               	subwf	___xxtofl@exp,f
  4900  06BB  3001               	movlw	1
  4901  06BC                     u2355:
  4902  06BC  35AE               	lslf	___xxtofl@arg,f
  4903  06BD  0DAF               	rlf	___xxtofl@arg+1,f
  4904  06BE  0DB0               	rlf	___xxtofl@arg+2,f
  4905  06BF  0DB1               	rlf	___xxtofl@arg+3,f
  4906  06C0  0B89               	decfsz	9,f
  4907  06C1  2EBC               	goto	u2355
  4908  06C2                     l2946:
  4909  06C2  1BB0               	btfsc	___xxtofl@arg+2,7
  4910  06C3  2EC5               	goto	u2361
  4911  06C4  2EC6               	goto	u2360
  4912  06C5                     u2361:
  4913  06C5  2ECC               	goto	l1292
  4914  06C6                     u2360:
  4915  06C6                     l2948:
  4916  06C6  3002               	movlw	2
  4917  06C7  022D               	subwf	___xxtofl@exp,w
  4918  06C8  1803               	skipnc
  4919  06C9  2ECB               	goto	u2371
  4920  06CA  2ECC               	goto	u2370
  4921  06CB                     u2371:
  4922  06CB  2EB9               	goto	l2944
  4923  06CC                     u2370:
  4924  06CC                     l1292:
  4925  06CC  182D               	btfsc	___xxtofl@exp,0
  4926  06CD  2ECF               	goto	u2381
  4927  06CE  2ED0               	goto	u2380
  4928  06CF                     u2381:
  4929  06CF  2ED8               	goto	l1293
  4930  06D0                     u2380:
  4931  06D0                     l2950:
  4932  06D0  30FF               	movlw	255
  4933  06D1  05AE               	andwf	___xxtofl@arg,f
  4934  06D2  30FF               	movlw	255
  4935  06D3  05AF               	andwf	___xxtofl@arg+1,f
  4936  06D4  307F               	movlw	127
  4937  06D5  05B0               	andwf	___xxtofl@arg+2,f
  4938  06D6  30FF               	movlw	255
  4939  06D7  05B1               	andwf	___xxtofl@arg+3,f
  4940  06D8                     l1293:
  4941  06D8  1003               	clrc
  4942  06D9  0CAD               	rrf	___xxtofl@exp,f
  4943  06DA                     l2952:
  4944  06DA  082D               	movf	___xxtofl@exp,w
  4945  06DB  00A8               	movwf	??___xxtofl
  4946  06DC  01A9               	clrf	??___xxtofl+1
  4947  06DD  01AA               	clrf	??___xxtofl+2
  4948  06DE  01AB               	clrf	??___xxtofl+3
  4949  06DF  3018               	movlw	24
  4950  06E0                     u2395:
  4951  06E0  35A8               	lslf	??___xxtofl,f
  4952  06E1  0DA9               	rlf	??___xxtofl+1,f
  4953  06E2  0DAA               	rlf	??___xxtofl+2,f
  4954  06E3  0DAB               	rlf	??___xxtofl+3,f
  4955  06E4                     u2390:
  4956  06E4  0B89               	decfsz	9,f
  4957  06E5  2EE0               	goto	u2395
  4958  06E6  0828               	movf	??___xxtofl,w
  4959  06E7  04AE               	iorwf	___xxtofl@arg,f
  4960  06E8  0829               	movf	??___xxtofl+1,w
  4961  06E9  04AF               	iorwf	___xxtofl@arg+1,f
  4962  06EA  082A               	movf	??___xxtofl+2,w
  4963  06EB  04B0               	iorwf	___xxtofl@arg+2,f
  4964  06EC  082B               	movf	??___xxtofl+3,w
  4965  06ED  04B1               	iorwf	___xxtofl@arg+3,f
  4966  06EE                     l2954:
  4967  06EE  082C               	movf	___xxtofl@sign,w
  4968  06EF  1903               	btfsc	3,2
  4969  06F0  2EF2               	goto	u2401
  4970  06F1  2EF3               	goto	u2400
  4971  06F2                     u2401:
  4972  06F2  2EF8               	goto	l2960
  4973  06F3                     u2400:
  4974  06F3                     l2956:
  4975  06F3  1FA7               	btfss	___xxtofl@val+3,7
  4976  06F4  2EF6               	goto	u2411
  4977  06F5  2EF7               	goto	u2410
  4978  06F6                     u2411:
  4979  06F6  2EF8               	goto	l2960
  4980  06F7                     u2410:
  4981  06F7                     l2958:
  4982  06F7  17B1               	bsf	___xxtofl@arg+3,7
  4983  06F8                     l2960:
  4984  06F8  0831               	movf	___xxtofl@arg+3,w
  4985  06F9  00A7               	movwf	?___xxtofl+3
  4986  06FA  0830               	movf	___xxtofl@arg+2,w
  4987  06FB  00A6               	movwf	?___xxtofl+2
  4988  06FC  082F               	movf	___xxtofl@arg+1,w
  4989  06FD  00A5               	movwf	?___xxtofl+1
  4990  06FE  082E               	movf	___xxtofl@arg,w
  4991  06FF  00A4               	movwf	?___xxtofl
  4992  0700                     l1281:
  4993  0700  0008               	return
  4994  0701                     __end_of___xxtofl:
  4995                           
  4996                           	psect	text10
  4997  0F8B                     __ptext10:	
  4998 ;; *************** function ___fltol *****************
  4999 ;; Defined at:
  5000 ;;		line 43 in file "C:\Program Files\Microchip\xc8\v2.30\pic\sources\c99\common\fltol.c"
  5001 ;; Parameters:    Size  Location     Type
  5002 ;;  f1              4    0[BANK0 ] unsigned char 
  5003 ;; Auto vars:     Size  Location     Type
  5004 ;;  exp1            1   10[BANK0 ] unsigned char 
  5005 ;;  sign1           1    9[BANK0 ] unsigned char 
  5006 ;; Return value:  Size  Location     Type
  5007 ;;                  4    0[BANK0 ] long 
  5008 ;; Registers used:
  5009 ;;		wreg, status,2, status,0
  5010 ;; Tracked objects:
  5011 ;;		On entry : 0/0
  5012 ;;		On exit  : 0/0
  5013 ;;		Unchanged: 0/0
  5014 ;; Data sizes:     COMMON   BANK0   BANK1   BANK2   BANK3   BANK4
  5015 ;;      Params:         0       4       0       0       0       0
  5016 ;;      Locals:         0       2       0       0       0       0
  5017 ;;      Temps:          0       5       0       0       0       0
  5018 ;;      Totals:         0      11       0       0       0       0
  5019 ;;Total ram usage:       11 bytes
  5020 ;; Hardware stack levels used:    1
  5021 ;; Hardware stack levels required when called:    4
  5022 ;; This function calls:
  5023 ;;		Nothing
  5024 ;; This function is called by:
  5025 ;;		_comunicacao
  5026 ;; This function uses a non-reentrant model
  5027 ;;
  5028                           
  5029                           
  5030                           ;psect for function ___fltol
  5031  0F8B                     ___fltol:
  5032  0F8B                     l2604:	
  5033                           ;incstack = 0
  5034                           ; Regs used in ___fltol: [wreg+status,2+status,0]
  5035                           
  5036  0F8B  1003               	clrc
  5037  0F8C  0020               	movlb	0	; select bank0
  5038  0F8D  0D22               	rlf	___fltol@f1+2,w
  5039  0F8E  0D23               	rlf	___fltol@f1+3,w
  5040  0F8F  00A4               	movwf	??___fltol
  5041  0F90  0824               	movf	??___fltol,w
  5042  0F91  00AA               	movwf	___fltol@exp1
  5043  0F92  082A               	movf	___fltol@exp1,w
  5044  0F93  1D03               	btfss	3,2
  5045  0F94  2F96               	goto	u1631
  5046  0F95  2F97               	goto	u1630
  5047  0F96                     u1631:
  5048  0F96  2FA0               	goto	l2610
  5049  0F97                     u1630:
  5050  0F97                     l2606:
  5051  0F97  3000               	movlw	0
  5052  0F98  00A3               	movwf	?___fltol+3
  5053  0F99  3000               	movlw	0
  5054  0F9A  00A2               	movwf	?___fltol+2
  5055  0F9B  3000               	movlw	0
  5056  0F9C  00A1               	movwf	?___fltol+1
  5057  0F9D  3000               	movlw	0
  5058  0F9E  00A0               	movwf	?___fltol
  5059  0F9F  2FFF               	goto	l1032
  5060  0FA0                     l2610:
  5061  0FA0  0820               	movf	___fltol@f1,w
  5062  0FA1  00A4               	movwf	??___fltol
  5063  0FA2  0821               	movf	___fltol@f1+1,w
  5064  0FA3  00A5               	movwf	??___fltol+1
  5065  0FA4  0822               	movf	___fltol@f1+2,w
  5066  0FA5  00A6               	movwf	??___fltol+2
  5067  0FA6  0823               	movf	___fltol@f1+3,w
  5068  0FA7  00A7               	movwf	??___fltol+3
  5069  0FA8  301F               	movlw	31
  5070  0FA9                     u1645:
  5071  0FA9  36A7               	lsrf	??___fltol+3,f
  5072  0FAA  0CA6               	rrf	??___fltol+2,f
  5073  0FAB  0CA5               	rrf	??___fltol+1,f
  5074  0FAC  0CA4               	rrf	??___fltol,f
  5075  0FAD                     u1640:
  5076  0FAD  0B89               	decfsz	9,f
  5077  0FAE  2FA9               	goto	u1645
  5078  0FAF  0824               	movf	??___fltol,w
  5079  0FB0  00A8               	movwf	??___fltol+4
  5080  0FB1  0828               	movf	??___fltol+4,w
  5081  0FB2  00A9               	movwf	___fltol@sign1
  5082  0FB3                     l2612:
  5083  0FB3  17A2               	bsf	___fltol@f1+2,7
  5084  0FB4                     l2614:
  5085  0FB4  30FF               	movlw	255
  5086  0FB5  05A0               	andwf	___fltol@f1,f
  5087  0FB6  30FF               	movlw	255
  5088  0FB7  05A1               	andwf	___fltol@f1+1,f
  5089  0FB8  30FF               	movlw	255
  5090  0FB9  05A2               	andwf	___fltol@f1+2,f
  5091  0FBA  3000               	movlw	0
  5092  0FBB  05A3               	andwf	___fltol@f1+3,f
  5093  0FBC                     l2616:
  5094  0FBC  3096               	movlw	150
  5095  0FBD  02AA               	subwf	___fltol@exp1,f
  5096  0FBE                     l2618:
  5097  0FBE  1FAA               	btfss	___fltol@exp1,7
  5098  0FBF  2FC1               	goto	u1651
  5099  0FC0  2FC2               	goto	u1650
  5100  0FC1                     u1651:
  5101  0FC1  2FDA               	goto	l2628
  5102  0FC2                     u1650:
  5103  0FC2                     l2620:
  5104  0FC2  082A               	movf	___fltol@exp1,w
  5105  0FC3  3A80               	xorlw	128
  5106  0FC4  3E97               	addlw	151
  5107  0FC5  1803               	skipnc
  5108  0FC6  2FC8               	goto	u1661
  5109  0FC7  2FC9               	goto	u1660
  5110  0FC8                     u1661:
  5111  0FC8  2FCA               	goto	l2626
  5112  0FC9                     u1660:
  5113  0FC9  2F97               	goto	l2606
  5114  0FCA                     l2626:
  5115  0FCA  3001               	movlw	1
  5116  0FCB                     u1675:
  5117  0FCB  36A3               	lsrf	___fltol@f1+3,f
  5118  0FCC  0CA2               	rrf	___fltol@f1+2,f
  5119  0FCD  0CA1               	rrf	___fltol@f1+1,f
  5120  0FCE  0CA0               	rrf	___fltol@f1,f
  5121  0FCF  0B89               	decfsz	9,f
  5122  0FD0  2FCB               	goto	u1675
  5123  0FD1  3001               	movlw	1
  5124  0FD2  00A4               	movwf	??___fltol
  5125  0FD3  0824               	movf	??___fltol,w
  5126  0FD4  07AA               	addwf	___fltol@exp1,f
  5127  0FD5  1D03               	btfss	3,2
  5128  0FD6  2FD8               	goto	u1681
  5129  0FD7  2FD9               	goto	u1680
  5130  0FD8                     u1681:
  5131  0FD8  2FCA               	goto	l2626
  5132  0FD9                     u1680:
  5133  0FD9  2FEF               	goto	l2636
  5134  0FDA                     l2628:
  5135  0FDA  3020               	movlw	32
  5136  0FDB  022A               	subwf	___fltol@exp1,w
  5137  0FDC  1C03               	skipc
  5138  0FDD  2FDF               	goto	u1691
  5139  0FDE  2FE0               	goto	u1690
  5140  0FDF                     u1691:
  5141  0FDF  2FEA               	goto	l1039
  5142  0FE0                     u1690:
  5143  0FE0  2F97               	goto	l2606
  5144  0FE1                     l2634:
  5145  0FE1  3001               	movlw	1
  5146  0FE2                     u1705:
  5147  0FE2  35A0               	lslf	___fltol@f1,f
  5148  0FE3  0DA1               	rlf	___fltol@f1+1,f
  5149  0FE4  0DA2               	rlf	___fltol@f1+2,f
  5150  0FE5  0DA3               	rlf	___fltol@f1+3,f
  5151  0FE6  0B89               	decfsz	9,f
  5152  0FE7  2FE2               	goto	u1705
  5153  0FE8  3001               	movlw	1
  5154  0FE9  02AA               	subwf	___fltol@exp1,f
  5155  0FEA                     l1039:
  5156  0FEA  082A               	movf	___fltol@exp1,w
  5157  0FEB  1D03               	btfss	3,2
  5158  0FEC  2FEE               	goto	u1711
  5159  0FED  2FEF               	goto	u1710
  5160  0FEE                     u1711:
  5161  0FEE  2FE1               	goto	l2634
  5162  0FEF                     u1710:
  5163  0FEF                     l2636:
  5164  0FEF  0829               	movf	___fltol@sign1,w
  5165  0FF0  1903               	btfsc	3,2
  5166  0FF1  2FF3               	goto	u1721
  5167  0FF2  2FF4               	goto	u1720
  5168  0FF3                     u1721:
  5169  0FF3  2FFF               	goto	l1042
  5170  0FF4                     u1720:
  5171  0FF4                     l2638:
  5172  0FF4  09A0               	comf	___fltol@f1,f
  5173  0FF5  09A1               	comf	___fltol@f1+1,f
  5174  0FF6  09A2               	comf	___fltol@f1+2,f
  5175  0FF7  09A3               	comf	___fltol@f1+3,f
  5176  0FF8  0AA0               	incf	___fltol@f1,f
  5177  0FF9  1903               	skipnz
  5178  0FFA  0AA1               	incf	___fltol@f1+1,f
  5179  0FFB  1903               	skipnz
  5180  0FFC  0AA2               	incf	___fltol@f1+2,f
  5181  0FFD  1903               	skipnz
  5182  0FFE  0AA3               	incf	___fltol@f1+3,f
  5183  0FFF                     l1042:
  5184  0FFF                     l1032:
  5185  0FFF  0008               	return
  5186  1000                     __end_of___fltol:
  5187                           
  5188                           	psect	text11
  5189  005E                     __ptext11:	
  5190 ;; *************** function ___flmul *****************
  5191 ;; Defined at:
  5192 ;;		line 8 in file "C:\Program Files\Microchip\xc8\v2.30\pic\sources\c99\common\sprcmul.c"
  5193 ;; Parameters:    Size  Location     Type
  5194 ;;  b               4   18[BANK0 ] long 
  5195 ;;  a               4   22[BANK0 ] long 
  5196 ;; Auto vars:     Size  Location     Type
  5197 ;;  prod            4   38[BANK0 ] struct .
  5198 ;;  grs             4   32[BANK0 ] unsigned long 
  5199 ;;  temp            2   42[BANK0 ] struct .
  5200 ;;  bexp            1   37[BANK0 ] unsigned char 
  5201 ;;  aexp            1   36[BANK0 ] unsigned char 
  5202 ;;  sign            1   31[BANK0 ] unsigned char 
  5203 ;; Return value:  Size  Location     Type
  5204 ;;                  4   18[BANK0 ] unsigned char 
  5205 ;; Registers used:
  5206 ;;		wreg, status,2, status,0, pclath, cstack
  5207 ;; Tracked objects:
  5208 ;;		On entry : 0/0
  5209 ;;		On exit  : 0/0
  5210 ;;		Unchanged: 0/0
  5211 ;; Data sizes:     COMMON   BANK0   BANK1   BANK2   BANK3   BANK4
  5212 ;;      Params:         0       8       0       0       0       0
  5213 ;;      Locals:         0      13       0       0       0       0
  5214 ;;      Temps:          0       5       0       0       0       0
  5215 ;;      Totals:         0      26       0       0       0       0
  5216 ;;Total ram usage:       26 bytes
  5217 ;; Hardware stack levels used:    1
  5218 ;; Hardware stack levels required when called:    5
  5219 ;; This function calls:
  5220 ;;		__Umul8_16
  5221 ;; This function is called by:
  5222 ;;		_comunicacao
  5223 ;;		_controle
  5224 ;; This function uses a non-reentrant model
  5225 ;;
  5226                           
  5227                           
  5228                           ;psect for function ___flmul
  5229  005E                     ___flmul:
  5230  005E                     l2780:	
  5231                           ;incstack = 0
  5232                           ; Regs used in ___flmul: [wreg+status,2+status,0+pclath+cstack]
  5233                           
  5234  005E  0020               	movlb	0	; select bank0
  5235  005F  0835               	movf	___flmul@b+3,w
  5236  0060  3980               	andlw	128
  5237  0061  00BA               	movwf	??___flmul
  5238  0062  083A               	movf	??___flmul,w
  5239  0063  00BF               	movwf	___flmul@sign
  5240  0064                     l2782:
  5241  0064  3535               	lslf	___flmul@b+3,w
  5242  0065  00BA               	movwf	??___flmul
  5243  0066  083A               	movf	??___flmul,w
  5244  0067  00C5               	movwf	___flmul@bexp
  5245  0068                     l2784:
  5246  0068  1FB4               	btfss	___flmul@b+2,7
  5247  0069  286B               	goto	u2021
  5248  006A  286C               	goto	u2020
  5249  006B                     u2021:
  5250  006B  286D               	goto	l2788
  5251  006C                     u2020:
  5252  006C                     l2786:
  5253  006C  1445               	bsf	___flmul@bexp,0
  5254  006D                     l2788:
  5255  006D  0845               	movf	___flmul@bexp,w
  5256  006E  1903               	btfsc	3,2
  5257  006F  2871               	goto	u2031
  5258  0070  2872               	goto	u2030
  5259  0071                     u2031:
  5260  0071  2881               	goto	l2796
  5261  0072                     u2030:
  5262  0072                     l2790:
  5263  0072  0A45               	incf	___flmul@bexp,w
  5264  0073  1D03               	btfss	3,2
  5265  0074  2876               	goto	u2041
  5266  0075  2877               	goto	u2040
  5267  0076                     u2041:
  5268  0076  287F               	goto	l2794
  5269  0077                     u2040:
  5270  0077                     l2792:
  5271  0077  3000               	movlw	0
  5272  0078  00B5               	movwf	___flmul@b+3
  5273  0079  3000               	movlw	0
  5274  007A  00B4               	movwf	___flmul@b+2
  5275  007B  3000               	movlw	0
  5276  007C  00B3               	movwf	___flmul@b+1
  5277  007D  3000               	movlw	0
  5278  007E  00B2               	movwf	___flmul@b
  5279  007F                     l2794:
  5280  007F  17B4               	bsf	___flmul@b+2,7
  5281  0080  2889               	goto	l2798
  5282  0081                     l2796:
  5283  0081  3000               	movlw	0
  5284  0082  00B5               	movwf	___flmul@b+3
  5285  0083  3000               	movlw	0
  5286  0084  00B4               	movwf	___flmul@b+2
  5287  0085  3000               	movlw	0
  5288  0086  00B3               	movwf	___flmul@b+1
  5289  0087  3000               	movlw	0
  5290  0088  00B2               	movwf	___flmul@b
  5291  0089                     l2798:
  5292  0089  0839               	movf	___flmul@a+3,w
  5293  008A  3980               	andlw	128
  5294  008B  00BA               	movwf	??___flmul
  5295  008C  083A               	movf	??___flmul,w
  5296  008D  06BF               	xorwf	___flmul@sign,f
  5297  008E                     l2800:
  5298  008E  3539               	lslf	___flmul@a+3,w
  5299  008F  00BA               	movwf	??___flmul
  5300  0090  083A               	movf	??___flmul,w
  5301  0091  00C4               	movwf	___flmul@aexp
  5302  0092                     l2802:
  5303  0092  1FB8               	btfss	___flmul@a+2,7
  5304  0093  2895               	goto	u2051
  5305  0094  2896               	goto	u2050
  5306  0095                     u2051:
  5307  0095  2897               	goto	l2806
  5308  0096                     u2050:
  5309  0096                     l2804:
  5310  0096  1444               	bsf	___flmul@aexp,0
  5311  0097                     l2806:
  5312  0097  0844               	movf	___flmul@aexp,w
  5313  0098  1903               	btfsc	3,2
  5314  0099  289B               	goto	u2061
  5315  009A  289C               	goto	u2060
  5316  009B                     u2061:
  5317  009B  28AB               	goto	l2814
  5318  009C                     u2060:
  5319  009C                     l2808:
  5320  009C  0A44               	incf	___flmul@aexp,w
  5321  009D  1D03               	btfss	3,2
  5322  009E  28A0               	goto	u2071
  5323  009F  28A1               	goto	u2070
  5324  00A0                     u2071:
  5325  00A0  28A9               	goto	l2812
  5326  00A1                     u2070:
  5327  00A1                     l2810:
  5328  00A1  3000               	movlw	0
  5329  00A2  00B9               	movwf	___flmul@a+3
  5330  00A3  3000               	movlw	0
  5331  00A4  00B8               	movwf	___flmul@a+2
  5332  00A5  3000               	movlw	0
  5333  00A6  00B7               	movwf	___flmul@a+1
  5334  00A7  3000               	movlw	0
  5335  00A8  00B6               	movwf	___flmul@a
  5336  00A9                     l2812:
  5337  00A9  17B8               	bsf	___flmul@a+2,7
  5338  00AA  28B3               	goto	l2816
  5339  00AB                     l2814:
  5340  00AB  3000               	movlw	0
  5341  00AC  00B9               	movwf	___flmul@a+3
  5342  00AD  3000               	movlw	0
  5343  00AE  00B8               	movwf	___flmul@a+2
  5344  00AF  3000               	movlw	0
  5345  00B0  00B7               	movwf	___flmul@a+1
  5346  00B1  3000               	movlw	0
  5347  00B2  00B6               	movwf	___flmul@a
  5348  00B3                     l2816:
  5349  00B3  0844               	movf	___flmul@aexp,w
  5350  00B4  1903               	btfsc	3,2
  5351  00B5  28B7               	goto	u2081
  5352  00B6  28B8               	goto	u2080
  5353  00B7                     u2081:
  5354  00B7  28BD               	goto	l2820
  5355  00B8                     u2080:
  5356  00B8                     l2818:
  5357  00B8  0845               	movf	___flmul@bexp,w
  5358  00B9  1D03               	btfss	3,2
  5359  00BA  28BC               	goto	u2091
  5360  00BB  28BD               	goto	u2090
  5361  00BC                     u2091:
  5362  00BC  28C6               	goto	l2824
  5363  00BD                     u2090:
  5364  00BD                     l2820:
  5365  00BD  3000               	movlw	0
  5366  00BE  00B5               	movwf	?___flmul+3
  5367  00BF  3000               	movlw	0
  5368  00C0  00B4               	movwf	?___flmul+2
  5369  00C1  3000               	movlw	0
  5370  00C2  00B3               	movwf	?___flmul+1
  5371  00C3  3000               	movlw	0
  5372  00C4  00B2               	movwf	?___flmul
  5373  00C5  2AB4               	goto	l1235
  5374  00C6                     l2824:
  5375  00C6  0832               	movf	___flmul@b,w
  5376  00C7  00BA               	movwf	??___flmul
  5377  00C8  083A               	movf	??___flmul,w
  5378  00C9  00A0               	movwf	__Umul8_16@multiplicand
  5379  00CA  0838               	movf	___flmul@a+2,w
  5380  00CB  318E  26A3  3180   	fcall	__Umul8_16
  5381  00CE  0020               	movlb	0	; select bank0
  5382  00CF  0821               	movf	?__Umul8_16+1,w
  5383  00D0  00CB               	movwf	___flmul@temp+1
  5384  00D1  0820               	movf	?__Umul8_16,w
  5385  00D2  00CA               	movwf	___flmul@temp
  5386  00D3                     l2826:
  5387  00D3  084A               	movf	___flmul@temp,w
  5388  00D4  00BA               	movwf	??___flmul
  5389  00D5  01BB               	clrf	??___flmul+1
  5390  00D6  01BC               	clrf	??___flmul+2
  5391  00D7  01BD               	clrf	??___flmul+3
  5392  00D8  083D               	movf	??___flmul+3,w
  5393  00D9  00C3               	movwf	___flmul@grs+3
  5394  00DA  083C               	movf	??___flmul+2,w
  5395  00DB  00C2               	movwf	___flmul@grs+2
  5396  00DC  083B               	movf	??___flmul+1,w
  5397  00DD  00C1               	movwf	___flmul@grs+1
  5398  00DE  083A               	movf	??___flmul,w
  5399  00DF  00C0               	movwf	___flmul@grs
  5400  00E0                     l2828:
  5401  00E0  084B               	movf	___flmul@temp+1,w
  5402  00E1  00BA               	movwf	??___flmul
  5403  00E2  01BB               	clrf	??___flmul+1
  5404  00E3  01BC               	clrf	??___flmul+2
  5405  00E4  01BD               	clrf	??___flmul+3
  5406  00E5  083D               	movf	??___flmul+3,w
  5407  00E6  00C9               	movwf	___flmul@prod+3
  5408  00E7  083C               	movf	??___flmul+2,w
  5409  00E8  00C8               	movwf	___flmul@prod+2
  5410  00E9  083B               	movf	??___flmul+1,w
  5411  00EA  00C7               	movwf	___flmul@prod+1
  5412  00EB  083A               	movf	??___flmul,w
  5413  00EC  00C6               	movwf	___flmul@prod
  5414  00ED  0833               	movf	___flmul@b+1,w
  5415  00EE  00BA               	movwf	??___flmul
  5416  00EF  083A               	movf	??___flmul,w
  5417  00F0  00A0               	movwf	__Umul8_16@multiplicand
  5418  00F1  0837               	movf	___flmul@a+1,w
  5419  00F2  318E  26A3  3180   	fcall	__Umul8_16
  5420  00F5  0020               	movlb	0	; select bank0
  5421  00F6  0821               	movf	?__Umul8_16+1,w
  5422  00F7  00CB               	movwf	___flmul@temp+1
  5423  00F8  0820               	movf	?__Umul8_16,w
  5424  00F9  00CA               	movwf	___flmul@temp
  5425  00FA                     l2830:
  5426  00FA  084A               	movf	___flmul@temp,w
  5427  00FB  00BA               	movwf	??___flmul
  5428  00FC  01BB               	clrf	??___flmul+1
  5429  00FD  01BC               	clrf	??___flmul+2
  5430  00FE  01BD               	clrf	??___flmul+3
  5431  00FF  083A               	movf	??___flmul,w
  5432  0100  07C0               	addwf	___flmul@grs,f
  5433  0101  083B               	movf	??___flmul+1,w
  5434  0102  3DC1               	addwfc	___flmul@grs+1,f
  5435  0103  083C               	movf	??___flmul+2,w
  5436  0104  3DC2               	addwfc	___flmul@grs+2,f
  5437  0105  083D               	movf	??___flmul+3,w
  5438  0106  3DC3               	addwfc	___flmul@grs+3,f
  5439  0107                     l2832:
  5440  0107  084B               	movf	___flmul@temp+1,w
  5441  0108  00BA               	movwf	??___flmul
  5442  0109  01BB               	clrf	??___flmul+1
  5443  010A  01BC               	clrf	??___flmul+2
  5444  010B  01BD               	clrf	??___flmul+3
  5445  010C  083A               	movf	??___flmul,w
  5446  010D  07C6               	addwf	___flmul@prod,f
  5447  010E  083B               	movf	??___flmul+1,w
  5448  010F  3DC7               	addwfc	___flmul@prod+1,f
  5449  0110  083C               	movf	??___flmul+2,w
  5450  0111  3DC8               	addwfc	___flmul@prod+2,f
  5451  0112  083D               	movf	??___flmul+3,w
  5452  0113  3DC9               	addwfc	___flmul@prod+3,f
  5453  0114  0834               	movf	___flmul@b+2,w
  5454  0115  00BA               	movwf	??___flmul
  5455  0116  083A               	movf	??___flmul,w
  5456  0117  00A0               	movwf	__Umul8_16@multiplicand
  5457  0118  0836               	movf	___flmul@a,w
  5458  0119  318E  26A3  3180   	fcall	__Umul8_16
  5459  011C  0020               	movlb	0	; select bank0
  5460  011D  0821               	movf	?__Umul8_16+1,w
  5461  011E  00CB               	movwf	___flmul@temp+1
  5462  011F  0820               	movf	?__Umul8_16,w
  5463  0120  00CA               	movwf	___flmul@temp
  5464  0121                     l2834:
  5465  0121  084A               	movf	___flmul@temp,w
  5466  0122  00BA               	movwf	??___flmul
  5467  0123  01BB               	clrf	??___flmul+1
  5468  0124  01BC               	clrf	??___flmul+2
  5469  0125  01BD               	clrf	??___flmul+3
  5470  0126  083A               	movf	??___flmul,w
  5471  0127  07C0               	addwf	___flmul@grs,f
  5472  0128  083B               	movf	??___flmul+1,w
  5473  0129  3DC1               	addwfc	___flmul@grs+1,f
  5474  012A  083C               	movf	??___flmul+2,w
  5475  012B  3DC2               	addwfc	___flmul@grs+2,f
  5476  012C  083D               	movf	??___flmul+3,w
  5477  012D  3DC3               	addwfc	___flmul@grs+3,f
  5478  012E                     l2836:
  5479  012E  084B               	movf	___flmul@temp+1,w
  5480  012F  00BA               	movwf	??___flmul
  5481  0130  01BB               	clrf	??___flmul+1
  5482  0131  01BC               	clrf	??___flmul+2
  5483  0132  01BD               	clrf	??___flmul+3
  5484  0133  083A               	movf	??___flmul,w
  5485  0134  07C6               	addwf	___flmul@prod,f
  5486  0135  083B               	movf	??___flmul+1,w
  5487  0136  3DC7               	addwfc	___flmul@prod+1,f
  5488  0137  083C               	movf	??___flmul+2,w
  5489  0138  3DC8               	addwfc	___flmul@prod+2,f
  5490  0139  083D               	movf	??___flmul+3,w
  5491  013A  3DC9               	addwfc	___flmul@prod+3,f
  5492  013B                     l2838:
  5493  013B  3008               	movlw	8
  5494  013C                     u2105:
  5495  013C  35C0               	lslf	___flmul@grs,f
  5496  013D  0DC1               	rlf	___flmul@grs+1,f
  5497  013E  0DC2               	rlf	___flmul@grs+2,f
  5498  013F  0DC3               	rlf	___flmul@grs+3,f
  5499  0140  0B89               	decfsz	9,f
  5500  0141  293C               	goto	u2105
  5501  0142                     l2840:
  5502  0142  0833               	movf	___flmul@b+1,w
  5503  0143  00BA               	movwf	??___flmul
  5504  0144  083A               	movf	??___flmul,w
  5505  0145  00A0               	movwf	__Umul8_16@multiplicand
  5506  0146  0836               	movf	___flmul@a,w
  5507  0147  318E  26A3  3180   	fcall	__Umul8_16
  5508  014A  0020               	movlb	0	; select bank0
  5509  014B  0821               	movf	?__Umul8_16+1,w
  5510  014C  00CB               	movwf	___flmul@temp+1
  5511  014D  0820               	movf	?__Umul8_16,w
  5512  014E  00CA               	movwf	___flmul@temp
  5513  014F                     l2842:
  5514  014F  084A               	movf	___flmul@temp,w
  5515  0150  07C0               	addwf	___flmul@grs,f
  5516  0151  084B               	movf	___flmul@temp+1,w
  5517  0152  3DC1               	addwfc	___flmul@grs+1,f
  5518  0153  3000               	movlw	0
  5519  0154  3DC2               	addwfc	___flmul@grs+2,f
  5520  0155  3DC3               	addwfc	___flmul@grs+3,f
  5521  0156                     l2844:
  5522  0156  0832               	movf	___flmul@b,w
  5523  0157  00BA               	movwf	??___flmul
  5524  0158  083A               	movf	??___flmul,w
  5525  0159  00A0               	movwf	__Umul8_16@multiplicand
  5526  015A  0837               	movf	___flmul@a+1,w
  5527  015B  318E  26A3  3180   	fcall	__Umul8_16
  5528  015E  0020               	movlb	0	; select bank0
  5529  015F  0821               	movf	?__Umul8_16+1,w
  5530  0160  00CB               	movwf	___flmul@temp+1
  5531  0161  0820               	movf	?__Umul8_16,w
  5532  0162  00CA               	movwf	___flmul@temp
  5533  0163                     l2846:
  5534  0163  084A               	movf	___flmul@temp,w
  5535  0164  07C0               	addwf	___flmul@grs,f
  5536  0165  084B               	movf	___flmul@temp+1,w
  5537  0166  3DC1               	addwfc	___flmul@grs+1,f
  5538  0167  3000               	movlw	0
  5539  0168  3DC2               	addwfc	___flmul@grs+2,f
  5540  0169  3DC3               	addwfc	___flmul@grs+3,f
  5541  016A                     l2848:
  5542  016A  3008               	movlw	8
  5543  016B                     u2115:
  5544  016B  35C0               	lslf	___flmul@grs,f
  5545  016C  0DC1               	rlf	___flmul@grs+1,f
  5546  016D  0DC2               	rlf	___flmul@grs+2,f
  5547  016E  0DC3               	rlf	___flmul@grs+3,f
  5548  016F  0B89               	decfsz	9,f
  5549  0170  296B               	goto	u2115
  5550  0171  0832               	movf	___flmul@b,w
  5551  0172  00BA               	movwf	??___flmul
  5552  0173  083A               	movf	??___flmul,w
  5553  0174  00A0               	movwf	__Umul8_16@multiplicand
  5554  0175  0836               	movf	___flmul@a,w
  5555  0176  318E  26A3  3180   	fcall	__Umul8_16
  5556  0179  0020               	movlb	0	; select bank0
  5557  017A  0821               	movf	?__Umul8_16+1,w
  5558  017B  00CB               	movwf	___flmul@temp+1
  5559  017C  0820               	movf	?__Umul8_16,w
  5560  017D  00CA               	movwf	___flmul@temp
  5561  017E                     l2850:
  5562  017E  084A               	movf	___flmul@temp,w
  5563  017F  07C0               	addwf	___flmul@grs,f
  5564  0180  084B               	movf	___flmul@temp+1,w
  5565  0181  3DC1               	addwfc	___flmul@grs+1,f
  5566  0182  3000               	movlw	0
  5567  0183  3DC2               	addwfc	___flmul@grs+2,f
  5568  0184  3DC3               	addwfc	___flmul@grs+3,f
  5569  0185                     l2852:
  5570  0185  0833               	movf	___flmul@b+1,w
  5571  0186  00BA               	movwf	??___flmul
  5572  0187  083A               	movf	??___flmul,w
  5573  0188  00A0               	movwf	__Umul8_16@multiplicand
  5574  0189  0838               	movf	___flmul@a+2,w
  5575  018A  318E  26A3  3180   	fcall	__Umul8_16
  5576  018D  0020               	movlb	0	; select bank0
  5577  018E  0821               	movf	?__Umul8_16+1,w
  5578  018F  00CB               	movwf	___flmul@temp+1
  5579  0190  0820               	movf	?__Umul8_16,w
  5580  0191  00CA               	movwf	___flmul@temp
  5581  0192  084A               	movf	___flmul@temp,w
  5582  0193  07C6               	addwf	___flmul@prod,f
  5583  0194  084B               	movf	___flmul@temp+1,w
  5584  0195  3DC7               	addwfc	___flmul@prod+1,f
  5585  0196  3000               	movlw	0
  5586  0197  3DC8               	addwfc	___flmul@prod+2,f
  5587  0198  3DC9               	addwfc	___flmul@prod+3,f
  5588  0199                     l2854:
  5589  0199  0834               	movf	___flmul@b+2,w
  5590  019A  00BA               	movwf	??___flmul
  5591  019B  083A               	movf	??___flmul,w
  5592  019C  00A0               	movwf	__Umul8_16@multiplicand
  5593  019D  0837               	movf	___flmul@a+1,w
  5594  019E  318E  26A3  3180   	fcall	__Umul8_16
  5595  01A1  0020               	movlb	0	; select bank0
  5596  01A2  0821               	movf	?__Umul8_16+1,w
  5597  01A3  00CB               	movwf	___flmul@temp+1
  5598  01A4  0820               	movf	?__Umul8_16,w
  5599  01A5  00CA               	movwf	___flmul@temp
  5600  01A6                     l2856:
  5601  01A6  084A               	movf	___flmul@temp,w
  5602  01A7  07C6               	addwf	___flmul@prod,f
  5603  01A8  084B               	movf	___flmul@temp+1,w
  5604  01A9  3DC7               	addwfc	___flmul@prod+1,f
  5605  01AA  3000               	movlw	0
  5606  01AB  3DC8               	addwfc	___flmul@prod+2,f
  5607  01AC  3DC9               	addwfc	___flmul@prod+3,f
  5608  01AD  0834               	movf	___flmul@b+2,w
  5609  01AE  00BA               	movwf	??___flmul
  5610  01AF  083A               	movf	??___flmul,w
  5611  01B0  00A0               	movwf	__Umul8_16@multiplicand
  5612  01B1  0838               	movf	___flmul@a+2,w
  5613  01B2  318E  26A3  3180   	fcall	__Umul8_16
  5614  01B5  0020               	movlb	0	; select bank0
  5615  01B6  0821               	movf	?__Umul8_16+1,w
  5616  01B7  00CB               	movwf	___flmul@temp+1
  5617  01B8  0820               	movf	?__Umul8_16,w
  5618  01B9  00CA               	movwf	___flmul@temp
  5619  01BA                     l2858:
  5620  01BA  084A               	movf	___flmul@temp,w
  5621  01BB  00BA               	movwf	??___flmul
  5622  01BC  084B               	movf	___flmul@temp+1,w
  5623  01BD  00BB               	movwf	??___flmul+1
  5624  01BE  01BC               	clrf	??___flmul+2
  5625  01BF  01BD               	clrf	??___flmul+3
  5626  01C0  3008               	movlw	8
  5627  01C1                     u2125:
  5628  01C1  35BA               	lslf	??___flmul,f
  5629  01C2  0DBB               	rlf	??___flmul+1,f
  5630  01C3  0DBC               	rlf	??___flmul+2,f
  5631  01C4  0DBD               	rlf	??___flmul+3,f
  5632  01C5                     u2120:
  5633  01C5  0B89               	decfsz	9,f
  5634  01C6  29C1               	goto	u2125
  5635  01C7  083A               	movf	??___flmul,w
  5636  01C8  07C6               	addwf	___flmul@prod,f
  5637  01C9  083B               	movf	??___flmul+1,w
  5638  01CA  3DC7               	addwfc	___flmul@prod+1,f
  5639  01CB  083C               	movf	??___flmul+2,w
  5640  01CC  3DC8               	addwfc	___flmul@prod+2,f
  5641  01CD  083D               	movf	??___flmul+3,w
  5642  01CE  3DC9               	addwfc	___flmul@prod+3,f
  5643  01CF                     l2860:
  5644  01CF  0840               	movf	___flmul@grs,w
  5645  01D0  00BA               	movwf	??___flmul
  5646  01D1  0841               	movf	___flmul@grs+1,w
  5647  01D2  00BB               	movwf	??___flmul+1
  5648  01D3  0842               	movf	___flmul@grs+2,w
  5649  01D4  00BC               	movwf	??___flmul+2
  5650  01D5  0843               	movf	___flmul@grs+3,w
  5651  01D6  00BD               	movwf	??___flmul+3
  5652  01D7  3018               	movlw	24
  5653  01D8                     u2135:
  5654  01D8  36BD               	lsrf	??___flmul+3,f
  5655  01D9  0CBC               	rrf	??___flmul+2,f
  5656  01DA  0CBB               	rrf	??___flmul+1,f
  5657  01DB  0CBA               	rrf	??___flmul,f
  5658  01DC                     u2130:
  5659  01DC  0B89               	decfsz	9,f
  5660  01DD  29D8               	goto	u2135
  5661  01DE  083A               	movf	??___flmul,w
  5662  01DF  07C6               	addwf	___flmul@prod,f
  5663  01E0  083B               	movf	??___flmul+1,w
  5664  01E1  3DC7               	addwfc	___flmul@prod+1,f
  5665  01E2  083C               	movf	??___flmul+2,w
  5666  01E3  3DC8               	addwfc	___flmul@prod+2,f
  5667  01E4  083D               	movf	??___flmul+3,w
  5668  01E5  3DC9               	addwfc	___flmul@prod+3,f
  5669  01E6                     l2862:
  5670  01E6  3008               	movlw	8
  5671  01E7                     u2145:
  5672  01E7  35C0               	lslf	___flmul@grs,f
  5673  01E8  0DC1               	rlf	___flmul@grs+1,f
  5674  01E9  0DC2               	rlf	___flmul@grs+2,f
  5675  01EA  0DC3               	rlf	___flmul@grs+3,f
  5676  01EB  0B89               	decfsz	9,f
  5677  01EC  29E7               	goto	u2145
  5678  01ED                     l2864:
  5679  01ED  0845               	movf	___flmul@bexp,w
  5680  01EE  0744               	addwf	___flmul@aexp,w
  5681  01EF  00BA               	movwf	??___flmul
  5682  01F0  01BB               	clrf	??___flmul+1
  5683  01F1  0DBB               	rlf	??___flmul+1,f
  5684  01F2  083A               	movf	??___flmul,w
  5685  01F3  3E82               	addlw	130
  5686  01F4  00CA               	movwf	___flmul@temp
  5687  01F5  30FF               	movlw	255
  5688  01F6  3D3B               	addwfc	??___flmul+1,w
  5689  01F7  00CB               	movwf	___flmul@temp+1
  5690  01F8  2A10               	goto	l2876
  5691  01F9                     l2866:
  5692  01F9  3001               	movlw	1
  5693  01FA                     u2155:
  5694  01FA  35C6               	lslf	___flmul@prod,f
  5695  01FB  0DC7               	rlf	___flmul@prod+1,f
  5696  01FC  0DC8               	rlf	___flmul@prod+2,f
  5697  01FD  0DC9               	rlf	___flmul@prod+3,f
  5698  01FE  0B89               	decfsz	9,f
  5699  01FF  29FA               	goto	u2155
  5700  0200                     l2868:
  5701  0200  1FC3               	btfss	___flmul@grs+3,7
  5702  0201  2A03               	goto	u2161
  5703  0202  2A04               	goto	u2160
  5704  0203                     u2161:
  5705  0203  2A05               	goto	l2872
  5706  0204                     u2160:
  5707  0204                     l2870:
  5708  0204  1446               	bsf	___flmul@prod,0
  5709  0205                     l2872:
  5710  0205  3001               	movlw	1
  5711  0206                     u2175:
  5712  0206  35C0               	lslf	___flmul@grs,f
  5713  0207  0DC1               	rlf	___flmul@grs+1,f
  5714  0208  0DC2               	rlf	___flmul@grs+2,f
  5715  0209  0DC3               	rlf	___flmul@grs+3,f
  5716  020A  0B89               	decfsz	9,f
  5717  020B  2A06               	goto	u2175
  5718  020C                     l2874:
  5719  020C  30FF               	movlw	255
  5720  020D  07CA               	addwf	___flmul@temp,f
  5721  020E  30FF               	movlw	255
  5722  020F  3DCB               	addwfc	___flmul@temp+1,f
  5723  0210                     l2876:
  5724  0210  1FC8               	btfss	___flmul@prod+2,7
  5725  0211  2A13               	goto	u2181
  5726  0212  2A14               	goto	u2180
  5727  0213                     u2181:
  5728  0213  29F9               	goto	l2866
  5729  0214                     u2180:
  5730  0214                     l2878:
  5731  0214  01C4               	clrf	___flmul@aexp
  5732  0215                     l2880:
  5733  0215  1FC3               	btfss	___flmul@grs+3,7
  5734  0216  2A18               	goto	u2191
  5735  0217  2A19               	goto	u2190
  5736  0218                     u2191:
  5737  0218  2A35               	goto	l2888
  5738  0219                     u2190:
  5739  0219                     l2882:
  5740  0219  30FF               	movlw	255
  5741  021A  0540               	andwf	___flmul@grs,w
  5742  021B  00BA               	movwf	??___flmul
  5743  021C  30FF               	movlw	255
  5744  021D  0541               	andwf	___flmul@grs+1,w
  5745  021E  00BB               	movwf	??___flmul+1
  5746  021F  30FF               	movlw	255
  5747  0220  0542               	andwf	___flmul@grs+2,w
  5748  0221  00BC               	movwf	??___flmul+2
  5749  0222  307F               	movlw	127
  5750  0223  0543               	andwf	___flmul@grs+3,w
  5751  0224  00BD               	movwf	??___flmul+3
  5752  0225  083D               	movf	??___flmul+3,w
  5753  0226  043C               	iorwf	??___flmul+2,w
  5754  0227  043B               	iorwf	??___flmul+1,w
  5755  0228  043A               	iorwf	??___flmul,w
  5756  0229  1903               	skipnz
  5757  022A  2A2C               	goto	u2201
  5758  022B  2A2D               	goto	u2200
  5759  022C                     u2201:
  5760  022C  2A30               	goto	l1241
  5761  022D                     u2200:
  5762  022D                     l2884:
  5763  022D  01C4               	clrf	___flmul@aexp
  5764  022E  0AC4               	incf	___flmul@aexp,f
  5765  022F  2A35               	goto	l2888
  5766  0230                     l1241:
  5767  0230  1C46               	btfss	___flmul@prod,0
  5768  0231  2A33               	goto	u2211
  5769  0232  2A34               	goto	u2210
  5770  0233                     u2211:
  5771  0233  2A35               	goto	l2888
  5772  0234                     u2210:
  5773  0234  2A2D               	goto	l2884
  5774  0235                     l2888:
  5775  0235  0844               	movf	___flmul@aexp,w
  5776  0236  1903               	btfsc	3,2
  5777  0237  2A39               	goto	u2221
  5778  0238  2A3A               	goto	u2220
  5779  0239                     u2221:
  5780  0239  2A62               	goto	l2898
  5781  023A                     u2220:
  5782  023A                     l2890:
  5783  023A  3001               	movlw	1
  5784  023B  07C6               	addwf	___flmul@prod,f
  5785  023C  3000               	movlw	0
  5786  023D  3DC7               	addwfc	___flmul@prod+1,f
  5787  023E  3000               	movlw	0
  5788  023F  3DC8               	addwfc	___flmul@prod+2,f
  5789  0240  3000               	movlw	0
  5790  0241  3DC9               	addwfc	___flmul@prod+3,f
  5791  0242                     l2892:
  5792  0242  1C49               	btfss	___flmul@prod+3,0
  5793  0243  2A45               	goto	u2231
  5794  0244  2A46               	goto	u2230
  5795  0245                     u2231:
  5796  0245  2A62               	goto	l2898
  5797  0246                     u2230:
  5798  0246                     l2894:
  5799  0246  0846               	movf	___flmul@prod,w
  5800  0247  00BA               	movwf	??___flmul
  5801  0248  0847               	movf	___flmul@prod+1,w
  5802  0249  00BB               	movwf	??___flmul+1
  5803  024A  0848               	movf	___flmul@prod+2,w
  5804  024B  00BC               	movwf	??___flmul+2
  5805  024C  0849               	movf	___flmul@prod+3,w
  5806  024D  00BD               	movwf	??___flmul+3
  5807  024E  3001               	movlw	1
  5808  024F  00BE               	movwf	??___flmul+4
  5809  0250                     u2245:
  5810  0250  37BD               	asrf	??___flmul+3,f
  5811  0251  0CBC               	rrf	??___flmul+2,f
  5812  0252  0CBB               	rrf	??___flmul+1,f
  5813  0253  0CBA               	rrf	??___flmul,f
  5814  0254                     u2240:
  5815  0254  0BBE               	decfsz	??___flmul+4,f
  5816  0255  2A50               	goto	u2245
  5817  0256  083D               	movf	??___flmul+3,w
  5818  0257  00C9               	movwf	___flmul@prod+3
  5819  0258  083C               	movf	??___flmul+2,w
  5820  0259  00C8               	movwf	___flmul@prod+2
  5821  025A  083B               	movf	??___flmul+1,w
  5822  025B  00C7               	movwf	___flmul@prod+1
  5823  025C  083A               	movf	??___flmul,w
  5824  025D  00C6               	movwf	___flmul@prod
  5825  025E                     l2896:
  5826  025E  3001               	movlw	1
  5827  025F  07CA               	addwf	___flmul@temp,f
  5828  0260  3000               	movlw	0
  5829  0261  3DCB               	addwfc	___flmul@temp+1,f
  5830  0262                     l2898:
  5831  0262  084B               	movf	___flmul@temp+1,w
  5832  0263  3A80               	xorlw	128
  5833  0264  00BA               	movwf	??___flmul
  5834  0265  3080               	movlw	128
  5835  0266  023A               	subwf	??___flmul,w
  5836  0267  1D03               	skipz
  5837  0268  2A6B               	goto	u2255
  5838  0269  30FF               	movlw	255
  5839  026A  024A               	subwf	___flmul@temp,w
  5840  026B                     u2255:
  5841  026B  1C03               	skipc
  5842  026C  2A6E               	goto	u2251
  5843  026D  2A6F               	goto	u2250
  5844  026E                     u2251:
  5845  026E  2A79               	goto	l2902
  5846  026F                     u2250:
  5847  026F                     l2900:
  5848  026F  307F               	movlw	127
  5849  0270  0020               	movlb	0	; select bank0
  5850  0271  00C9               	movwf	___flmul@prod+3
  5851  0272  3080               	movlw	128
  5852  0273  00C8               	movwf	___flmul@prod+2
  5853  0274  3000               	movlw	0
  5854  0275  00C7               	movwf	___flmul@prod+1
  5855  0276  3000               	movlw	0
  5856  0277  00C6               	movwf	___flmul@prod
  5857  0278  2AA8               	goto	l1247
  5858  0279                     l2902:
  5859  0279  0020               	movlb	0	; select bank0
  5860  027A  084B               	movf	___flmul@temp+1,w
  5861  027B  3A80               	xorlw	128
  5862  027C  00BA               	movwf	??___flmul
  5863  027D  3080               	movlw	128
  5864  027E  023A               	subwf	??___flmul,w
  5865  027F  1D03               	skipz
  5866  0280  2A83               	goto	u2265
  5867  0281  3001               	movlw	1
  5868  0282  024A               	subwf	___flmul@temp,w
  5869  0283                     u2265:
  5870  0283  1803               	skipnc
  5871  0284  2A86               	goto	u2261
  5872  0285  2A87               	goto	u2260
  5873  0286                     u2261:
  5874  0286  2A92               	goto	l2908
  5875  0287                     u2260:
  5876  0287                     l2904:
  5877  0287  3000               	movlw	0
  5878  0288  0020               	movlb	0	; select bank0
  5879  0289  00C9               	movwf	___flmul@prod+3
  5880  028A  3000               	movlw	0
  5881  028B  00C8               	movwf	___flmul@prod+2
  5882  028C  3000               	movlw	0
  5883  028D  00C7               	movwf	___flmul@prod+1
  5884  028E  3000               	movlw	0
  5885  028F  00C6               	movwf	___flmul@prod
  5886  0290                     l2906:
  5887  0290  01BF               	clrf	___flmul@sign
  5888  0291  2AA8               	goto	l1247
  5889  0292                     l2908:
  5890  0292  0020               	movlb	0	; select bank0
  5891  0293  084A               	movf	___flmul@temp,w
  5892  0294  00BA               	movwf	??___flmul
  5893  0295  083A               	movf	??___flmul,w
  5894  0296  00C5               	movwf	___flmul@bexp
  5895  0297  30FF               	movlw	255
  5896  0298  05C6               	andwf	___flmul@prod,f
  5897  0299  30FF               	movlw	255
  5898  029A  05C7               	andwf	___flmul@prod+1,f
  5899  029B  307F               	movlw	127
  5900  029C  05C8               	andwf	___flmul@prod+2,f
  5901  029D  3000               	movlw	0
  5902  029E  05C9               	andwf	___flmul@prod+3,f
  5903  029F                     l2910:
  5904  029F  1C45               	btfss	___flmul@bexp,0
  5905  02A0  2AA2               	goto	u2271
  5906  02A1  2AA3               	goto	u2270
  5907  02A2                     u2271:
  5908  02A2  2AA4               	goto	l2914
  5909  02A3                     u2270:
  5910  02A3                     l2912:
  5911  02A3  17C8               	bsf	___flmul@prod+2,7
  5912  02A4                     l2914:
  5913  02A4  3645               	lsrf	___flmul@bexp,w
  5914  02A5  00BA               	movwf	??___flmul
  5915  02A6  083A               	movf	??___flmul,w
  5916  02A7  00C9               	movwf	___flmul@prod+3
  5917  02A8                     l1247:
  5918  02A8  083F               	movf	___flmul@sign,w
  5919  02A9  00BA               	movwf	??___flmul
  5920  02AA  083A               	movf	??___flmul,w
  5921  02AB  04C9               	iorwf	___flmul@prod+3,f
  5922  02AC                     l2916:
  5923  02AC  0849               	movf	___flmul@prod+3,w
  5924  02AD  00B5               	movwf	?___flmul+3
  5925  02AE  0848               	movf	___flmul@prod+2,w
  5926  02AF  00B4               	movwf	?___flmul+2
  5927  02B0  0847               	movf	___flmul@prod+1,w
  5928  02B1  00B3               	movwf	?___flmul+1
  5929  02B2  0846               	movf	___flmul@prod,w
  5930  02B3  00B2               	movwf	?___flmul
  5931  02B4                     l1235:
  5932  02B4  0008               	return
  5933  02B5                     __end_of___flmul:
  5934                           
  5935                           	psect	text12
  5936  0EA3                     __ptext12:	
  5937 ;; *************** function __Umul8_16 *****************
  5938 ;; Defined at:
  5939 ;;		line 4 in file "C:\Program Files\Microchip\xc8\v2.30\pic\sources\c99\common\Umul8_16.c"
  5940 ;; Parameters:    Size  Location     Type
  5941 ;;  multiplier      1    wreg     unsigned char 
  5942 ;;  multiplicand    1    0[BANK0 ] unsigned char 
  5943 ;; Auto vars:     Size  Location     Type
  5944 ;;  multiplier      1    8[BANK0 ] unsigned char 
  5945 ;;  word_mpld       2    6[BANK0 ] unsigned int 
  5946 ;;  product         2    4[BANK0 ] unsigned int 
  5947 ;; Return value:  Size  Location     Type
  5948 ;;                  2    0[BANK0 ] unsigned int 
  5949 ;; Registers used:
  5950 ;;		wreg, status,2, status,0
  5951 ;; Tracked objects:
  5952 ;;		On entry : 0/0
  5953 ;;		On exit  : 0/0
  5954 ;;		Unchanged: 0/0
  5955 ;; Data sizes:     COMMON   BANK0   BANK1   BANK2   BANK3   BANK4
  5956 ;;      Params:         0       2       0       0       0       0
  5957 ;;      Locals:         0       5       0       0       0       0
  5958 ;;      Temps:          0       2       0       0       0       0
  5959 ;;      Totals:         0       9       0       0       0       0
  5960 ;;Total ram usage:        9 bytes
  5961 ;; Hardware stack levels used:    1
  5962 ;; Hardware stack levels required when called:    4
  5963 ;; This function calls:
  5964 ;;		Nothing
  5965 ;; This function is called by:
  5966 ;;		___flmul
  5967 ;; This function uses a non-reentrant model
  5968 ;;
  5969                           
  5970                           
  5971                           ;psect for function __Umul8_16
  5972  0EA3                     __Umul8_16:
  5973                           
  5974                           ;incstack = 0
  5975                           ; Regs used in __Umul8_16: [wreg+status,2+status,0]
  5976                           ;__Umul8_16@multiplier stored from wreg
  5977  0EA3  0020               	movlb	0	; select bank0
  5978  0EA4  00A8               	movwf	__Umul8_16@multiplier
  5979  0EA5                     l2324:
  5980  0EA5  01A4               	clrf	__Umul8_16@product
  5981  0EA6  01A5               	clrf	__Umul8_16@product+1
  5982  0EA7                     l2326:
  5983  0EA7  0820               	movf	__Umul8_16@multiplicand,w
  5984  0EA8  00A2               	movwf	??__Umul8_16
  5985  0EA9  01A3               	clrf	??__Umul8_16+1
  5986  0EAA  0822               	movf	??__Umul8_16,w
  5987  0EAB  00A6               	movwf	__Umul8_16@word_mpld
  5988  0EAC  0823               	movf	??__Umul8_16+1,w
  5989  0EAD  00A7               	movwf	__Umul8_16@word_mpld+1
  5990  0EAE                     l2328:
  5991  0EAE  1C28               	btfss	__Umul8_16@multiplier,0
  5992  0EAF  2EB1               	goto	u1401
  5993  0EB0  2EB2               	goto	u1400
  5994  0EB1                     u1401:
  5995  0EB1  2EB6               	goto	l1254
  5996  0EB2                     u1400:
  5997  0EB2                     l2330:
  5998  0EB2  0826               	movf	__Umul8_16@word_mpld,w
  5999  0EB3  07A4               	addwf	__Umul8_16@product,f
  6000  0EB4  0827               	movf	__Umul8_16@word_mpld+1,w
  6001  0EB5  3DA5               	addwfc	__Umul8_16@product+1,f
  6002  0EB6                     l1254:
  6003  0EB6  3001               	movlw	1
  6004  0EB7                     u1415:
  6005  0EB7  35A6               	lslf	__Umul8_16@word_mpld,f
  6006  0EB8  0DA7               	rlf	__Umul8_16@word_mpld+1,f
  6007  0EB9  0B89               	decfsz	9,f
  6008  0EBA  2EB7               	goto	u1415
  6009  0EBB  1003               	clrc
  6010  0EBC  0CA8               	rrf	__Umul8_16@multiplier,f
  6011  0EBD                     l2332:
  6012  0EBD  0828               	movf	__Umul8_16@multiplier,w
  6013  0EBE  1D03               	btfss	3,2
  6014  0EBF  2EC1               	goto	u1421
  6015  0EC0  2EC2               	goto	u1420
  6016  0EC1                     u1421:
  6017  0EC1  2EAE               	goto	l2328
  6018  0EC2                     u1420:
  6019  0EC2                     l2334:
  6020  0EC2  0825               	movf	__Umul8_16@product+1,w
  6021  0EC3  00A1               	movwf	?__Umul8_16+1
  6022  0EC4  0824               	movf	__Umul8_16@product,w
  6023  0EC5  00A0               	movwf	?__Umul8_16
  6024  0EC6                     l1256:
  6025  0EC6  0008               	return
  6026  0EC7                     __end_of__Umul8_16:
  6027                           
  6028                           	psect	text13
  6029  02B5                     __ptext13:	
  6030 ;; *************** function ___fldiv *****************
  6031 ;; Defined at:
  6032 ;;		line 8 in file "C:\Program Files\Microchip\xc8\v2.30\pic\sources\c99\common\sprcdiv.c"
  6033 ;; Parameters:    Size  Location     Type
  6034 ;;  a               4   44[BANK0 ] unsigned int 
  6035 ;;  b               4   48[BANK0 ] unsigned int 
  6036 ;; Auto vars:     Size  Location     Type
  6037 ;;  grs             4   64[BANK0 ] unsigned long 
  6038 ;;  rem             4   57[BANK0 ] unsigned long 
  6039 ;;  new_exp         2   62[BANK0 ] int 
  6040 ;;  aexp            1   69[BANK0 ] unsigned char 
  6041 ;;  bexp            1   68[BANK0 ] unsigned char 
  6042 ;;  sign            1   61[BANK0 ] unsigned char 
  6043 ;; Return value:  Size  Location     Type
  6044 ;;                  4   44[BANK0 ] unsigned char 
  6045 ;; Registers used:
  6046 ;;		wreg, status,2, status,0
  6047 ;; Tracked objects:
  6048 ;;		On entry : 0/0
  6049 ;;		On exit  : 0/0
  6050 ;;		Unchanged: 0/0
  6051 ;; Data sizes:     COMMON   BANK0   BANK1   BANK2   BANK3   BANK4
  6052 ;;      Params:         0       8       0       0       0       0
  6053 ;;      Locals:         0      13       0       0       0       0
  6054 ;;      Temps:          0       5       0       0       0       0
  6055 ;;      Totals:         0      26       0       0       0       0
  6056 ;;Total ram usage:       26 bytes
  6057 ;; Hardware stack levels used:    1
  6058 ;; Hardware stack levels required when called:    4
  6059 ;; This function calls:
  6060 ;;		Nothing
  6061 ;; This function is called by:
  6062 ;;		_comunicacao
  6063 ;; This function uses a non-reentrant model
  6064 ;;
  6065                           
  6066                           
  6067                           ;psect for function ___fldiv
  6068  02B5                     ___fldiv:
  6069  02B5                     l2640:	
  6070                           ;incstack = 0
  6071                           ; Regs used in ___fldiv: [wreg+status,2+status,0]
  6072                           
  6073  02B5  0020               	movlb	0	; select bank0
  6074  02B6  0853               	movf	___fldiv@b+3,w
  6075  02B7  3980               	andlw	128
  6076  02B8  00D4               	movwf	??___fldiv
  6077  02B9  0854               	movf	??___fldiv,w
  6078  02BA  00DD               	movwf	___fldiv@sign
  6079  02BB                     l2642:
  6080  02BB  3553               	lslf	___fldiv@b+3,w
  6081  02BC  00D4               	movwf	??___fldiv
  6082  02BD  0854               	movf	??___fldiv,w
  6083  02BE  00E4               	movwf	___fldiv@bexp
  6084  02BF                     l2644:
  6085  02BF  1FD2               	btfss	___fldiv@b+2,7
  6086  02C0  2AC2               	goto	u1731
  6087  02C1  2AC3               	goto	u1730
  6088  02C2                     u1731:
  6089  02C2  2AC4               	goto	l2648
  6090  02C3                     u1730:
  6091  02C3                     l2646:
  6092  02C3  1464               	bsf	___fldiv@bexp,0
  6093  02C4                     l2648:
  6094  02C4  0864               	movf	___fldiv@bexp,w
  6095  02C5  1903               	btfsc	3,2
  6096  02C6  2AC8               	goto	u1741
  6097  02C7  2AC9               	goto	u1740
  6098  02C8                     u1741:
  6099  02C8  2AD9               	goto	l2658
  6100  02C9                     u1740:
  6101  02C9                     l2650:
  6102  02C9  0A64               	incf	___fldiv@bexp,w
  6103  02CA  1D03               	btfss	3,2
  6104  02CB  2ACD               	goto	u1751
  6105  02CC  2ACE               	goto	u1750
  6106  02CD                     u1751:
  6107  02CD  2AD6               	goto	l2654
  6108  02CE                     u1750:
  6109  02CE                     l2652:
  6110  02CE  3000               	movlw	0
  6111  02CF  00D3               	movwf	___fldiv@b+3
  6112  02D0  3000               	movlw	0
  6113  02D1  00D2               	movwf	___fldiv@b+2
  6114  02D2  3000               	movlw	0
  6115  02D3  00D1               	movwf	___fldiv@b+1
  6116  02D4  3000               	movlw	0
  6117  02D5  00D0               	movwf	___fldiv@b
  6118  02D6                     l2654:
  6119  02D6  17D2               	bsf	___fldiv@b+2,7
  6120  02D7                     l2656:
  6121  02D7  01D3               	clrf	___fldiv@b+3
  6122  02D8  2AE1               	goto	l2660
  6123  02D9                     l2658:
  6124  02D9  3000               	movlw	0
  6125  02DA  00D3               	movwf	___fldiv@b+3
  6126  02DB  3000               	movlw	0
  6127  02DC  00D2               	movwf	___fldiv@b+2
  6128  02DD  3000               	movlw	0
  6129  02DE  00D1               	movwf	___fldiv@b+1
  6130  02DF  3000               	movlw	0
  6131  02E0  00D0               	movwf	___fldiv@b
  6132  02E1                     l2660:
  6133  02E1  084F               	movf	___fldiv@a+3,w
  6134  02E2  3980               	andlw	128
  6135  02E3  00D4               	movwf	??___fldiv
  6136  02E4  0854               	movf	??___fldiv,w
  6137  02E5  06DD               	xorwf	___fldiv@sign,f
  6138  02E6                     l2662:
  6139  02E6  354F               	lslf	___fldiv@a+3,w
  6140  02E7  00D4               	movwf	??___fldiv
  6141  02E8  0854               	movf	??___fldiv,w
  6142  02E9  00E5               	movwf	___fldiv@aexp
  6143  02EA                     l2664:
  6144  02EA  1FCE               	btfss	___fldiv@a+2,7
  6145  02EB  2AED               	goto	u1761
  6146  02EC  2AEE               	goto	u1760
  6147  02ED                     u1761:
  6148  02ED  2AEF               	goto	l2668
  6149  02EE                     u1760:
  6150  02EE                     l2666:
  6151  02EE  1465               	bsf	___fldiv@aexp,0
  6152  02EF                     l2668:
  6153  02EF  0865               	movf	___fldiv@aexp,w
  6154  02F0  1903               	btfsc	3,2
  6155  02F1  2AF3               	goto	u1771
  6156  02F2  2AF4               	goto	u1770
  6157  02F3                     u1771:
  6158  02F3  2B04               	goto	l2678
  6159  02F4                     u1770:
  6160  02F4                     l2670:
  6161  02F4  0A65               	incf	___fldiv@aexp,w
  6162  02F5  1D03               	btfss	3,2
  6163  02F6  2AF8               	goto	u1781
  6164  02F7  2AF9               	goto	u1780
  6165  02F8                     u1781:
  6166  02F8  2B01               	goto	l2674
  6167  02F9                     u1780:
  6168  02F9                     l2672:
  6169  02F9  3000               	movlw	0
  6170  02FA  00CF               	movwf	___fldiv@a+3
  6171  02FB  3000               	movlw	0
  6172  02FC  00CE               	movwf	___fldiv@a+2
  6173  02FD  3000               	movlw	0
  6174  02FE  00CD               	movwf	___fldiv@a+1
  6175  02FF  3000               	movlw	0
  6176  0300  00CC               	movwf	___fldiv@a
  6177  0301                     l2674:
  6178  0301  17CE               	bsf	___fldiv@a+2,7
  6179  0302                     l2676:
  6180  0302  01CF               	clrf	___fldiv@a+3
  6181  0303  2B0C               	goto	l1195
  6182  0304                     l2678:
  6183  0304  3000               	movlw	0
  6184  0305  00CF               	movwf	___fldiv@a+3
  6185  0306  3000               	movlw	0
  6186  0307  00CE               	movwf	___fldiv@a+2
  6187  0308  3000               	movlw	0
  6188  0309  00CD               	movwf	___fldiv@a+1
  6189  030A  3000               	movlw	0
  6190  030B  00CC               	movwf	___fldiv@a
  6191  030C                     l1195:
  6192  030C  084F               	movf	___fldiv@a+3,w
  6193  030D  044E               	iorwf	___fldiv@a+2,w
  6194  030E  044D               	iorwf	___fldiv@a+1,w
  6195  030F  044C               	iorwf	___fldiv@a,w
  6196  0310  1D03               	skipz
  6197  0311  2B13               	goto	u1791
  6198  0312  2B14               	goto	u1790
  6199  0313                     u1791:
  6200  0313  2B2D               	goto	l2688
  6201  0314                     u1790:
  6202  0314                     l2680:
  6203  0314  3000               	movlw	0
  6204  0315  00D3               	movwf	___fldiv@b+3
  6205  0316  3000               	movlw	0
  6206  0317  00D2               	movwf	___fldiv@b+2
  6207  0318  3000               	movlw	0
  6208  0319  00D1               	movwf	___fldiv@b+1
  6209  031A  3000               	movlw	0
  6210  031B  00D0               	movwf	___fldiv@b
  6211  031C  3080               	movlw	128
  6212  031D  04D2               	iorwf	___fldiv@b+2,f
  6213  031E  307F               	movlw	127
  6214  031F  04D3               	iorwf	___fldiv@b+3,f
  6215  0320                     l2682:
  6216  0320  085D               	movf	___fldiv@sign,w
  6217  0321  00D4               	movwf	??___fldiv
  6218  0322  0854               	movf	??___fldiv,w
  6219  0323  04D3               	iorwf	___fldiv@b+3,f
  6220  0324                     l2684:
  6221  0324  0853               	movf	___fldiv@b+3,w
  6222  0325  00CF               	movwf	?___fldiv+3
  6223  0326  0852               	movf	___fldiv@b+2,w
  6224  0327  00CE               	movwf	?___fldiv+2
  6225  0328  0851               	movf	___fldiv@b+1,w
  6226  0329  00CD               	movwf	?___fldiv+1
  6227  032A  0850               	movf	___fldiv@b,w
  6228  032B  00CC               	movwf	?___fldiv
  6229  032C  2C68               	goto	l1197
  6230  032D                     l2688:
  6231  032D  0864               	movf	___fldiv@bexp,w
  6232  032E  1D03               	btfss	3,2
  6233  032F  2B31               	goto	u1801
  6234  0330  2B32               	goto	u1800
  6235  0331                     u1801:
  6236  0331  2B3B               	goto	l2694
  6237  0332                     u1800:
  6238  0332                     l2690:
  6239  0332  3000               	movlw	0
  6240  0333  00CF               	movwf	?___fldiv+3
  6241  0334  3000               	movlw	0
  6242  0335  00CE               	movwf	?___fldiv+2
  6243  0336  3000               	movlw	0
  6244  0337  00CD               	movwf	?___fldiv+1
  6245  0338  3000               	movlw	0
  6246  0339  00CC               	movwf	?___fldiv
  6247  033A  2C68               	goto	l1197
  6248  033B                     l2694:
  6249  033B  0864               	movf	___fldiv@bexp,w
  6250  033C  00D4               	movwf	??___fldiv
  6251  033D  01D5               	clrf	??___fldiv+1
  6252  033E  0855               	movf	??___fldiv+1,w
  6253  033F  00D7               	movwf	??___fldiv+3
  6254  0340  0865               	movf	___fldiv@aexp,w
  6255  0341  0254               	subwf	??___fldiv,w
  6256  0342  00D6               	movwf	??___fldiv+2
  6257  0343  1C03               	skipc
  6258  0344  03D7               	decf	??___fldiv+3,f
  6259  0345  0856               	movf	??___fldiv+2,w
  6260  0346  3E7F               	addlw	127
  6261  0347  00DE               	movwf	___fldiv@new_exp
  6262  0348  3000               	movlw	0
  6263  0349  3D57               	addwfc	??___fldiv+3,w
  6264  034A  00DF               	movwf	___fldiv@new_exp+1
  6265  034B                     l2696:
  6266  034B  0853               	movf	___fldiv@b+3,w
  6267  034C  00DC               	movwf	___fldiv@rem+3
  6268  034D  0852               	movf	___fldiv@b+2,w
  6269  034E  00DB               	movwf	___fldiv@rem+2
  6270  034F  0851               	movf	___fldiv@b+1,w
  6271  0350  00DA               	movwf	___fldiv@rem+1
  6272  0351  0850               	movf	___fldiv@b,w
  6273  0352  00D9               	movwf	___fldiv@rem
  6274  0353                     l2698:
  6275  0353  3000               	movlw	0
  6276  0354  00D3               	movwf	___fldiv@b+3
  6277  0355  3000               	movlw	0
  6278  0356  00D2               	movwf	___fldiv@b+2
  6279  0357  3000               	movlw	0
  6280  0358  00D1               	movwf	___fldiv@b+1
  6281  0359  3000               	movlw	0
  6282  035A  00D0               	movwf	___fldiv@b
  6283  035B                     l2700:
  6284  035B  3000               	movlw	0
  6285  035C  00E3               	movwf	___fldiv@grs+3
  6286  035D  3000               	movlw	0
  6287  035E  00E2               	movwf	___fldiv@grs+2
  6288  035F  3000               	movlw	0
  6289  0360  00E1               	movwf	___fldiv@grs+1
  6290  0361  3000               	movlw	0
  6291  0362  00E0               	movwf	___fldiv@grs
  6292  0363                     l2702:
  6293  0363  01E5               	clrf	___fldiv@aexp
  6294  0364  2BA3               	goto	l2722
  6295  0365                     l2704:
  6296  0365  0865               	movf	___fldiv@aexp,w
  6297  0366  1903               	btfsc	3,2
  6298  0367  2B69               	goto	u1811
  6299  0368  2B6A               	goto	u1810
  6300  0369                     u1811:
  6301  0369  2B84               	goto	l2714
  6302  036A                     u1810:
  6303  036A                     l2706:
  6304  036A  3001               	movlw	1
  6305  036B                     u1825:
  6306  036B  35D9               	lslf	___fldiv@rem,f
  6307  036C  0DDA               	rlf	___fldiv@rem+1,f
  6308  036D  0DDB               	rlf	___fldiv@rem+2,f
  6309  036E  0DDC               	rlf	___fldiv@rem+3,f
  6310  036F  0B89               	decfsz	9,f
  6311  0370  2B6B               	goto	u1825
  6312  0371  3001               	movlw	1
  6313  0372                     u1835:
  6314  0372  35D0               	lslf	___fldiv@b,f
  6315  0373  0DD1               	rlf	___fldiv@b+1,f
  6316  0374  0DD2               	rlf	___fldiv@b+2,f
  6317  0375  0DD3               	rlf	___fldiv@b+3,f
  6318  0376  0B89               	decfsz	9,f
  6319  0377  2B72               	goto	u1835
  6320  0378                     l2708:
  6321  0378  1FE3               	btfss	___fldiv@grs+3,7
  6322  0379  2B7B               	goto	u1841
  6323  037A  2B7C               	goto	u1840
  6324  037B                     u1841:
  6325  037B  2B7D               	goto	l2712
  6326  037C                     u1840:
  6327  037C                     l2710:
  6328  037C  1450               	bsf	___fldiv@b,0
  6329  037D                     l2712:
  6330  037D  3001               	movlw	1
  6331  037E                     u1855:
  6332  037E  35E0               	lslf	___fldiv@grs,f
  6333  037F  0DE1               	rlf	___fldiv@grs+1,f
  6334  0380  0DE2               	rlf	___fldiv@grs+2,f
  6335  0381  0DE3               	rlf	___fldiv@grs+3,f
  6336  0382  0B89               	decfsz	9,f
  6337  0383  2B7E               	goto	u1855
  6338  0384                     l2714:
  6339  0384  084F               	movf	___fldiv@a+3,w
  6340  0385  025C               	subwf	___fldiv@rem+3,w
  6341  0386  1D03               	skipz
  6342  0387  2B92               	goto	u1865
  6343  0388  084E               	movf	___fldiv@a+2,w
  6344  0389  025B               	subwf	___fldiv@rem+2,w
  6345  038A  1D03               	skipz
  6346  038B  2B92               	goto	u1865
  6347  038C  084D               	movf	___fldiv@a+1,w
  6348  038D  025A               	subwf	___fldiv@rem+1,w
  6349  038E  1D03               	skipz
  6350  038F  2B92               	goto	u1865
  6351  0390  084C               	movf	___fldiv@a,w
  6352  0391  0259               	subwf	___fldiv@rem,w
  6353  0392                     u1865:
  6354  0392  1C03               	skipc
  6355  0393  2B95               	goto	u1861
  6356  0394  2B96               	goto	u1860
  6357  0395                     u1861:
  6358  0395  2B9F               	goto	l2720
  6359  0396                     u1860:
  6360  0396                     l2716:
  6361  0396  1763               	bsf	___fldiv@grs+3,6
  6362  0397                     l2718:
  6363  0397  084C               	movf	___fldiv@a,w
  6364  0398  02D9               	subwf	___fldiv@rem,f
  6365  0399  084D               	movf	___fldiv@a+1,w
  6366  039A  3BDA               	subwfb	___fldiv@rem+1,f
  6367  039B  084E               	movf	___fldiv@a+2,w
  6368  039C  3BDB               	subwfb	___fldiv@rem+2,f
  6369  039D  084F               	movf	___fldiv@a+3,w
  6370  039E  3BDC               	subwfb	___fldiv@rem+3,f
  6371  039F                     l2720:
  6372  039F  3001               	movlw	1
  6373  03A0  00D4               	movwf	??___fldiv
  6374  03A1  0854               	movf	??___fldiv,w
  6375  03A2  07E5               	addwf	___fldiv@aexp,f
  6376  03A3                     l2722:
  6377  03A3  301A               	movlw	26
  6378  03A4  0265               	subwf	___fldiv@aexp,w
  6379  03A5  1C03               	skipc
  6380  03A6  2BA8               	goto	u1871
  6381  03A7  2BA9               	goto	u1870
  6382  03A8                     u1871:
  6383  03A8  2B65               	goto	l2704
  6384  03A9                     u1870:
  6385  03A9                     l2724:
  6386  03A9  085C               	movf	___fldiv@rem+3,w
  6387  03AA  045B               	iorwf	___fldiv@rem+2,w
  6388  03AB  045A               	iorwf	___fldiv@rem+1,w
  6389  03AC  0459               	iorwf	___fldiv@rem,w
  6390  03AD  1903               	skipnz
  6391  03AE  2BB0               	goto	u1881
  6392  03AF  2BB1               	goto	u1880
  6393  03B0                     u1881:
  6394  03B0  2BCA               	goto	l2738
  6395  03B1                     u1880:
  6396  03B1                     l2726:
  6397  03B1  1460               	bsf	___fldiv@grs,0
  6398  03B2  2BCA               	goto	l2738
  6399  03B3                     l2728:
  6400  03B3  3001               	movlw	1
  6401  03B4                     u1895:
  6402  03B4  35D0               	lslf	___fldiv@b,f
  6403  03B5  0DD1               	rlf	___fldiv@b+1,f
  6404  03B6  0DD2               	rlf	___fldiv@b+2,f
  6405  03B7  0DD3               	rlf	___fldiv@b+3,f
  6406  03B8  0B89               	decfsz	9,f
  6407  03B9  2BB4               	goto	u1895
  6408  03BA                     l2730:
  6409  03BA  1FE3               	btfss	___fldiv@grs+3,7
  6410  03BB  2BBD               	goto	u1901
  6411  03BC  2BBE               	goto	u1900
  6412  03BD                     u1901:
  6413  03BD  2BBF               	goto	l2734
  6414  03BE                     u1900:
  6415  03BE                     l2732:
  6416  03BE  1450               	bsf	___fldiv@b,0
  6417  03BF                     l2734:
  6418  03BF  3001               	movlw	1
  6419  03C0                     u1915:
  6420  03C0  35E0               	lslf	___fldiv@grs,f
  6421  03C1  0DE1               	rlf	___fldiv@grs+1,f
  6422  03C2  0DE2               	rlf	___fldiv@grs+2,f
  6423  03C3  0DE3               	rlf	___fldiv@grs+3,f
  6424  03C4  0B89               	decfsz	9,f
  6425  03C5  2BC0               	goto	u1915
  6426  03C6                     l2736:
  6427  03C6  30FF               	movlw	255
  6428  03C7  07DE               	addwf	___fldiv@new_exp,f
  6429  03C8  30FF               	movlw	255
  6430  03C9  3DDF               	addwfc	___fldiv@new_exp+1,f
  6431  03CA                     l2738:
  6432  03CA  1FD2               	btfss	___fldiv@b+2,7
  6433  03CB  2BCD               	goto	u1921
  6434  03CC  2BCE               	goto	u1920
  6435  03CD                     u1921:
  6436  03CD  2BB3               	goto	l2728
  6437  03CE                     u1920:
  6438  03CE                     l2740:
  6439  03CE  01E5               	clrf	___fldiv@aexp
  6440  03CF                     l2742:
  6441  03CF  1FE3               	btfss	___fldiv@grs+3,7
  6442  03D0  2BD2               	goto	u1931
  6443  03D1  2BD3               	goto	u1930
  6444  03D2                     u1931:
  6445  03D2  2BEF               	goto	l2750
  6446  03D3                     u1930:
  6447  03D3                     l2744:
  6448  03D3  30FF               	movlw	255
  6449  03D4  0560               	andwf	___fldiv@grs,w
  6450  03D5  00D4               	movwf	??___fldiv
  6451  03D6  30FF               	movlw	255
  6452  03D7  0561               	andwf	___fldiv@grs+1,w
  6453  03D8  00D5               	movwf	??___fldiv+1
  6454  03D9  30FF               	movlw	255
  6455  03DA  0562               	andwf	___fldiv@grs+2,w
  6456  03DB  00D6               	movwf	??___fldiv+2
  6457  03DC  307F               	movlw	127
  6458  03DD  0563               	andwf	___fldiv@grs+3,w
  6459  03DE  00D7               	movwf	??___fldiv+3
  6460  03DF  0857               	movf	??___fldiv+3,w
  6461  03E0  0456               	iorwf	??___fldiv+2,w
  6462  03E1  0455               	iorwf	??___fldiv+1,w
  6463  03E2  0454               	iorwf	??___fldiv,w
  6464  03E3  1903               	skipnz
  6465  03E4  2BE6               	goto	u1941
  6466  03E5  2BE7               	goto	u1940
  6467  03E6                     u1941:
  6468  03E6  2BEA               	goto	l1211
  6469  03E7                     u1940:
  6470  03E7                     l2746:
  6471  03E7  01E5               	clrf	___fldiv@aexp
  6472  03E8  0AE5               	incf	___fldiv@aexp,f
  6473  03E9  2BEF               	goto	l2750
  6474  03EA                     l1211:
  6475  03EA  1C50               	btfss	___fldiv@b,0
  6476  03EB  2BED               	goto	u1951
  6477  03EC  2BEE               	goto	u1950
  6478  03ED                     u1951:
  6479  03ED  2BEF               	goto	l2750
  6480  03EE                     u1950:
  6481  03EE  2BE7               	goto	l2746
  6482  03EF                     l2750:
  6483  03EF  0865               	movf	___fldiv@aexp,w
  6484  03F0  1903               	btfsc	3,2
  6485  03F1  2BF3               	goto	u1961
  6486  03F2  2BF4               	goto	u1960
  6487  03F3                     u1961:
  6488  03F3  2C1C               	goto	l2760
  6489  03F4                     u1960:
  6490  03F4                     l2752:
  6491  03F4  3001               	movlw	1
  6492  03F5  07D0               	addwf	___fldiv@b,f
  6493  03F6  3000               	movlw	0
  6494  03F7  3DD1               	addwfc	___fldiv@b+1,f
  6495  03F8  3000               	movlw	0
  6496  03F9  3DD2               	addwfc	___fldiv@b+2,f
  6497  03FA  3000               	movlw	0
  6498  03FB  3DD3               	addwfc	___fldiv@b+3,f
  6499  03FC                     l2754:
  6500  03FC  1C53               	btfss	___fldiv@b+3,0
  6501  03FD  2BFF               	goto	u1971
  6502  03FE  2C00               	goto	u1970
  6503  03FF                     u1971:
  6504  03FF  2C1C               	goto	l2760
  6505  0400                     u1970:
  6506  0400                     l2756:
  6507  0400  0850               	movf	___fldiv@b,w
  6508  0401  00D4               	movwf	??___fldiv
  6509  0402  0851               	movf	___fldiv@b+1,w
  6510  0403  00D5               	movwf	??___fldiv+1
  6511  0404  0852               	movf	___fldiv@b+2,w
  6512  0405  00D6               	movwf	??___fldiv+2
  6513  0406  0853               	movf	___fldiv@b+3,w
  6514  0407  00D7               	movwf	??___fldiv+3
  6515  0408  3001               	movlw	1
  6516  0409  00D8               	movwf	??___fldiv+4
  6517  040A                     u1985:
  6518  040A  37D7               	asrf	??___fldiv+3,f
  6519  040B  0CD6               	rrf	??___fldiv+2,f
  6520  040C  0CD5               	rrf	??___fldiv+1,f
  6521  040D  0CD4               	rrf	??___fldiv,f
  6522  040E                     u1980:
  6523  040E  0BD8               	decfsz	??___fldiv+4,f
  6524  040F  2C0A               	goto	u1985
  6525  0410  0857               	movf	??___fldiv+3,w
  6526  0411  00D3               	movwf	___fldiv@b+3
  6527  0412  0856               	movf	??___fldiv+2,w
  6528  0413  00D2               	movwf	___fldiv@b+2
  6529  0414  0855               	movf	??___fldiv+1,w
  6530  0415  00D1               	movwf	___fldiv@b+1
  6531  0416  0854               	movf	??___fldiv,w
  6532  0417  00D0               	movwf	___fldiv@b
  6533  0418                     l2758:
  6534  0418  3001               	movlw	1
  6535  0419  07DE               	addwf	___fldiv@new_exp,f
  6536  041A  3000               	movlw	0
  6537  041B  3DDF               	addwfc	___fldiv@new_exp+1,f
  6538  041C                     l2760:
  6539  041C  085F               	movf	___fldiv@new_exp+1,w
  6540  041D  3A80               	xorlw	128
  6541  041E  00D4               	movwf	??___fldiv
  6542  041F  3080               	movlw	128
  6543  0420  0254               	subwf	??___fldiv,w
  6544  0421  1D03               	skipz
  6545  0422  2C25               	goto	u1995
  6546  0423  30FF               	movlw	255
  6547  0424  025E               	subwf	___fldiv@new_exp,w
  6548  0425                     u1995:
  6549  0425  1C03               	skipc
  6550  0426  2C28               	goto	u1991
  6551  0427  2C29               	goto	u1990
  6552  0428                     u1991:
  6553  0428  2C36               	goto	l1216
  6554  0429                     u1990:
  6555  0429                     l2762:
  6556  0429  30FF               	movlw	255
  6557  042A  0020               	movlb	0	; select bank0
  6558  042B  00DE               	movwf	___fldiv@new_exp
  6559  042C  3000               	movlw	0
  6560  042D  00DF               	movwf	___fldiv@new_exp+1
  6561  042E  3000               	movlw	0
  6562  042F  00D3               	movwf	___fldiv@b+3
  6563  0430  3000               	movlw	0
  6564  0431  00D2               	movwf	___fldiv@b+2
  6565  0432  3000               	movlw	0
  6566  0433  00D1               	movwf	___fldiv@b+1
  6567  0434  3000               	movlw	0
  6568  0435  00D0               	movwf	___fldiv@b
  6569  0436                     l1216:
  6570  0436  0020               	movlb	0	; select bank0
  6571  0437  085F               	movf	___fldiv@new_exp+1,w
  6572  0438  3A80               	xorlw	128
  6573  0439  00D4               	movwf	??___fldiv
  6574  043A  3080               	movlw	128
  6575  043B  0254               	subwf	??___fldiv,w
  6576  043C  1D03               	skipz
  6577  043D  2C40               	goto	u2005
  6578  043E  3001               	movlw	1
  6579  043F  025E               	subwf	___fldiv@new_exp,w
  6580  0440                     u2005:
  6581  0440  1803               	skipnc
  6582  0441  2C43               	goto	u2001
  6583  0442  2C44               	goto	u2000
  6584  0443                     u2001:
  6585  0443  2C50               	goto	l1217
  6586  0444                     u2000:
  6587  0444                     l2764:
  6588  0444  0020               	movlb	0	; select bank0
  6589  0445  01DE               	clrf	___fldiv@new_exp
  6590  0446  01DF               	clrf	___fldiv@new_exp+1
  6591  0447                     l2766:
  6592  0447  3000               	movlw	0
  6593  0448  00D3               	movwf	___fldiv@b+3
  6594  0449  3000               	movlw	0
  6595  044A  00D2               	movwf	___fldiv@b+2
  6596  044B  3000               	movlw	0
  6597  044C  00D1               	movwf	___fldiv@b+1
  6598  044D  3000               	movlw	0
  6599  044E  00D0               	movwf	___fldiv@b
  6600  044F                     l2768:
  6601  044F  01DD               	clrf	___fldiv@sign
  6602  0450                     l1217:
  6603  0450  0020               	movlb	0	; select bank0
  6604  0451  085E               	movf	___fldiv@new_exp,w
  6605  0452  00D4               	movwf	??___fldiv
  6606  0453  0854               	movf	??___fldiv,w
  6607  0454  00E4               	movwf	___fldiv@bexp
  6608  0455                     l2770:
  6609  0455  1C64               	btfss	___fldiv@bexp,0
  6610  0456  2C58               	goto	u2011
  6611  0457  2C59               	goto	u2010
  6612  0458                     u2011:
  6613  0458  2C5B               	goto	l2774
  6614  0459                     u2010:
  6615  0459                     l2772:
  6616  0459  17D2               	bsf	___fldiv@b+2,7
  6617  045A  2C5F               	goto	l1219
  6618  045B                     l2774:
  6619  045B  307F               	movlw	127
  6620  045C  00D4               	movwf	??___fldiv
  6621  045D  0854               	movf	??___fldiv,w
  6622  045E  05D2               	andwf	___fldiv@b+2,f
  6623  045F                     l1219:
  6624  045F  3664               	lsrf	___fldiv@bexp,w
  6625  0460  00D4               	movwf	??___fldiv
  6626  0461  0854               	movf	??___fldiv,w
  6627  0462  00D3               	movwf	___fldiv@b+3
  6628  0463  085D               	movf	___fldiv@sign,w
  6629  0464  00D4               	movwf	??___fldiv
  6630  0465  0854               	movf	??___fldiv,w
  6631  0466  04D3               	iorwf	___fldiv@b+3,f
  6632  0467  2B24               	goto	l2684
  6633  0468                     l1197:
  6634  0468  0008               	return
  6635  0469                     __end_of___fldiv:
  6636                           
  6637                           	psect	text14
  6638  0C5C                     __ptext14:	
  6639 ;; *************** function _EUSART_is_rx_ready *****************
  6640 ;; Defined at:
  6641 ;;		line 99 in file "mcc_generated_files/eusart.c"
  6642 ;; Parameters:    Size  Location     Type
  6643 ;;		None
  6644 ;; Auto vars:     Size  Location     Type
  6645 ;;		None
  6646 ;; Return value:  Size  Location     Type
  6647 ;;                  1    wreg      _Bool 
  6648 ;; Registers used:
  6649 ;;		wreg, status,2, status,0
  6650 ;; Tracked objects:
  6651 ;;		On entry : 0/0
  6652 ;;		On exit  : 0/0
  6653 ;;		Unchanged: 0/0
  6654 ;; Data sizes:     COMMON   BANK0   BANK1   BANK2   BANK3   BANK4
  6655 ;;      Params:         0       0       0       0       0       0
  6656 ;;      Locals:         0       0       0       0       0       0
  6657 ;;      Temps:          0       0       0       0       0       0
  6658 ;;      Totals:         0       0       0       0       0       0
  6659 ;;Total ram usage:        0 bytes
  6660 ;; Hardware stack levels used:    1
  6661 ;; Hardware stack levels required when called:    4
  6662 ;; This function calls:
  6663 ;;		Nothing
  6664 ;; This function is called by:
  6665 ;;		_comunicacao
  6666 ;; This function uses a non-reentrant model
  6667 ;;
  6668                           
  6669                           
  6670                           ;psect for function _EUSART_is_rx_ready
  6671  0C5C                     _EUSART_is_rx_ready:
  6672  0C5C                     l3114:	
  6673                           ;incstack = 0
  6674                           ; Regs used in _EUSART_is_rx_ready: [wreg+status,2+status,0]
  6675                           
  6676                           
  6677                           ;mcc_generated_files/eusart.c: 101:     return (_Bool)(PIR1bits.RCIF);
  6678  0C5C  0020               	movlb	0	; select bank0
  6679  0C5D  0E11               	swapf	17,w	;volatile
  6680  0C5E  0C89               	rrf	9,f
  6681  0C5F  3901               	andlw	1
  6682  0C60                     l51:
  6683  0C60  0008               	return
  6684  0C61                     __end_of_EUSART_is_rx_ready:
  6685                           
  6686                           	psect	text15
  6687  0D74                     __ptext15:	
  6688 ;; *************** function _EUSART_Read *****************
  6689 ;; Defined at:
  6690 ;;		line 113 in file "mcc_generated_files/eusart.c"
  6691 ;; Parameters:    Size  Location     Type
  6692 ;;		None
  6693 ;; Auto vars:     Size  Location     Type
  6694 ;;		None
  6695 ;; Return value:  Size  Location     Type
  6696 ;;                  1    wreg      unsigned char 
  6697 ;; Registers used:
  6698 ;;		wreg, status,2
  6699 ;; Tracked objects:
  6700 ;;		On entry : 0/0
  6701 ;;		On exit  : 0/0
  6702 ;;		Unchanged: 0/0
  6703 ;; Data sizes:     COMMON   BANK0   BANK1   BANK2   BANK3   BANK4
  6704 ;;      Params:         0       0       0       0       0       0
  6705 ;;      Locals:         0       0       0       0       0       0
  6706 ;;      Temps:          0       0       0       0       0       0
  6707 ;;      Totals:         0       0       0       0       0       0
  6708 ;;Total ram usage:        0 bytes
  6709 ;; Hardware stack levels used:    1
  6710 ;; Hardware stack levels required when called:    4
  6711 ;; This function calls:
  6712 ;;		Nothing
  6713 ;; This function is called by:
  6714 ;;		_comunicacao
  6715 ;; This function uses a non-reentrant model
  6716 ;;
  6717                           
  6718                           
  6719                           ;psect for function _EUSART_Read
  6720  0D74                     _EUSART_Read:
  6721  0D74                     l3118:	
  6722                           ;incstack = 0
  6723                           ; Regs used in _EUSART_Read: [wreg+status,2]
  6724                           
  6725  0D74                     l60:	
  6726                           ;mcc_generated_files/eusart.c: 116:     {;mcc_generated_files/eusart.c: 117:     }
  6727                           
  6728                           
  6729                           ;mcc_generated_files/eusart.c: 115:     while(!PIR1bits.RCIF)
  6730  0D74  0020               	movlb	0	; select bank0
  6731  0D75  1E91               	btfss	17,5	;volatile
  6732  0D76  2D78               	goto	u2621
  6733  0D77  2D79               	goto	u2620
  6734  0D78                     u2621:
  6735  0D78  2D74               	goto	l60
  6736  0D79                     u2620:
  6737  0D79                     l3120:
  6738                           
  6739                           ;mcc_generated_files/eusart.c: 119:     eusartRxLastError.status = 0;
  6740  0D79  01EE               	clrf	_eusartRxLastError	;volatile
  6741  0D7A                     l3122:
  6742                           
  6743                           ;mcc_generated_files/eusart.c: 121:     if(1 == RCSTAbits.OERR)
  6744  0D7A  0023               	movlb	3	; select bank3
  6745  0D7B  1C9D               	btfss	29,1	;volatile
  6746  0D7C  2D7E               	goto	u2631
  6747  0D7D  2D7F               	goto	u2630
  6748  0D7E                     u2631:
  6749  0D7E  2D81               	goto	l3126
  6750  0D7F                     u2630:
  6751  0D7F                     l3124:
  6752                           
  6753                           ;mcc_generated_files/eusart.c: 122:     {;mcc_generated_files/eusart.c: 125:         RCS
      +                          TAbits.CREN = 0;
  6754  0D7F  121D               	bcf	29,4	;volatile
  6755                           
  6756                           ;mcc_generated_files/eusart.c: 126:         RCSTAbits.CREN = 1;
  6757  0D80  161D               	bsf	29,4	;volatile
  6758  0D81                     l3126:
  6759                           
  6760                           ;mcc_generated_files/eusart.c: 129:     return RCREG;
  6761  0D81  0819               	movf	25,w	;volatile
  6762  0D82                     l64:
  6763  0D82  0008               	return
  6764  0D83                     __end_of_EUSART_Read:
  6765                           
  6766                           	psect	text16
  6767  0EEC                     __ptext16:	
  6768 ;; *************** function _SYSTEM_Initialize *****************
  6769 ;; Defined at:
  6770 ;;		line 50 in file "mcc_generated_files/mcc.c"
  6771 ;; Parameters:    Size  Location     Type
  6772 ;;		None
  6773 ;; Auto vars:     Size  Location     Type
  6774 ;;		None
  6775 ;; Return value:  Size  Location     Type
  6776 ;;                  1    wreg      void 
  6777 ;; Registers used:
  6778 ;;		wreg, status,2, status,0, pclath, cstack
  6779 ;; Tracked objects:
  6780 ;;		On entry : 0/0
  6781 ;;		On exit  : 0/0
  6782 ;;		Unchanged: 0/0
  6783 ;; Data sizes:     COMMON   BANK0   BANK1   BANK2   BANK3   BANK4
  6784 ;;      Params:         0       0       0       0       0       0
  6785 ;;      Locals:         0       0       0       0       0       0
  6786 ;;      Temps:          0       0       0       0       0       0
  6787 ;;      Totals:         0       0       0       0       0       0
  6788 ;;Total ram usage:        0 bytes
  6789 ;; Hardware stack levels used:    1
  6790 ;; Hardware stack levels required when called:    6
  6791 ;; This function calls:
  6792 ;;		_ADC_Initialize
  6793 ;;		_CCP4_Initialize
  6794 ;;		_EPWM1_Initialize
  6795 ;;		_EUSART_Initialize
  6796 ;;		_FVR_Initialize
  6797 ;;		_OSCILLATOR_Initialize
  6798 ;;		_PIN_MANAGER_Initialize
  6799 ;;		_PWM3_Initialize
  6800 ;;		_TMR1_Initialize
  6801 ;;		_TMR2_Initialize
  6802 ;;		_TMR4_Initialize
  6803 ;;		_TMR6_Initialize
  6804 ;;		_WDT_Initialize
  6805 ;; This function is called by:
  6806 ;;		_main
  6807 ;; This function uses a non-reentrant model
  6808 ;;
  6809                           
  6810                           
  6811                           ;psect for function _SYSTEM_Initialize
  6812  0EEC                     _SYSTEM_Initialize:
  6813  0EEC                     l3338:	
  6814                           ;incstack = 0
  6815                           ; Regs used in _SYSTEM_Initialize: [wreg+status,2+status,0+pclath+cstack]
  6816                           
  6817                           
  6818                           ;mcc_generated_files/mcc.c: 53:     PIN_MANAGER_Initialize();
  6819  0EEC  318F  2746  318E   	fcall	_PIN_MANAGER_Initialize
  6820                           
  6821                           ;mcc_generated_files/mcc.c: 54:     OSCILLATOR_Initialize();
  6822  0EEF  318C  2479  318E   	fcall	_OSCILLATOR_Initialize
  6823                           
  6824                           ;mcc_generated_files/mcc.c: 55:     WDT_Initialize();
  6825  0EF2  318C  2458  318E   	fcall	_WDT_Initialize
  6826                           
  6827                           ;mcc_generated_files/mcc.c: 56:     FVR_Initialize();
  6828  0EF5  318C  2454  318E   	fcall	_FVR_Initialize
  6829                           
  6830                           ;mcc_generated_files/mcc.c: 57:     TMR4_Initialize();
  6831  0EF8  318D  25B6  318E   	fcall	_TMR4_Initialize
  6832                           
  6833                           ;mcc_generated_files/mcc.c: 58:     TMR2_Initialize();
  6834  0EFB  318C  2488  318E   	fcall	_TMR2_Initialize
  6835                           
  6836                           ;mcc_generated_files/mcc.c: 59:     TMR6_Initialize();
  6837  0EFE  318D  25CA  318E   	fcall	_TMR6_Initialize
  6838                           
  6839                           ;mcc_generated_files/mcc.c: 60:     CCP4_Initialize();
  6840  0F01  318D  25A4  318E   	fcall	_CCP4_Initialize
  6841                           
  6842                           ;mcc_generated_files/mcc.c: 61:     ADC_Initialize();
  6843  0F04  318C  2480  318E   	fcall	_ADC_Initialize
  6844                           
  6845                           ;mcc_generated_files/mcc.c: 62:     EPWM1_Initialize();
  6846  0F07  318C  24FD  318E   	fcall	_EPWM1_Initialize
  6847                           
  6848                           ;mcc_generated_files/mcc.c: 63:     PWM3_Initialize();
  6849  0F0A  318C  24D8  318E   	fcall	_PWM3_Initialize
  6850                           
  6851                           ;mcc_generated_files/mcc.c: 64:     TMR1_Initialize();
  6852  0F0D  318D  2583  318E   	fcall	_TMR1_Initialize
  6853                           
  6854                           ;mcc_generated_files/mcc.c: 65:     EUSART_Initialize();
  6855  0F10  3187  27D9  318E   	fcall	_EUSART_Initialize
  6856  0F13                     l125:
  6857  0F13  0008               	return
  6858  0F14                     __end_of_SYSTEM_Initialize:
  6859                           
  6860                           	psect	text17
  6861  0C58                     __ptext17:	
  6862 ;; *************** function _WDT_Initialize *****************
  6863 ;; Defined at:
  6864 ;;		line 78 in file "mcc_generated_files/mcc.c"
  6865 ;; Parameters:    Size  Location     Type
  6866 ;;		None
  6867 ;; Auto vars:     Size  Location     Type
  6868 ;;		None
  6869 ;; Return value:  Size  Location     Type
  6870 ;;                  1    wreg      void 
  6871 ;; Registers used:
  6872 ;;		wreg
  6873 ;; Tracked objects:
  6874 ;;		On entry : 0/0
  6875 ;;		On exit  : 0/0
  6876 ;;		Unchanged: 0/0
  6877 ;; Data sizes:     COMMON   BANK0   BANK1   BANK2   BANK3   BANK4
  6878 ;;      Params:         0       0       0       0       0       0
  6879 ;;      Locals:         0       0       0       0       0       0
  6880 ;;      Temps:          0       0       0       0       0       0
  6881 ;;      Totals:         0       0       0       0       0       0
  6882 ;;Total ram usage:        0 bytes
  6883 ;; Hardware stack levels used:    1
  6884 ;; Hardware stack levels required when called:    4
  6885 ;; This function calls:
  6886 ;;		Nothing
  6887 ;; This function is called by:
  6888 ;;		_SYSTEM_Initialize
  6889 ;; This function uses a non-reentrant model
  6890 ;;
  6891                           
  6892                           
  6893                           ;psect for function _WDT_Initialize
  6894  0C58                     _WDT_Initialize:
  6895  0C58                     l3186:	
  6896                           ;incstack = 0
  6897                           ; Regs used in _WDT_Initialize: [wreg]
  6898                           
  6899                           
  6900                           ;mcc_generated_files/mcc.c: 81:     WDTCON = 0x16;
  6901  0C58  3016               	movlw	22
  6902  0C59  0021               	movlb	1	; select bank1
  6903  0C5A  0097               	movwf	23	;volatile
  6904  0C5B                     l131:
  6905  0C5B  0008               	return
  6906  0C5C                     __end_of_WDT_Initialize:
  6907                           
  6908                           	psect	text18
  6909  0DCA                     __ptext18:	
  6910 ;; *************** function _TMR6_Initialize *****************
  6911 ;; Defined at:
  6912 ;;		line 64 in file "mcc_generated_files/tmr6.c"
  6913 ;; Parameters:    Size  Location     Type
  6914 ;;		None
  6915 ;; Auto vars:     Size  Location     Type
  6916 ;;		None
  6917 ;; Return value:  Size  Location     Type
  6918 ;;                  1    wreg      void 
  6919 ;; Registers used:
  6920 ;;		wreg, status,2, status,0, pclath, cstack
  6921 ;; Tracked objects:
  6922 ;;		On entry : 0/0
  6923 ;;		On exit  : 0/0
  6924 ;;		Unchanged: 0/0
  6925 ;; Data sizes:     COMMON   BANK0   BANK1   BANK2   BANK3   BANK4
  6926 ;;      Params:         0       0       0       0       0       0
  6927 ;;      Locals:         0       0       0       0       0       0
  6928 ;;      Temps:          0       0       0       0       0       0
  6929 ;;      Totals:         0       0       0       0       0       0
  6930 ;;Total ram usage:        0 bytes
  6931 ;; Hardware stack levels used:    1
  6932 ;; Hardware stack levels required when called:    5
  6933 ;; This function calls:
  6934 ;;		_TMR6_SetInterruptHandler
  6935 ;; This function is called by:
  6936 ;;		_SYSTEM_Initialize
  6937 ;; This function uses a non-reentrant model
  6938 ;;
  6939                           
  6940                           
  6941                           ;psect for function _TMR6_Initialize
  6942  0DCA                     _TMR6_Initialize:
  6943  0DCA                     l3210:	
  6944                           ;incstack = 0
  6945                           ; Regs used in _TMR6_Initialize: [wreg+status,2+status,0+pclath+cstack]
  6946                           
  6947                           
  6948                           ;mcc_generated_files/tmr6.c: 69:     PR6 = 0xDE;
  6949  0DCA  30DE               	movlw	222
  6950  0DCB  0028               	movlb	8	; select bank8
  6951  0DCC  009D               	movwf	29	;volatile
  6952  0DCD                     l3212:
  6953                           
  6954                           ;mcc_generated_files/tmr6.c: 72:     TMR6 = 0x00;
  6955  0DCD  019C               	clrf	28	;volatile
  6956  0DCE                     l3214:
  6957                           
  6958                           ;mcc_generated_files/tmr6.c: 75:     PIR3bits.TMR6IF = 0;
  6959  0DCE  0020               	movlb	0	; select bank0
  6960  0DCF  1193               	bcf	19,3	;volatile
  6961  0DD0                     l3216:
  6962                           
  6963                           ;mcc_generated_files/tmr6.c: 78:     PIE3bits.TMR6IE = 1;
  6964  0DD0  0021               	movlb	1	; select bank1
  6965  0DD1  1593               	bsf	19,3	;volatile
  6966  0DD2                     l3218:
  6967                           
  6968                           ;mcc_generated_files/tmr6.c: 81:     TMR6_SetInterruptHandler(TMR6_DefaultInterruptHandl
      +                          er);
  6969  0DD2  30FE               	movlw	low _TMR6_DefaultInterruptHandler
  6970  0DD3  0020               	movlb	0	; select bank0
  6971  0DD4  00A0               	movwf	TMR6_SetInterruptHandler@InterruptHandler
  6972  0DD5  3007               	movlw	high _TMR6_DefaultInterruptHandler
  6973  0DD6  00A1               	movwf	TMR6_SetInterruptHandler@InterruptHandler+1
  6974  0DD7  318C  24EA  318D   	fcall	_TMR6_SetInterruptHandler
  6975  0DDA                     l3220:
  6976                           
  6977                           ;mcc_generated_files/tmr6.c: 84:     T6CON = 0x07;
  6978  0DDA  3007               	movlw	7
  6979  0DDB  0028               	movlb	8	; select bank8
  6980  0DDC  009E               	movwf	30	;volatile
  6981  0DDD                     l663:
  6982  0DDD  0008               	return
  6983  0DDE                     __end_of_TMR6_Initialize:
  6984                           
  6985                           	psect	text19
  6986  0CEA                     __ptext19:	
  6987 ;; *************** function _TMR6_SetInterruptHandler *****************
  6988 ;; Defined at:
  6989 ;;		line 132 in file "mcc_generated_files/tmr6.c"
  6990 ;; Parameters:    Size  Location     Type
  6991 ;;  InterruptHan    2    0[BANK0 ] PTR FTN()void 
  6992 ;;		 -> TMR6_DefaultInterruptHandler(1), delay_2s(1), 
  6993 ;; Auto vars:     Size  Location     Type
  6994 ;;		None
  6995 ;; Return value:  Size  Location     Type
  6996 ;;                  1    wreg      void 
  6997 ;; Registers used:
  6998 ;;		wreg
  6999 ;; Tracked objects:
  7000 ;;		On entry : 0/0
  7001 ;;		On exit  : 0/0
  7002 ;;		Unchanged: 0/0
  7003 ;; Data sizes:     COMMON   BANK0   BANK1   BANK2   BANK3   BANK4
  7004 ;;      Params:         0       2       0       0       0       0
  7005 ;;      Locals:         0       0       0       0       0       0
  7006 ;;      Temps:          0       0       0       0       0       0
  7007 ;;      Totals:         0       2       0       0       0       0
  7008 ;;Total ram usage:        2 bytes
  7009 ;; Hardware stack levels used:    1
  7010 ;; Hardware stack levels required when called:    4
  7011 ;; This function calls:
  7012 ;;		Nothing
  7013 ;; This function is called by:
  7014 ;;		_main
  7015 ;;		_TMR6_Initialize
  7016 ;; This function uses a non-reentrant model
  7017 ;;
  7018                           
  7019                           
  7020                           ;psect for function _TMR6_SetInterruptHandler
  7021  0CEA                     _TMR6_SetInterruptHandler:
  7022  0CEA                     l3084:	
  7023                           ;incstack = 0
  7024                           ; Regs used in _TMR6_SetInterruptHandler: [wreg]
  7025                           
  7026                           
  7027                           ;mcc_generated_files/tmr6.c: 133:     TMR6_InterruptHandler = InterruptHandler;
  7028  0CEA  0020               	movlb	0	; select bank0
  7029  0CEB  0821               	movf	TMR6_SetInterruptHandler@InterruptHandler+1,w
  7030  0CEC  0021               	movlb	1	; select bank1
  7031  0CED  00A1               	movwf	(_TMR6_InterruptHandler+1)^(0+128)
  7032  0CEE  0020               	movlb	0	; select bank0
  7033  0CEF  0820               	movf	TMR6_SetInterruptHandler@InterruptHandler,w
  7034  0CF0  0021               	movlb	1	; select bank1
  7035  0CF1  00A0               	movwf	_TMR6_InterruptHandler^(0+128)
  7036  0CF2                     l685:
  7037  0CF2  0008               	return
  7038  0CF3                     __end_of_TMR6_SetInterruptHandler:
  7039                           
  7040                           	psect	text20
  7041  0DB6                     __ptext20:	
  7042 ;; *************** function _TMR4_Initialize *****************
  7043 ;; Defined at:
  7044 ;;		line 64 in file "mcc_generated_files/tmr4.c"
  7045 ;; Parameters:    Size  Location     Type
  7046 ;;		None
  7047 ;; Auto vars:     Size  Location     Type
  7048 ;;		None
  7049 ;; Return value:  Size  Location     Type
  7050 ;;                  1    wreg      void 
  7051 ;; Registers used:
  7052 ;;		wreg, status,2, status,0, pclath, cstack
  7053 ;; Tracked objects:
  7054 ;;		On entry : 0/0
  7055 ;;		On exit  : 0/0
  7056 ;;		Unchanged: 0/0
  7057 ;; Data sizes:     COMMON   BANK0   BANK1   BANK2   BANK3   BANK4
  7058 ;;      Params:         0       0       0       0       0       0
  7059 ;;      Locals:         0       0       0       0       0       0
  7060 ;;      Temps:          0       0       0       0       0       0
  7061 ;;      Totals:         0       0       0       0       0       0
  7062 ;;Total ram usage:        0 bytes
  7063 ;; Hardware stack levels used:    1
  7064 ;; Hardware stack levels required when called:    5
  7065 ;; This function calls:
  7066 ;;		_TMR4_SetInterruptHandler
  7067 ;; This function is called by:
  7068 ;;		_SYSTEM_Initialize
  7069 ;; This function uses a non-reentrant model
  7070 ;;
  7071                           
  7072                           
  7073                           ;psect for function _TMR4_Initialize
  7074  0DB6                     _TMR4_Initialize:
  7075  0DB6                     l3190:	
  7076                           ;incstack = 0
  7077                           ; Regs used in _TMR4_Initialize: [wreg+status,2+status,0+pclath+cstack]
  7078                           
  7079                           
  7080                           ;mcc_generated_files/tmr4.c: 69:     PR4 = 0xDE;
  7081  0DB6  30DE               	movlw	222
  7082  0DB7  0028               	movlb	8	; select bank8
  7083  0DB8  0096               	movwf	22	;volatile
  7084  0DB9                     l3192:
  7085                           
  7086                           ;mcc_generated_files/tmr4.c: 72:     TMR4 = 0x00;
  7087  0DB9  0195               	clrf	21	;volatile
  7088  0DBA                     l3194:
  7089                           
  7090                           ;mcc_generated_files/tmr4.c: 75:     PIR3bits.TMR4IF = 0;
  7091  0DBA  0020               	movlb	0	; select bank0
  7092  0DBB  1093               	bcf	19,1	;volatile
  7093  0DBC                     l3196:
  7094                           
  7095                           ;mcc_generated_files/tmr4.c: 78:     PIE3bits.TMR4IE = 1;
  7096  0DBC  0021               	movlb	1	; select bank1
  7097  0DBD  1493               	bsf	19,1	;volatile
  7098  0DBE                     l3198:
  7099                           
  7100                           ;mcc_generated_files/tmr4.c: 81:     TMR4_SetInterruptHandler(TMR4_DefaultInterruptHandl
      +                          er);
  7101  0DBE  30FF               	movlw	low _TMR4_DefaultInterruptHandler
  7102  0DBF  0020               	movlb	0	; select bank0
  7103  0DC0  00A0               	movwf	TMR4_SetInterruptHandler@InterruptHandler
  7104  0DC1  3007               	movlw	high _TMR4_DefaultInterruptHandler
  7105  0DC2  00A1               	movwf	TMR4_SetInterruptHandler@InterruptHandler+1
  7106  0DC3  318C  24E1  318D   	fcall	_TMR4_SetInterruptHandler
  7107  0DC6                     l3200:
  7108                           
  7109                           ;mcc_generated_files/tmr4.c: 84:     T4CON = 0x07;
  7110  0DC6  3007               	movlw	7
  7111  0DC7  0028               	movlb	8	; select bank8
  7112  0DC8  0097               	movwf	23	;volatile
  7113  0DC9                     l229:
  7114  0DC9  0008               	return
  7115  0DCA                     __end_of_TMR4_Initialize:
  7116                           
  7117                           	psect	text21
  7118  0CE1                     __ptext21:	
  7119 ;; *************** function _TMR4_SetInterruptHandler *****************
  7120 ;; Defined at:
  7121 ;;		line 132 in file "mcc_generated_files/tmr4.c"
  7122 ;; Parameters:    Size  Location     Type
  7123 ;;  InterruptHan    2    0[BANK0 ] PTR FTN()void 
  7124 ;;		 -> send_data(1), TMR4_DefaultInterruptHandler(1), 
  7125 ;; Auto vars:     Size  Location     Type
  7126 ;;		None
  7127 ;; Return value:  Size  Location     Type
  7128 ;;                  1    wreg      void 
  7129 ;; Registers used:
  7130 ;;		wreg
  7131 ;; Tracked objects:
  7132 ;;		On entry : 0/0
  7133 ;;		On exit  : 0/0
  7134 ;;		Unchanged: 0/0
  7135 ;; Data sizes:     COMMON   BANK0   BANK1   BANK2   BANK3   BANK4
  7136 ;;      Params:         0       2       0       0       0       0
  7137 ;;      Locals:         0       0       0       0       0       0
  7138 ;;      Temps:          0       0       0       0       0       0
  7139 ;;      Totals:         0       2       0       0       0       0
  7140 ;;Total ram usage:        2 bytes
  7141 ;; Hardware stack levels used:    1
  7142 ;; Hardware stack levels required when called:    4
  7143 ;; This function calls:
  7144 ;;		Nothing
  7145 ;; This function is called by:
  7146 ;;		_TMR4_Initialize
  7147 ;;		_main
  7148 ;; This function uses a non-reentrant model
  7149 ;;
  7150                           
  7151                           
  7152                           ;psect for function _TMR4_SetInterruptHandler
  7153  0CE1                     _TMR4_SetInterruptHandler:
  7154  0CE1                     l3072:	
  7155                           ;incstack = 0
  7156                           ; Regs used in _TMR4_SetInterruptHandler: [wreg]
  7157                           
  7158                           
  7159                           ;mcc_generated_files/tmr4.c: 133:     TMR4_InterruptHandler = InterruptHandler;
  7160  0CE1  0020               	movlb	0	; select bank0
  7161  0CE2  0821               	movf	TMR4_SetInterruptHandler@InterruptHandler+1,w
  7162  0CE3  0021               	movlb	1	; select bank1
  7163  0CE4  00AD               	movwf	(_TMR4_InterruptHandler+1)^(0+128)
  7164  0CE5  0020               	movlb	0	; select bank0
  7165  0CE6  0820               	movf	TMR4_SetInterruptHandler@InterruptHandler,w
  7166  0CE7  0021               	movlb	1	; select bank1
  7167  0CE8  00AC               	movwf	_TMR4_InterruptHandler^(0+128)
  7168  0CE9                     l251:
  7169  0CE9  0008               	return
  7170  0CEA                     __end_of_TMR4_SetInterruptHandler:
  7171                           
  7172                           	psect	text22
  7173  0C88                     __ptext22:	
  7174 ;; *************** function _TMR2_Initialize *****************
  7175 ;; Defined at:
  7176 ;;		line 62 in file "mcc_generated_files/tmr2.c"
  7177 ;; Parameters:    Size  Location     Type
  7178 ;;		None
  7179 ;; Auto vars:     Size  Location     Type
  7180 ;;		None
  7181 ;; Return value:  Size  Location     Type
  7182 ;;                  1    wreg      void 
  7183 ;; Registers used:
  7184 ;;		wreg, status,2
  7185 ;; Tracked objects:
  7186 ;;		On entry : 0/0
  7187 ;;		On exit  : 0/0
  7188 ;;		Unchanged: 0/0
  7189 ;; Data sizes:     COMMON   BANK0   BANK1   BANK2   BANK3   BANK4
  7190 ;;      Params:         0       0       0       0       0       0
  7191 ;;      Locals:         0       0       0       0       0       0
  7192 ;;      Temps:          0       0       0       0       0       0
  7193 ;;      Totals:         0       0       0       0       0       0
  7194 ;;Total ram usage:        0 bytes
  7195 ;; Hardware stack levels used:    1
  7196 ;; Hardware stack levels required when called:    4
  7197 ;; This function calls:
  7198 ;;		Nothing
  7199 ;; This function is called by:
  7200 ;;		_SYSTEM_Initialize
  7201 ;; This function uses a non-reentrant model
  7202 ;;
  7203                           
  7204                           
  7205                           ;psect for function _TMR2_Initialize
  7206  0C88                     _TMR2_Initialize:
  7207  0C88                     l3202:	
  7208                           ;incstack = 0
  7209                           ; Regs used in _TMR2_Initialize: [wreg+status,2]
  7210                           
  7211                           
  7212                           ;mcc_generated_files/tmr2.c: 67:     PR2 = 0xFF;
  7213  0C88  30FF               	movlw	255
  7214  0C89  0020               	movlb	0	; select bank0
  7215  0C8A  009B               	movwf	27	;volatile
  7216  0C8B                     l3204:
  7217                           
  7218                           ;mcc_generated_files/tmr2.c: 70:     TMR2 = 0x00;
  7219  0C8B  019A               	clrf	26	;volatile
  7220  0C8C                     l3206:
  7221                           
  7222                           ;mcc_generated_files/tmr2.c: 73:     PIR1bits.TMR2IF = 0;
  7223  0C8C  1091               	bcf	17,1	;volatile
  7224  0C8D                     l3208:
  7225                           
  7226                           ;mcc_generated_files/tmr2.c: 76:     T2CON = 0x04;
  7227  0C8D  3004               	movlw	4
  7228  0C8E  009C               	movwf	28	;volatile
  7229  0C8F                     l189:
  7230  0C8F  0008               	return
  7231  0C90                     __end_of_TMR2_Initialize:
  7232                           
  7233                           	psect	text23
  7234  0D83                     __ptext23:	
  7235 ;; *************** function _TMR1_Initialize *****************
  7236 ;; Defined at:
  7237 ;;		line 63 in file "mcc_generated_files/tmr1.c"
  7238 ;; Parameters:    Size  Location     Type
  7239 ;;		None
  7240 ;; Auto vars:     Size  Location     Type
  7241 ;;		None
  7242 ;; Return value:  Size  Location     Type
  7243 ;;                  1    wreg      void 
  7244 ;; Registers used:
  7245 ;;		wreg, status,2
  7246 ;; Tracked objects:
  7247 ;;		On entry : 0/0
  7248 ;;		On exit  : 0/0
  7249 ;;		Unchanged: 0/0
  7250 ;; Data sizes:     COMMON   BANK0   BANK1   BANK2   BANK3   BANK4
  7251 ;;      Params:         0       0       0       0       0       0
  7252 ;;      Locals:         0       0       0       0       0       0
  7253 ;;      Temps:          0       0       0       0       0       0
  7254 ;;      Totals:         0       0       0       0       0       0
  7255 ;;Total ram usage:        0 bytes
  7256 ;; Hardware stack levels used:    1
  7257 ;; Hardware stack levels required when called:    4
  7258 ;; This function calls:
  7259 ;;		Nothing
  7260 ;; This function is called by:
  7261 ;;		_SYSTEM_Initialize
  7262 ;; This function uses a non-reentrant model
  7263 ;;
  7264                           
  7265                           
  7266                           ;psect for function _TMR1_Initialize
  7267  0D83                     _TMR1_Initialize:
  7268  0D83                     l3260:	
  7269                           ;incstack = 0
  7270                           ; Regs used in _TMR1_Initialize: [wreg+status,2]
  7271                           
  7272                           
  7273                           ;mcc_generated_files/tmr1.c: 68:     T1GCON = 0x00;
  7274  0D83  0020               	movlb	0	; select bank0
  7275  0D84  0199               	clrf	25	;volatile
  7276                           
  7277                           ;mcc_generated_files/tmr1.c: 71:     TMR1H = 0x00;
  7278  0D85  0197               	clrf	23	;volatile
  7279                           
  7280                           ;mcc_generated_files/tmr1.c: 74:     TMR1L = 0x00;
  7281  0D86  0196               	clrf	22	;volatile
  7282  0D87                     l3262:
  7283                           
  7284                           ;mcc_generated_files/tmr1.c: 77:     PIR1bits.TMR1IF = 0;
  7285  0D87  1011               	bcf	17,0	;volatile
  7286  0D88                     l3264:
  7287                           
  7288                           ;mcc_generated_files/tmr1.c: 80:     timer1ReloadVal=(uint16_t)((TMR1H << 8) | TMR1L);
  7289  0D88  0817               	movf	23,w	;volatile
  7290  0D89  0021               	movlb	1	; select bank1
  7291  0D8A  00AF               	movwf	(_timer1ReloadVal+1)^(0+128)	;volatile
  7292  0D8B  0020               	movlb	0	; select bank0
  7293  0D8C  0816               	movf	22,w	;volatile
  7294  0D8D  0021               	movlb	1	; select bank1
  7295  0D8E  00AE               	movwf	_timer1ReloadVal^(0+128)	;volatile
  7296  0D8F                     l3266:
  7297                           
  7298                           ;mcc_generated_files/tmr1.c: 83:     T1CON = 0x31;
  7299  0D8F  3031               	movlw	49
  7300  0D90  0020               	movlb	0	; select bank0
  7301  0D91  0098               	movwf	24	;volatile
  7302  0D92                     l150:
  7303  0D92  0008               	return
  7304  0D93                     __end_of_TMR1_Initialize:
  7305                           
  7306                           	psect	text24
  7307  0CD8                     __ptext24:	
  7308 ;; *************** function _PWM3_Initialize *****************
  7309 ;; Defined at:
  7310 ;;		line 64 in file "mcc_generated_files/pwm3.c"
  7311 ;; Parameters:    Size  Location     Type
  7312 ;;		None
  7313 ;; Auto vars:     Size  Location     Type
  7314 ;;		None
  7315 ;; Return value:  Size  Location     Type
  7316 ;;                  1    wreg      void 
  7317 ;; Registers used:
  7318 ;;		wreg, status,2, status,0
  7319 ;; Tracked objects:
  7320 ;;		On entry : 0/0
  7321 ;;		On exit  : 0/0
  7322 ;;		Unchanged: 0/0
  7323 ;; Data sizes:     COMMON   BANK0   BANK1   BANK2   BANK3   BANK4
  7324 ;;      Params:         0       0       0       0       0       0
  7325 ;;      Locals:         0       0       0       0       0       0
  7326 ;;      Temps:          0       0       0       0       0       0
  7327 ;;      Totals:         0       0       0       0       0       0
  7328 ;;Total ram usage:        0 bytes
  7329 ;; Hardware stack levels used:    1
  7330 ;; Hardware stack levels required when called:    4
  7331 ;; This function calls:
  7332 ;;		Nothing
  7333 ;; This function is called by:
  7334 ;;		_SYSTEM_Initialize
  7335 ;; This function uses a non-reentrant model
  7336 ;;
  7337                           
  7338                           
  7339                           ;psect for function _PWM3_Initialize
  7340  0CD8                     _PWM3_Initialize:
  7341  0CD8                     l3252:	
  7342                           ;incstack = 0
  7343                           ; Regs used in _PWM3_Initialize: [wreg+status,2+status,0]
  7344                           
  7345                           
  7346                           ;mcc_generated_files/pwm3.c: 69:  CCP3CON = 0x0C;
  7347  0CD8  300C               	movlw	12
  7348  0CD9  0026               	movlb	6	; select bank6
  7349  0CDA  0093               	movwf	19	;volatile
  7350  0CDB                     l3254:
  7351                           
  7352                           ;mcc_generated_files/pwm3.c: 72:  CCPR3L = 0x00;
  7353  0CDB  0191               	clrf	17	;volatile
  7354  0CDC                     l3256:
  7355                           
  7356                           ;mcc_generated_files/pwm3.c: 75:  CCPR3H = 0x00;
  7357  0CDC  0192               	clrf	18	;volatile
  7358  0CDD                     l3258:
  7359                           
  7360                           ;mcc_generated_files/pwm3.c: 78:  CCPTMRS0bits.C3TSEL = 0x0;
  7361  0CDD  30CF               	movlw	-49
  7362  0CDE  0025               	movlb	5	; select bank5
  7363  0CDF  059E               	andwf	30,f	;volatile
  7364  0CE0                     l480:
  7365  0CE0  0008               	return
  7366  0CE1                     __end_of_PWM3_Initialize:
  7367                           
  7368                           	psect	text25
  7369  0F46                     __ptext25:	
  7370 ;; *************** function _PIN_MANAGER_Initialize *****************
  7371 ;; Defined at:
  7372 ;;		line 60 in file "mcc_generated_files/pin_manager.c"
  7373 ;; Parameters:    Size  Location     Type
  7374 ;;		None
  7375 ;; Auto vars:     Size  Location     Type
  7376 ;;		None
  7377 ;; Return value:  Size  Location     Type
  7378 ;;                  1    wreg      void 
  7379 ;; Registers used:
  7380 ;;		wreg, status,2, status,0, pclath, cstack
  7381 ;; Tracked objects:
  7382 ;;		On entry : 0/0
  7383 ;;		On exit  : 0/0
  7384 ;;		Unchanged: 0/0
  7385 ;; Data sizes:     COMMON   BANK0   BANK1   BANK2   BANK3   BANK4
  7386 ;;      Params:         0       0       0       0       0       0
  7387 ;;      Locals:         0       0       0       0       0       0
  7388 ;;      Temps:          0       0       0       0       0       0
  7389 ;;      Totals:         0       0       0       0       0       0
  7390 ;;Total ram usage:        0 bytes
  7391 ;; Hardware stack levels used:    1
  7392 ;; Hardware stack levels required when called:    5
  7393 ;; This function calls:
  7394 ;;		_IOCBF0_SetInterruptHandler
  7395 ;;		_IOCBF3_SetInterruptHandler
  7396 ;;		_IOCBF4_SetInterruptHandler
  7397 ;;		_IOCBF5_SetInterruptHandler
  7398 ;; This function is called by:
  7399 ;;		_SYSTEM_Initialize
  7400 ;; This function uses a non-reentrant model
  7401 ;;
  7402                           
  7403                           
  7404                           ;psect for function _PIN_MANAGER_Initialize
  7405  0F46                     _PIN_MANAGER_Initialize:
  7406  0F46                     l3130:	
  7407                           ;incstack = 0
  7408                           ; Regs used in _PIN_MANAGER_Initialize: [wreg+status,2+status,0+pclath+cstack]
  7409                           
  7410                           
  7411                           ;mcc_generated_files/pin_manager.c: 65:     LATA = 0x00;
  7412  0F46  0022               	movlb	2	; select bank2
  7413  0F47  018C               	clrf	12	;volatile
  7414                           
  7415                           ;mcc_generated_files/pin_manager.c: 66:     LATB = 0x00;
  7416  0F48  018D               	clrf	13	;volatile
  7417  0F49                     l3132:
  7418                           
  7419                           ;mcc_generated_files/pin_manager.c: 71:     TRISA = 0x33;
  7420  0F49  3033               	movlw	51
  7421  0F4A  0021               	movlb	1	; select bank1
  7422  0F4B  008C               	movwf	12	;volatile
  7423  0F4C                     l3134:
  7424                           
  7425                           ;mcc_generated_files/pin_manager.c: 72:     TRISB = 0xFF;
  7426  0F4C  30FF               	movlw	255
  7427  0F4D  008D               	movwf	13	;volatile
  7428  0F4E                     l3136:
  7429                           
  7430                           ;mcc_generated_files/pin_manager.c: 77:     ANSELB = 0xC0;
  7431  0F4E  30C0               	movlw	192
  7432  0F4F  0023               	movlb	3	; select bank3
  7433  0F50  008D               	movwf	13	;volatile
  7434  0F51                     l3138:
  7435                           
  7436                           ;mcc_generated_files/pin_manager.c: 78:     ANSELA = 0x03;
  7437  0F51  3003               	movlw	3
  7438  0F52  008C               	movwf	12	;volatile
  7439                           
  7440                           ;mcc_generated_files/pin_manager.c: 83:     WPUB = 0x00;
  7441  0F53  0024               	movlb	4	; select bank4
  7442  0F54  018D               	clrf	13	;volatile
  7443                           
  7444                           ;mcc_generated_files/pin_manager.c: 84:     WPUA = 0x00;
  7445  0F55  018C               	clrf	12	;volatile
  7446  0F56                     l3140:
  7447                           
  7448                           ;mcc_generated_files/pin_manager.c: 85:     OPTION_REGbits.nWPUEN = 1;
  7449  0F56  0021               	movlb	1	; select bank1
  7450  0F57  1795               	bsf	21,7	;volatile
  7451  0F58                     l3142:
  7452                           
  7453                           ;mcc_generated_files/pin_manager.c: 91:     APFCON0 = 0x06;
  7454  0F58  3006               	movlw	6
  7455  0F59  0022               	movlb	2	; select bank2
  7456  0F5A  009D               	movwf	29	;volatile
  7457  0F5B                     l3144:
  7458                           
  7459                           ;mcc_generated_files/pin_manager.c: 92:     APFCON1 = 0x00;
  7460  0F5B  019E               	clrf	30	;volatile
  7461  0F5C                     l3146:
  7462                           
  7463                           ;mcc_generated_files/pin_manager.c: 98:     IOCBFbits.IOCBF0 = 0;
  7464  0F5C  0027               	movlb	7	; select bank7
  7465  0F5D  1016               	bcf	22,0	;volatile
  7466  0F5E                     l3148:
  7467                           
  7468                           ;mcc_generated_files/pin_manager.c: 100:     IOCBFbits.IOCBF3 = 0;
  7469  0F5E  1196               	bcf	22,3	;volatile
  7470  0F5F                     l3150:
  7471                           
  7472                           ;mcc_generated_files/pin_manager.c: 102:     IOCBFbits.IOCBF4 = 0;
  7473  0F5F  1216               	bcf	22,4	;volatile
  7474  0F60                     l3152:
  7475                           
  7476                           ;mcc_generated_files/pin_manager.c: 104:     IOCBFbits.IOCBF5 = 0;
  7477  0F60  1296               	bcf	22,5	;volatile
  7478  0F61                     l3154:
  7479                           
  7480                           ;mcc_generated_files/pin_manager.c: 106:     IOCBNbits.IOCBN0 = 1;
  7481  0F61  1415               	bsf	21,0	;volatile
  7482  0F62                     l3156:
  7483                           
  7484                           ;mcc_generated_files/pin_manager.c: 108:     IOCBNbits.IOCBN3 = 1;
  7485  0F62  1595               	bsf	21,3	;volatile
  7486  0F63                     l3158:
  7487                           
  7488                           ;mcc_generated_files/pin_manager.c: 110:     IOCBNbits.IOCBN4 = 1;
  7489  0F63  1615               	bsf	21,4	;volatile
  7490  0F64                     l3160:
  7491                           
  7492                           ;mcc_generated_files/pin_manager.c: 112:     IOCBNbits.IOCBN5 = 1;
  7493  0F64  1695               	bsf	21,5	;volatile
  7494  0F65                     l3162:
  7495                           
  7496                           ;mcc_generated_files/pin_manager.c: 114:     IOCBPbits.IOCBP0 = 0;
  7497  0F65  1014               	bcf	20,0	;volatile
  7498  0F66                     l3164:
  7499                           
  7500                           ;mcc_generated_files/pin_manager.c: 116:     IOCBPbits.IOCBP3 = 0;
  7501  0F66  1194               	bcf	20,3	;volatile
  7502  0F67                     l3166:
  7503                           
  7504                           ;mcc_generated_files/pin_manager.c: 118:     IOCBPbits.IOCBP4 = 0;
  7505  0F67  1214               	bcf	20,4	;volatile
  7506  0F68                     l3168:
  7507                           
  7508                           ;mcc_generated_files/pin_manager.c: 120:     IOCBPbits.IOCBP5 = 0;
  7509  0F68  1294               	bcf	20,5	;volatile
  7510  0F69                     l3170:
  7511                           
  7512                           ;mcc_generated_files/pin_manager.c: 125:     IOCBF0_SetInterruptHandler(IOCBF0_DefaultIn
      +                          terruptHandler);
  7513  0F69  304B               	movlw	low _IOCBF0_DefaultInterruptHandler
  7514  0F6A  0020               	movlb	0	; select bank0
  7515  0F6B  00A0               	movwf	IOCBF0_SetInterruptHandler@InterruptHandler
  7516  0F6C  300C               	movlw	high _IOCBF0_DefaultInterruptHandler
  7517  0F6D  00A1               	movwf	IOCBF0_SetInterruptHandler@InterruptHandler+1
  7518  0F6E  318C  24B4  318F   	fcall	_IOCBF0_SetInterruptHandler
  7519  0F71                     l3172:
  7520                           
  7521                           ;mcc_generated_files/pin_manager.c: 126:     IOCBF3_SetInterruptHandler(IOCBF3_DefaultIn
      +                          terruptHandler);
  7522  0F71  304C               	movlw	low _IOCBF3_DefaultInterruptHandler
  7523  0F72  0020               	movlb	0	; select bank0
  7524  0F73  00A0               	movwf	IOCBF3_SetInterruptHandler@InterruptHandler
  7525  0F74  300C               	movlw	high _IOCBF3_DefaultInterruptHandler
  7526  0F75  00A1               	movwf	IOCBF3_SetInterruptHandler@InterruptHandler+1
  7527  0F76  318C  24BD  318F   	fcall	_IOCBF3_SetInterruptHandler
  7528  0F79                     l3174:
  7529                           
  7530                           ;mcc_generated_files/pin_manager.c: 127:     IOCBF4_SetInterruptHandler(IOCBF4_DefaultIn
      +                          terruptHandler);
  7531  0F79  3002               	movlw	low _IOCBF4_DefaultInterruptHandler
  7532  0F7A  0020               	movlb	0	; select bank0
  7533  0F7B  00A0               	movwf	IOCBF4_SetInterruptHandler@InterruptHandler
  7534  0F7C  3000               	movlw	high _IOCBF4_DefaultInterruptHandler
  7535  0F7D  00A1               	movwf	IOCBF4_SetInterruptHandler@InterruptHandler+1
  7536  0F7E  318C  24C6  318F   	fcall	_IOCBF4_SetInterruptHandler
  7537  0F81                     l3176:
  7538                           
  7539                           ;mcc_generated_files/pin_manager.c: 128:     IOCBF5_SetInterruptHandler(IOCBF5_DefaultIn
      +                          terruptHandler);
  7540  0F81  3003               	movlw	low _IOCBF5_DefaultInterruptHandler
  7541  0F82  0020               	movlb	0	; select bank0
  7542  0F83  00A0               	movwf	IOCBF5_SetInterruptHandler@InterruptHandler
  7543  0F84  3000               	movlw	high _IOCBF5_DefaultInterruptHandler
  7544  0F85  00A1               	movwf	IOCBF5_SetInterruptHandler@InterruptHandler+1
  7545  0F86  318C  24CF  318F   	fcall	_IOCBF5_SetInterruptHandler
  7546  0F89                     l3178:
  7547                           
  7548                           ;mcc_generated_files/pin_manager.c: 131:     INTCONbits.IOCIE = 1;
  7549  0F89  158B               	bsf	11,3	;volatile
  7550  0F8A                     l422:
  7551  0F8A  0008               	return
  7552  0F8B                     __end_of_PIN_MANAGER_Initialize:
  7553                           
  7554                           	psect	text26
  7555  0CCF                     __ptext26:	
  7556 ;; *************** function _IOCBF5_SetInterruptHandler *****************
  7557 ;; Defined at:
  7558 ;;		line 267 in file "mcc_generated_files/pin_manager.c"
  7559 ;; Parameters:    Size  Location     Type
  7560 ;;  InterruptHan    2    0[BANK0 ] PTR FTN()void 
  7561 ;;		 -> sensor4(1), IOCBF5_DefaultInterruptHandler(1), 
  7562 ;; Auto vars:     Size  Location     Type
  7563 ;;		None
  7564 ;; Return value:  Size  Location     Type
  7565 ;;                  1    wreg      void 
  7566 ;; Registers used:
  7567 ;;		wreg
  7568 ;; Tracked objects:
  7569 ;;		On entry : 0/0
  7570 ;;		On exit  : 0/0
  7571 ;;		Unchanged: 0/0
  7572 ;; Data sizes:     COMMON   BANK0   BANK1   BANK2   BANK3   BANK4
  7573 ;;      Params:         0       2       0       0       0       0
  7574 ;;      Locals:         0       0       0       0       0       0
  7575 ;;      Temps:          0       0       0       0       0       0
  7576 ;;      Totals:         0       2       0       0       0       0
  7577 ;;Total ram usage:        2 bytes
  7578 ;; Hardware stack levels used:    1
  7579 ;; Hardware stack levels required when called:    4
  7580 ;; This function calls:
  7581 ;;		Nothing
  7582 ;; This function is called by:
  7583 ;;		_PIN_MANAGER_Initialize
  7584 ;;		_main
  7585 ;; This function uses a non-reentrant model
  7586 ;;
  7587                           
  7588                           
  7589                           ;psect for function _IOCBF5_SetInterruptHandler
  7590  0CCF                     _IOCBF5_SetInterruptHandler:
  7591  0CCF                     l3082:	
  7592                           ;incstack = 0
  7593                           ; Regs used in _IOCBF5_SetInterruptHandler: [wreg]
  7594                           
  7595                           
  7596                           ;mcc_generated_files/pin_manager.c: 268:     IOCBF5_InterruptHandler = InterruptHandler;
  7597  0CCF  0020               	movlb	0	; select bank0
  7598  0CD0  0821               	movf	IOCBF5_SetInterruptHandler@InterruptHandler+1,w
  7599  0CD1  0021               	movlb	1	; select bank1
  7600  0CD2  00A3               	movwf	(_IOCBF5_InterruptHandler+1)^(0+128)
  7601  0CD3  0020               	movlb	0	; select bank0
  7602  0CD4  0820               	movf	IOCBF5_SetInterruptHandler@InterruptHandler,w
  7603  0CD5  0021               	movlb	1	; select bank1
  7604  0CD6  00A2               	movwf	_IOCBF5_InterruptHandler^(0+128)
  7605  0CD7                     l466:
  7606  0CD7  0008               	return
  7607  0CD8                     __end_of_IOCBF5_SetInterruptHandler:
  7608                           
  7609                           	psect	text27
  7610  0CC6                     __ptext27:	
  7611 ;; *************** function _IOCBF4_SetInterruptHandler *****************
  7612 ;; Defined at:
  7613 ;;		line 237 in file "mcc_generated_files/pin_manager.c"
  7614 ;; Parameters:    Size  Location     Type
  7615 ;;  InterruptHan    2    0[BANK0 ] PTR FTN()void 
  7616 ;;		 -> sensor3(1), IOCBF4_DefaultInterruptHandler(1), 
  7617 ;; Auto vars:     Size  Location     Type
  7618 ;;		None
  7619 ;; Return value:  Size  Location     Type
  7620 ;;                  1    wreg      void 
  7621 ;; Registers used:
  7622 ;;		wreg
  7623 ;; Tracked objects:
  7624 ;;		On entry : 0/0
  7625 ;;		On exit  : 0/0
  7626 ;;		Unchanged: 0/0
  7627 ;; Data sizes:     COMMON   BANK0   BANK1   BANK2   BANK3   BANK4
  7628 ;;      Params:         0       2       0       0       0       0
  7629 ;;      Locals:         0       0       0       0       0       0
  7630 ;;      Temps:          0       0       0       0       0       0
  7631 ;;      Totals:         0       2       0       0       0       0
  7632 ;;Total ram usage:        2 bytes
  7633 ;; Hardware stack levels used:    1
  7634 ;; Hardware stack levels required when called:    4
  7635 ;; This function calls:
  7636 ;;		Nothing
  7637 ;; This function is called by:
  7638 ;;		_PIN_MANAGER_Initialize
  7639 ;;		_main
  7640 ;; This function uses a non-reentrant model
  7641 ;;
  7642                           
  7643                           
  7644                           ;psect for function _IOCBF4_SetInterruptHandler
  7645  0CC6                     _IOCBF4_SetInterruptHandler:
  7646  0CC6                     l3080:	
  7647                           ;incstack = 0
  7648                           ; Regs used in _IOCBF4_SetInterruptHandler: [wreg]
  7649                           
  7650                           
  7651                           ;mcc_generated_files/pin_manager.c: 238:     IOCBF4_InterruptHandler = InterruptHandler;
  7652  0CC6  0020               	movlb	0	; select bank0
  7653  0CC7  0821               	movf	IOCBF4_SetInterruptHandler@InterruptHandler+1,w
  7654  0CC8  0021               	movlb	1	; select bank1
  7655  0CC9  00A5               	movwf	(_IOCBF4_InterruptHandler+1)^(0+128)
  7656  0CCA  0020               	movlb	0	; select bank0
  7657  0CCB  0820               	movf	IOCBF4_SetInterruptHandler@InterruptHandler,w
  7658  0CCC  0021               	movlb	1	; select bank1
  7659  0CCD  00A4               	movwf	_IOCBF4_InterruptHandler^(0+128)
  7660  0CCE                     l456:
  7661  0CCE  0008               	return
  7662  0CCF                     __end_of_IOCBF4_SetInterruptHandler:
  7663                           
  7664                           	psect	text28
  7665  0CBD                     __ptext28:	
  7666 ;; *************** function _IOCBF3_SetInterruptHandler *****************
  7667 ;; Defined at:
  7668 ;;		line 207 in file "mcc_generated_files/pin_manager.c"
  7669 ;; Parameters:    Size  Location     Type
  7670 ;;  InterruptHan    2    0[BANK0 ] PTR FTN()void 
  7671 ;;		 -> sensor2(1), IOCBF3_DefaultInterruptHandler(1), 
  7672 ;; Auto vars:     Size  Location     Type
  7673 ;;		None
  7674 ;; Return value:  Size  Location     Type
  7675 ;;                  1    wreg      void 
  7676 ;; Registers used:
  7677 ;;		wreg
  7678 ;; Tracked objects:
  7679 ;;		On entry : 0/0
  7680 ;;		On exit  : 0/0
  7681 ;;		Unchanged: 0/0
  7682 ;; Data sizes:     COMMON   BANK0   BANK1   BANK2   BANK3   BANK4
  7683 ;;      Params:         0       2       0       0       0       0
  7684 ;;      Locals:         0       0       0       0       0       0
  7685 ;;      Temps:          0       0       0       0       0       0
  7686 ;;      Totals:         0       2       0       0       0       0
  7687 ;;Total ram usage:        2 bytes
  7688 ;; Hardware stack levels used:    1
  7689 ;; Hardware stack levels required when called:    4
  7690 ;; This function calls:
  7691 ;;		Nothing
  7692 ;; This function is called by:
  7693 ;;		_PIN_MANAGER_Initialize
  7694 ;;		_main
  7695 ;; This function uses a non-reentrant model
  7696 ;;
  7697                           
  7698                           
  7699                           ;psect for function _IOCBF3_SetInterruptHandler
  7700  0CBD                     _IOCBF3_SetInterruptHandler:
  7701  0CBD                     l3078:	
  7702                           ;incstack = 0
  7703                           ; Regs used in _IOCBF3_SetInterruptHandler: [wreg]
  7704                           
  7705                           
  7706                           ;mcc_generated_files/pin_manager.c: 208:     IOCBF3_InterruptHandler = InterruptHandler;
  7707  0CBD  0020               	movlb	0	; select bank0
  7708  0CBE  0821               	movf	IOCBF3_SetInterruptHandler@InterruptHandler+1,w
  7709  0CBF  0021               	movlb	1	; select bank1
  7710  0CC0  00A7               	movwf	(_IOCBF3_InterruptHandler+1)^(0+128)
  7711  0CC1  0020               	movlb	0	; select bank0
  7712  0CC2  0820               	movf	IOCBF3_SetInterruptHandler@InterruptHandler,w
  7713  0CC3  0021               	movlb	1	; select bank1
  7714  0CC4  00A6               	movwf	_IOCBF3_InterruptHandler^(0+128)
  7715  0CC5                     l446:
  7716  0CC5  0008               	return
  7717  0CC6                     __end_of_IOCBF3_SetInterruptHandler:
  7718                           
  7719                           	psect	text29
  7720  0CB4                     __ptext29:	
  7721 ;; *************** function _IOCBF0_SetInterruptHandler *****************
  7722 ;; Defined at:
  7723 ;;		line 177 in file "mcc_generated_files/pin_manager.c"
  7724 ;; Parameters:    Size  Location     Type
  7725 ;;  InterruptHan    2    0[BANK0 ] PTR FTN()void 
  7726 ;;		 -> sensor1(1), IOCBF0_DefaultInterruptHandler(1), 
  7727 ;; Auto vars:     Size  Location     Type
  7728 ;;		None
  7729 ;; Return value:  Size  Location     Type
  7730 ;;                  1    wreg      void 
  7731 ;; Registers used:
  7732 ;;		wreg
  7733 ;; Tracked objects:
  7734 ;;		On entry : 0/0
  7735 ;;		On exit  : 0/0
  7736 ;;		Unchanged: 0/0
  7737 ;; Data sizes:     COMMON   BANK0   BANK1   BANK2   BANK3   BANK4
  7738 ;;      Params:         0       2       0       0       0       0
  7739 ;;      Locals:         0       0       0       0       0       0
  7740 ;;      Temps:          0       0       0       0       0       0
  7741 ;;      Totals:         0       2       0       0       0       0
  7742 ;;Total ram usage:        2 bytes
  7743 ;; Hardware stack levels used:    1
  7744 ;; Hardware stack levels required when called:    4
  7745 ;; This function calls:
  7746 ;;		Nothing
  7747 ;; This function is called by:
  7748 ;;		_PIN_MANAGER_Initialize
  7749 ;;		_main
  7750 ;; This function uses a non-reentrant model
  7751 ;;
  7752                           
  7753                           
  7754                           ;psect for function _IOCBF0_SetInterruptHandler
  7755  0CB4                     _IOCBF0_SetInterruptHandler:
  7756  0CB4                     l3076:	
  7757                           ;incstack = 0
  7758                           ; Regs used in _IOCBF0_SetInterruptHandler: [wreg]
  7759                           
  7760                           
  7761                           ;mcc_generated_files/pin_manager.c: 178:     IOCBF0_InterruptHandler = InterruptHandler;
  7762  0CB4  0020               	movlb	0	; select bank0
  7763  0CB5  0821               	movf	IOCBF0_SetInterruptHandler@InterruptHandler+1,w
  7764  0CB6  0021               	movlb	1	; select bank1
  7765  0CB7  00A9               	movwf	(_IOCBF0_InterruptHandler+1)^(0+128)
  7766  0CB8  0020               	movlb	0	; select bank0
  7767  0CB9  0820               	movf	IOCBF0_SetInterruptHandler@InterruptHandler,w
  7768  0CBA  0021               	movlb	1	; select bank1
  7769  0CBB  00A8               	movwf	_IOCBF0_InterruptHandler^(0+128)
  7770  0CBC                     l436:
  7771  0CBC  0008               	return
  7772  0CBD                     __end_of_IOCBF0_SetInterruptHandler:
  7773                           
  7774                           	psect	text30
  7775  0C79                     __ptext30:	
  7776 ;; *************** function _OSCILLATOR_Initialize *****************
  7777 ;; Defined at:
  7778 ;;		line 68 in file "mcc_generated_files/mcc.c"
  7779 ;; Parameters:    Size  Location     Type
  7780 ;;		None
  7781 ;; Auto vars:     Size  Location     Type
  7782 ;;		None
  7783 ;; Return value:  Size  Location     Type
  7784 ;;                  1    wreg      void 
  7785 ;; Registers used:
  7786 ;;		wreg, status,2
  7787 ;; Tracked objects:
  7788 ;;		On entry : 0/0
  7789 ;;		On exit  : 0/0
  7790 ;;		Unchanged: 0/0
  7791 ;; Data sizes:     COMMON   BANK0   BANK1   BANK2   BANK3   BANK4
  7792 ;;      Params:         0       0       0       0       0       0
  7793 ;;      Locals:         0       0       0       0       0       0
  7794 ;;      Temps:          0       0       0       0       0       0
  7795 ;;      Totals:         0       0       0       0       0       0
  7796 ;;Total ram usage:        0 bytes
  7797 ;; Hardware stack levels used:    1
  7798 ;; Hardware stack levels required when called:    4
  7799 ;; This function calls:
  7800 ;;		Nothing
  7801 ;; This function is called by:
  7802 ;;		_SYSTEM_Initialize
  7803 ;; This function uses a non-reentrant model
  7804 ;;
  7805                           
  7806                           
  7807                           ;psect for function _OSCILLATOR_Initialize
  7808  0C79                     _OSCILLATOR_Initialize:
  7809  0C79                     l3180:	
  7810                           ;incstack = 0
  7811                           ; Regs used in _OSCILLATOR_Initialize: [wreg+status,2]
  7812                           
  7813                           
  7814                           ;mcc_generated_files/mcc.c: 71:     OSCCON = 0x70;
  7815  0C79  3070               	movlw	112
  7816  0C7A  0021               	movlb	1	; select bank1
  7817  0C7B  0099               	movwf	25	;volatile
  7818  0C7C                     l3182:
  7819                           
  7820                           ;mcc_generated_files/mcc.c: 73:     OSCTUNE = 0x00;
  7821  0C7C  0198               	clrf	24	;volatile
  7822  0C7D                     l3184:
  7823                           
  7824                           ;mcc_generated_files/mcc.c: 75:     BORCON = 0x00;
  7825  0C7D  0022               	movlb	2	; select bank2
  7826  0C7E  0196               	clrf	22	;volatile
  7827  0C7F                     l128:
  7828  0C7F  0008               	return
  7829  0C80                     __end_of_OSCILLATOR_Initialize:
  7830                           
  7831                           	psect	text31
  7832  0C54                     __ptext31:	
  7833 ;; *************** function _FVR_Initialize *****************
  7834 ;; Defined at:
  7835 ;;		line 58 in file "mcc_generated_files/fvr.c"
  7836 ;; Parameters:    Size  Location     Type
  7837 ;;		None
  7838 ;; Auto vars:     Size  Location     Type
  7839 ;;		None
  7840 ;; Return value:  Size  Location     Type
  7841 ;;                  1    wreg      void 
  7842 ;; Registers used:
  7843 ;;		wreg
  7844 ;; Tracked objects:
  7845 ;;		On entry : 0/0
  7846 ;;		On exit  : 0/0
  7847 ;;		Unchanged: 0/0
  7848 ;; Data sizes:     COMMON   BANK0   BANK1   BANK2   BANK3   BANK4
  7849 ;;      Params:         0       0       0       0       0       0
  7850 ;;      Locals:         0       0       0       0       0       0
  7851 ;;      Temps:          0       0       0       0       0       0
  7852 ;;      Totals:         0       0       0       0       0       0
  7853 ;;Total ram usage:        0 bytes
  7854 ;; Hardware stack levels used:    1
  7855 ;; Hardware stack levels required when called:    4
  7856 ;; This function calls:
  7857 ;;		Nothing
  7858 ;; This function is called by:
  7859 ;;		_SYSTEM_Initialize
  7860 ;; This function uses a non-reentrant model
  7861 ;;
  7862                           
  7863                           
  7864                           ;psect for function _FVR_Initialize
  7865  0C54                     _FVR_Initialize:
  7866  0C54                     l3188:	
  7867                           ;incstack = 0
  7868                           ; Regs used in _FVR_Initialize: [wreg]
  7869                           
  7870                           
  7871                           ;mcc_generated_files/fvr.c: 61:     FVRCON = 0x81;
  7872  0C54  3081               	movlw	129
  7873  0C55  0022               	movlb	2	; select bank2
  7874  0C56  0097               	movwf	23	;volatile
  7875  0C57                     l328:
  7876  0C57  0008               	return
  7877  0C58                     __end_of_FVR_Initialize:
  7878                           
  7879                           	psect	text32
  7880  07D9                     __ptext32:	
  7881 ;; *************** function _EUSART_Initialize *****************
  7882 ;; Defined at:
  7883 ;;		line 66 in file "mcc_generated_files/eusart.c"
  7884 ;; Parameters:    Size  Location     Type
  7885 ;;		None
  7886 ;; Auto vars:     Size  Location     Type
  7887 ;;		None
  7888 ;; Return value:  Size  Location     Type
  7889 ;;                  1    wreg      void 
  7890 ;; Registers used:
  7891 ;;		wreg, status,2, status,0, pclath, cstack
  7892 ;; Tracked objects:
  7893 ;;		On entry : 0/0
  7894 ;;		On exit  : 0/0
  7895 ;;		Unchanged: 0/0
  7896 ;; Data sizes:     COMMON   BANK0   BANK1   BANK2   BANK3   BANK4
  7897 ;;      Params:         0       0       0       0       0       0
  7898 ;;      Locals:         0       0       0       0       0       0
  7899 ;;      Temps:          0       0       0       0       0       0
  7900 ;;      Totals:         0       0       0       0       0       0
  7901 ;;Total ram usage:        0 bytes
  7902 ;; Hardware stack levels used:    1
  7903 ;; Hardware stack levels required when called:    5
  7904 ;; This function calls:
  7905 ;;		_EUSART_SetErrorHandler
  7906 ;;		_EUSART_SetFramingErrorHandler
  7907 ;;		_EUSART_SetOverrunErrorHandler
  7908 ;; This function is called by:
  7909 ;;		_SYSTEM_Initialize
  7910 ;; This function uses a non-reentrant model
  7911 ;;
  7912                           
  7913                           
  7914                           ;psect for function _EUSART_Initialize
  7915  07D9                     _EUSART_Initialize:
  7916  07D9                     l3102:	
  7917                           ;incstack = 0
  7918                           ; Regs used in _EUSART_Initialize: [wreg+status,2+status,0+pclath+cstack]
  7919                           
  7920                           
  7921                           ;mcc_generated_files/eusart.c: 71:     BAUDCON = 0x08;
  7922  07D9  3008               	movlw	8
  7923  07DA  0023               	movlb	3	; select bank3
  7924  07DB  009F               	movwf	31	;volatile
  7925                           
  7926                           ;mcc_generated_files/eusart.c: 74:     RCSTA = 0x90;
  7927  07DC  3090               	movlw	144
  7928  07DD  009D               	movwf	29	;volatile
  7929                           
  7930                           ;mcc_generated_files/eusart.c: 77:     TXSTA = 0x24;
  7931  07DE  3024               	movlw	36
  7932  07DF  009E               	movwf	30	;volatile
  7933                           
  7934                           ;mcc_generated_files/eusart.c: 80:     SPBRGL = 0x67;
  7935  07E0  3067               	movlw	103
  7936  07E1  009B               	movwf	27	;volatile
  7937  07E2                     l3104:
  7938                           
  7939                           ;mcc_generated_files/eusart.c: 83:     SPBRGH = 0x00;
  7940  07E2  019C               	clrf	28	;volatile
  7941  07E3                     l3106:
  7942                           
  7943                           ;mcc_generated_files/eusart.c: 86:     EUSART_SetFramingErrorHandler(EUSART_DefaultFrami
      +                          ngErrorHandler);
  7944  07E3  3000               	movlw	0
  7945  07E4  0020               	movlb	0	; select bank0
  7946  07E5  00A0               	movwf	EUSART_SetFramingErrorHandler@interruptHandler
  7947  07E6  3000               	movlw	0
  7948  07E7  00A1               	movwf	EUSART_SetFramingErrorHandler@interruptHandler+1
  7949  07E8  318C  24A2  3187   	fcall	_EUSART_SetFramingErrorHandler
  7950  07EB                     l3108:
  7951                           
  7952                           ;mcc_generated_files/eusart.c: 87:     EUSART_SetOverrunErrorHandler(EUSART_DefaultOverr
      +                          unErrorHandler);
  7953  07EB  3000               	movlw	0
  7954  07EC  0020               	movlb	0	; select bank0
  7955  07ED  00A0               	movwf	EUSART_SetOverrunErrorHandler@interruptHandler
  7956  07EE  3000               	movlw	0
  7957  07EF  00A1               	movwf	EUSART_SetOverrunErrorHandler@interruptHandler+1
  7958  07F0  318C  24AB  3187   	fcall	_EUSART_SetOverrunErrorHandler
  7959  07F3                     l3110:
  7960                           
  7961                           ;mcc_generated_files/eusart.c: 88:     EUSART_SetErrorHandler(EUSART_DefaultErrorHandler
      +                          );
  7962  07F3  3000               	movlw	0
  7963  07F4  0020               	movlb	0	; select bank0
  7964  07F5  00A0               	movwf	EUSART_SetErrorHandler@interruptHandler
  7965  07F6  3000               	movlw	0
  7966  07F7  00A1               	movwf	EUSART_SetErrorHandler@interruptHandler+1
  7967  07F8  318C  2499  3187   	fcall	_EUSART_SetErrorHandler
  7968  07FB                     l3112:
  7969                           
  7970                           ;mcc_generated_files/eusart.c: 90:     eusartRxLastError.status = 0;
  7971  07FB  0020               	movlb	0	; select bank0
  7972  07FC  01EE               	clrf	_eusartRxLastError	;volatile
  7973  07FD                     l43:
  7974  07FD  0008               	return
  7975  07FE                     __end_of_EUSART_Initialize:
  7976                           
  7977                           	psect	text33
  7978  0CAB                     __ptext33:	
  7979 ;; *************** function _EUSART_SetOverrunErrorHandler *****************
  7980 ;; Defined at:
  7981 ;;		line 161 in file "mcc_generated_files/eusart.c"
  7982 ;; Parameters:    Size  Location     Type
  7983 ;;  interruptHan    2    0[BANK0 ] PTR FTN()void 
  7984 ;;		 -> EUSART_DefaultOverrunErrorHandler(1), 
  7985 ;; Auto vars:     Size  Location     Type
  7986 ;;		None
  7987 ;; Return value:  Size  Location     Type
  7988 ;;                  1    wreg      void 
  7989 ;; Registers used:
  7990 ;;		wreg
  7991 ;; Tracked objects:
  7992 ;;		On entry : 0/0
  7993 ;;		On exit  : 0/0
  7994 ;;		Unchanged: 0/0
  7995 ;; Data sizes:     COMMON   BANK0   BANK1   BANK2   BANK3   BANK4
  7996 ;;      Params:         0       2       0       0       0       0
  7997 ;;      Locals:         0       0       0       0       0       0
  7998 ;;      Temps:          0       0       0       0       0       0
  7999 ;;      Totals:         0       2       0       0       0       0
  8000 ;;Total ram usage:        2 bytes
  8001 ;; Hardware stack levels used:    1
  8002 ;; Hardware stack levels required when called:    4
  8003 ;; This function calls:
  8004 ;;		Nothing
  8005 ;; This function is called by:
  8006 ;;		_EUSART_Initialize
  8007 ;; This function uses a non-reentrant model
  8008 ;;
  8009                           
  8010                           
  8011                           ;psect for function _EUSART_SetOverrunErrorHandler
  8012  0CAB                     _EUSART_SetOverrunErrorHandler:
  8013  0CAB                     l3068:	
  8014                           ;incstack = 0
  8015                           ; Regs used in _EUSART_SetOverrunErrorHandler: [wreg]
  8016                           
  8017                           
  8018                           ;mcc_generated_files/eusart.c: 162:     EUSART_OverrunErrorHandler = interruptHandler;
  8019  0CAB  0020               	movlb	0	; select bank0
  8020  0CAC  0821               	movf	EUSART_SetOverrunErrorHandler@interruptHandler+1,w
  8021  0CAD  0021               	movlb	1	; select bank1
  8022  0CAE  00B3               	movwf	(_EUSART_OverrunErrorHandler+1)^(0+128)
  8023  0CAF  0020               	movlb	0	; select bank0
  8024  0CB0  0820               	movf	EUSART_SetOverrunErrorHandler@interruptHandler,w
  8025  0CB1  0021               	movlb	1	; select bank1
  8026  0CB2  00B2               	movwf	_EUSART_OverrunErrorHandler^(0+128)
  8027  0CB3                     l85:
  8028  0CB3  0008               	return
  8029  0CB4                     __end_of_EUSART_SetOverrunErrorHandler:
  8030                           
  8031                           	psect	text34
  8032  0CA2                     __ptext34:	
  8033 ;; *************** function _EUSART_SetFramingErrorHandler *****************
  8034 ;; Defined at:
  8035 ;;		line 157 in file "mcc_generated_files/eusart.c"
  8036 ;; Parameters:    Size  Location     Type
  8037 ;;  interruptHan    2    0[BANK0 ] PTR FTN()void 
  8038 ;;		 -> EUSART_DefaultFramingErrorHandler(1), 
  8039 ;; Auto vars:     Size  Location     Type
  8040 ;;		None
  8041 ;; Return value:  Size  Location     Type
  8042 ;;                  1    wreg      void 
  8043 ;; Registers used:
  8044 ;;		wreg
  8045 ;; Tracked objects:
  8046 ;;		On entry : 0/0
  8047 ;;		On exit  : 0/0
  8048 ;;		Unchanged: 0/0
  8049 ;; Data sizes:     COMMON   BANK0   BANK1   BANK2   BANK3   BANK4
  8050 ;;      Params:         0       2       0       0       0       0
  8051 ;;      Locals:         0       0       0       0       0       0
  8052 ;;      Temps:          0       0       0       0       0       0
  8053 ;;      Totals:         0       2       0       0       0       0
  8054 ;;Total ram usage:        2 bytes
  8055 ;; Hardware stack levels used:    1
  8056 ;; Hardware stack levels required when called:    4
  8057 ;; This function calls:
  8058 ;;		Nothing
  8059 ;; This function is called by:
  8060 ;;		_EUSART_Initialize
  8061 ;; This function uses a non-reentrant model
  8062 ;;
  8063                           
  8064                           
  8065                           ;psect for function _EUSART_SetFramingErrorHandler
  8066  0CA2                     _EUSART_SetFramingErrorHandler:
  8067  0CA2                     l3066:	
  8068                           ;incstack = 0
  8069                           ; Regs used in _EUSART_SetFramingErrorHandler: [wreg]
  8070                           
  8071                           
  8072                           ;mcc_generated_files/eusart.c: 158:     EUSART_FramingErrorHandler = interruptHandler;
  8073  0CA2  0020               	movlb	0	; select bank0
  8074  0CA3  0821               	movf	EUSART_SetFramingErrorHandler@interruptHandler+1,w
  8075  0CA4  0021               	movlb	1	; select bank1
  8076  0CA5  00B5               	movwf	(_EUSART_FramingErrorHandler+1)^(0+128)
  8077  0CA6  0020               	movlb	0	; select bank0
  8078  0CA7  0820               	movf	EUSART_SetFramingErrorHandler@interruptHandler,w
  8079  0CA8  0021               	movlb	1	; select bank1
  8080  0CA9  00B4               	movwf	_EUSART_FramingErrorHandler^(0+128)
  8081  0CAA                     l82:
  8082  0CAA  0008               	return
  8083  0CAB                     __end_of_EUSART_SetFramingErrorHandler:
  8084                           
  8085                           	psect	text35
  8086  0C99                     __ptext35:	
  8087 ;; *************** function _EUSART_SetErrorHandler *****************
  8088 ;; Defined at:
  8089 ;;		line 165 in file "mcc_generated_files/eusart.c"
  8090 ;; Parameters:    Size  Location     Type
  8091 ;;  interruptHan    2    0[BANK0 ] PTR FTN()void 
  8092 ;;		 -> EUSART_DefaultErrorHandler(1), 
  8093 ;; Auto vars:     Size  Location     Type
  8094 ;;		None
  8095 ;; Return value:  Size  Location     Type
  8096 ;;                  1    wreg      void 
  8097 ;; Registers used:
  8098 ;;		wreg
  8099 ;; Tracked objects:
  8100 ;;		On entry : 0/0
  8101 ;;		On exit  : 0/0
  8102 ;;		Unchanged: 0/0
  8103 ;; Data sizes:     COMMON   BANK0   BANK1   BANK2   BANK3   BANK4
  8104 ;;      Params:         0       2       0       0       0       0
  8105 ;;      Locals:         0       0       0       0       0       0
  8106 ;;      Temps:          0       0       0       0       0       0
  8107 ;;      Totals:         0       2       0       0       0       0
  8108 ;;Total ram usage:        2 bytes
  8109 ;; Hardware stack levels used:    1
  8110 ;; Hardware stack levels required when called:    4
  8111 ;; This function calls:
  8112 ;;		Nothing
  8113 ;; This function is called by:
  8114 ;;		_EUSART_Initialize
  8115 ;; This function uses a non-reentrant model
  8116 ;;
  8117                           
  8118                           
  8119                           ;psect for function _EUSART_SetErrorHandler
  8120  0C99                     _EUSART_SetErrorHandler:
  8121  0C99                     l3070:	
  8122                           ;incstack = 0
  8123                           ; Regs used in _EUSART_SetErrorHandler: [wreg]
  8124                           
  8125                           
  8126                           ;mcc_generated_files/eusart.c: 166:     EUSART_ErrorHandler = interruptHandler;
  8127  0C99  0020               	movlb	0	; select bank0
  8128  0C9A  0821               	movf	EUSART_SetErrorHandler@interruptHandler+1,w
  8129  0C9B  0021               	movlb	1	; select bank1
  8130  0C9C  00B1               	movwf	(_EUSART_ErrorHandler+1)^(0+128)
  8131  0C9D  0020               	movlb	0	; select bank0
  8132  0C9E  0820               	movf	EUSART_SetErrorHandler@interruptHandler,w
  8133  0C9F  0021               	movlb	1	; select bank1
  8134  0CA0  00B0               	movwf	_EUSART_ErrorHandler^(0+128)
  8135  0CA1                     l88:
  8136  0CA1  0008               	return
  8137  0CA2                     __end_of_EUSART_SetErrorHandler:
  8138                           
  8139                           	psect	text36
  8140  0CFD                     __ptext36:	
  8141 ;; *************** function _EPWM1_Initialize *****************
  8142 ;; Defined at:
  8143 ;;		line 64 in file "mcc_generated_files/epwm1.c"
  8144 ;; Parameters:    Size  Location     Type
  8145 ;;		None
  8146 ;; Auto vars:     Size  Location     Type
  8147 ;;		None
  8148 ;; Return value:  Size  Location     Type
  8149 ;;                  1    wreg      void 
  8150 ;; Registers used:
  8151 ;;		wreg, status,2, status,0
  8152 ;; Tracked objects:
  8153 ;;		On entry : 0/0
  8154 ;;		On exit  : 0/0
  8155 ;;		Unchanged: 0/0
  8156 ;; Data sizes:     COMMON   BANK0   BANK1   BANK2   BANK3   BANK4
  8157 ;;      Params:         0       0       0       0       0       0
  8158 ;;      Locals:         0       0       0       0       0       0
  8159 ;;      Temps:          0       0       0       0       0       0
  8160 ;;      Totals:         0       0       0       0       0       0
  8161 ;;Total ram usage:        0 bytes
  8162 ;; Hardware stack levels used:    1
  8163 ;; Hardware stack levels required when called:    4
  8164 ;; This function calls:
  8165 ;;		Nothing
  8166 ;; This function is called by:
  8167 ;;		_SYSTEM_Initialize
  8168 ;; This function uses a non-reentrant model
  8169 ;;
  8170                           
  8171                           
  8172                           ;psect for function _EPWM1_Initialize
  8173  0CFD                     _EPWM1_Initialize:
  8174  0CFD                     l3240:	
  8175                           ;incstack = 0
  8176                           ; Regs used in _EPWM1_Initialize: [wreg+status,2+status,0]
  8177                           
  8178                           
  8179                           ;mcc_generated_files/epwm1.c: 69:  CCP1CON = 0x3D;
  8180  0CFD  303D               	movlw	61
  8181  0CFE  0025               	movlb	5	; select bank5
  8182  0CFF  0093               	movwf	19	;volatile
  8183  0D00                     l3242:
  8184                           
  8185                           ;mcc_generated_files/epwm1.c: 72:  ECCP1AS = 0x00;
  8186  0D00  0195               	clrf	21	;volatile
  8187  0D01                     l3244:
  8188                           
  8189                           ;mcc_generated_files/epwm1.c: 75:  PWM1CON = 0x80;
  8190  0D01  3080               	movlw	128
  8191  0D02  0094               	movwf	20	;volatile
  8192  0D03                     l3246:
  8193                           
  8194                           ;mcc_generated_files/epwm1.c: 78:  PSTR1CON = 0x0C;
  8195  0D03  300C               	movlw	12
  8196  0D04  0096               	movwf	22	;volatile
  8197  0D05                     l3248:
  8198                           
  8199                           ;mcc_generated_files/epwm1.c: 81:  CCPR1H = 0x00;
  8200  0D05  0192               	clrf	18	;volatile
  8201                           
  8202                           ;mcc_generated_files/epwm1.c: 84:  CCPR1L = 0x7F;
  8203  0D06  307F               	movlw	127
  8204  0D07  0091               	movwf	17	;volatile
  8205  0D08                     l3250:
  8206                           
  8207                           ;mcc_generated_files/epwm1.c: 87:  CCPTMRS0bits.C1TSEL = 0x0;
  8208  0D08  30FC               	movlw	-4
  8209  0D09  059E               	andwf	30,f	;volatile
  8210  0D0A                     l639:
  8211  0D0A  0008               	return
  8212  0D0B                     __end_of_EPWM1_Initialize:
  8213                           
  8214                           	psect	text37
  8215  0DA4                     __ptext37:	
  8216 ;; *************** function _CCP4_Initialize *****************
  8217 ;; Defined at:
  8218 ;;		line 65 in file "mcc_generated_files/ccp4.c"
  8219 ;; Parameters:    Size  Location     Type
  8220 ;;		None
  8221 ;; Auto vars:     Size  Location     Type
  8222 ;;		None
  8223 ;; Return value:  Size  Location     Type
  8224 ;;                  1    wreg      void 
  8225 ;; Registers used:
  8226 ;;		wreg, status,2, status,0, pclath, cstack
  8227 ;; Tracked objects:
  8228 ;;		On entry : 0/0
  8229 ;;		On exit  : 0/0
  8230 ;;		Unchanged: 0/0
  8231 ;; Data sizes:     COMMON   BANK0   BANK1   BANK2   BANK3   BANK4
  8232 ;;      Params:         0       0       0       0       0       0
  8233 ;;      Locals:         0       0       0       0       0       0
  8234 ;;      Temps:          0       0       0       0       0       0
  8235 ;;      Totals:         0       0       0       0       0       0
  8236 ;;Total ram usage:        0 bytes
  8237 ;; Hardware stack levels used:    1
  8238 ;; Hardware stack levels required when called:    5
  8239 ;; This function calls:
  8240 ;;		_CCP4_SetCallBack
  8241 ;; This function is called by:
  8242 ;;		_SYSTEM_Initialize
  8243 ;; This function uses a non-reentrant model
  8244 ;;
  8245                           
  8246                           
  8247                           ;psect for function _CCP4_Initialize
  8248  0DA4                     _CCP4_Initialize:
  8249  0DA4                     l3222:	
  8250                           ;incstack = 0
  8251                           ; Regs used in _CCP4_Initialize: [wreg+status,2+status,0+pclath+cstack]
  8252                           
  8253                           
  8254                           ;mcc_generated_files/ccp4.c: 70:  CCP4CON = 0x05;
  8255  0DA4  3005               	movlw	5
  8256  0DA5  0026               	movlb	6	; select bank6
  8257  0DA6  009A               	movwf	26	;volatile
  8258  0DA7                     l3224:
  8259                           
  8260                           ;mcc_generated_files/ccp4.c: 73:  CCPR4L = 0x00;
  8261  0DA7  0198               	clrf	24	;volatile
  8262  0DA8                     l3226:
  8263                           
  8264                           ;mcc_generated_files/ccp4.c: 76:  CCPR4H = 0x00;
  8265  0DA8  0199               	clrf	25	;volatile
  8266  0DA9                     l3228:
  8267                           
  8268                           ;mcc_generated_files/ccp4.c: 79:     CCP4_SetCallBack(CCP4_DefaultCallBack);
  8269  0DA9  304A               	movlw	low _CCP4_DefaultCallBack
  8270  0DAA  0020               	movlb	0	; select bank0
  8271  0DAB  00A0               	movwf	CCP4_SetCallBack@customCallBack
  8272  0DAC  300C               	movlw	high _CCP4_DefaultCallBack
  8273  0DAD  00A1               	movwf	CCP4_SetCallBack@customCallBack+1
  8274  0DAE  318C  2490  318D   	fcall	_CCP4_SetCallBack
  8275  0DB1                     l3230:
  8276                           
  8277                           ;mcc_generated_files/ccp4.c: 83:     PIR3bits.CCP4IF = 0;
  8278  0DB1  0020               	movlb	0	; select bank0
  8279  0DB2  1293               	bcf	19,5	;volatile
  8280  0DB3                     l3232:
  8281                           
  8282                           ;mcc_generated_files/ccp4.c: 86:     PIE3bits.CCP4IE = 1;
  8283  0DB3  0021               	movlb	1	; select bank1
  8284  0DB4  1693               	bsf	19,5	;volatile
  8285  0DB5                     l351:
  8286  0DB5  0008               	return
  8287  0DB6                     __end_of_CCP4_Initialize:
  8288                           
  8289                           	psect	text38
  8290  0C90                     __ptext38:	
  8291 ;; *************** function _CCP4_SetCallBack *****************
  8292 ;; Defined at:
  8293 ;;		line 104 in file "mcc_generated_files/ccp4.c"
  8294 ;; Parameters:    Size  Location     Type
  8295 ;;  customCallBa    2    0[BANK0 ] PTR FTN(unsigned short ,
  8296 ;;		 -> get_pulse(1), CCP4_DefaultCallBack(1), 
  8297 ;; Auto vars:     Size  Location     Type
  8298 ;;		None
  8299 ;; Return value:  Size  Location     Type
  8300 ;;                  1    wreg      void 
  8301 ;; Registers used:
  8302 ;;		wreg
  8303 ;; Tracked objects:
  8304 ;;		On entry : 0/0
  8305 ;;		On exit  : 0/0
  8306 ;;		Unchanged: 0/0
  8307 ;; Data sizes:     COMMON   BANK0   BANK1   BANK2   BANK3   BANK4
  8308 ;;      Params:         0       2       0       0       0       0
  8309 ;;      Locals:         0       0       0       0       0       0
  8310 ;;      Temps:          0       0       0       0       0       0
  8311 ;;      Totals:         0       2       0       0       0       0
  8312 ;;Total ram usage:        2 bytes
  8313 ;; Hardware stack levels used:    1
  8314 ;; Hardware stack levels required when called:    4
  8315 ;; This function calls:
  8316 ;;		Nothing
  8317 ;; This function is called by:
  8318 ;;		_CCP4_Initialize
  8319 ;;		_main
  8320 ;; This function uses a non-reentrant model
  8321 ;;
  8322                           
  8323                           
  8324                           ;psect for function _CCP4_SetCallBack
  8325  0C90                     _CCP4_SetCallBack:
  8326  0C90                     l3074:	
  8327                           ;incstack = 0
  8328                           ; Regs used in _CCP4_SetCallBack: [wreg]
  8329                           
  8330                           
  8331                           ;mcc_generated_files/ccp4.c: 105:     CCP4_CallBack = customCallBack;
  8332  0C90  0020               	movlb	0	; select bank0
  8333  0C91  0821               	movf	CCP4_SetCallBack@customCallBack+1,w
  8334  0C92  0021               	movlb	1	; select bank1
  8335  0C93  00AB               	movwf	(_CCP4_CallBack+1)^(0+128)
  8336  0C94  0020               	movlb	0	; select bank0
  8337  0C95  0820               	movf	CCP4_SetCallBack@customCallBack,w
  8338  0C96  0021               	movlb	1	; select bank1
  8339  0C97  00AA               	movwf	_CCP4_CallBack^(0+128)
  8340  0C98                     l357:
  8341  0C98  0008               	return
  8342  0C99                     __end_of_CCP4_SetCallBack:
  8343                           
  8344                           	psect	text39
  8345  0C80                     __ptext39:	
  8346 ;; *************** function _ADC_Initialize *****************
  8347 ;; Defined at:
  8348 ;;		line 67 in file "mcc_generated_files/adc.c"
  8349 ;; Parameters:    Size  Location     Type
  8350 ;;		None
  8351 ;; Auto vars:     Size  Location     Type
  8352 ;;		None
  8353 ;; Return value:  Size  Location     Type
  8354 ;;                  1    wreg      void 
  8355 ;; Registers used:
  8356 ;;		wreg, status,2
  8357 ;; Tracked objects:
  8358 ;;		On entry : 0/0
  8359 ;;		On exit  : 0/0
  8360 ;;		Unchanged: 0/0
  8361 ;; Data sizes:     COMMON   BANK0   BANK1   BANK2   BANK3   BANK4
  8362 ;;      Params:         0       0       0       0       0       0
  8363 ;;      Locals:         0       0       0       0       0       0
  8364 ;;      Temps:          0       0       0       0       0       0
  8365 ;;      Totals:         0       0       0       0       0       0
  8366 ;;Total ram usage:        0 bytes
  8367 ;; Hardware stack levels used:    1
  8368 ;; Hardware stack levels required when called:    4
  8369 ;; This function calls:
  8370 ;;		Nothing
  8371 ;; This function is called by:
  8372 ;;		_SYSTEM_Initialize
  8373 ;; This function uses a non-reentrant model
  8374 ;;
  8375                           
  8376                           
  8377                           ;psect for function _ADC_Initialize
  8378  0C80                     _ADC_Initialize:
  8379  0C80                     l3234:	
  8380                           ;incstack = 0
  8381                           ; Regs used in _ADC_Initialize: [wreg+status,2]
  8382                           
  8383                           
  8384                           ;mcc_generated_files/adc.c: 72:     ADCON1 = 0xD3;
  8385  0C80  30D3               	movlw	211
  8386  0C81  0021               	movlb	1	; select bank1
  8387  0C82  009E               	movwf	30	;volatile
  8388  0C83                     l3236:
  8389                           
  8390                           ;mcc_generated_files/adc.c: 75:     ADRESL = 0x00;
  8391  0C83  019B               	clrf	27	;volatile
  8392  0C84                     l3238:
  8393                           
  8394                           ;mcc_generated_files/adc.c: 78:     ADRESH = 0x00;
  8395  0C84  019C               	clrf	28	;volatile
  8396                           
  8397                           ;mcc_generated_files/adc.c: 81:     ADCON0 = 0x01;
  8398  0C85  3001               	movlw	1
  8399  0C86  009D               	movwf	29	;volatile
  8400  0C87                     l271:
  8401  0C87  0008               	return
  8402  0C88                     __end_of_ADC_Initialize:
  8403                           
  8404                           	psect	intentry
  8405  0004                     __pintentry:	
  8406 ;; *************** function _INTERRUPT_InterruptManager *****************
  8407 ;; Defined at:
  8408 ;;		line 52 in file "mcc_generated_files/interrupt_manager.c"
  8409 ;; Parameters:    Size  Location     Type
  8410 ;;		None
  8411 ;; Auto vars:     Size  Location     Type
  8412 ;;		None
  8413 ;; Return value:  Size  Location     Type
  8414 ;;                  1    wreg      void 
  8415 ;; Registers used:
  8416 ;;		wreg, fsr1l, fsr1h, status,2, status,0, pclath, cstack
  8417 ;; Tracked objects:
  8418 ;;		On entry : 0/0
  8419 ;;		On exit  : 0/0
  8420 ;;		Unchanged: 0/0
  8421 ;; Data sizes:     COMMON   BANK0   BANK1   BANK2   BANK3   BANK4
  8422 ;;      Params:         0       0       0       0       0       0
  8423 ;;      Locals:         0       0       0       0       0       0
  8424 ;;      Temps:          0       0       0       0       0       0
  8425 ;;      Totals:         0       0       0       0       0       0
  8426 ;;Total ram usage:        0 bytes
  8427 ;; Hardware stack levels used:    1
  8428 ;; Hardware stack levels required when called:    3
  8429 ;; This function calls:
  8430 ;;		_CCP4_CaptureISR
  8431 ;;		_PIN_MANAGER_IOC
  8432 ;;		_TMR4_ISR
  8433 ;;		_TMR6_ISR
  8434 ;; This function is called by:
  8435 ;;		Interrupt level 1
  8436 ;; This function uses a non-reentrant model
  8437 ;;
  8438                           
  8439  0004                     _INTERRUPT_InterruptManager:
  8440                           
  8441                           ;incstack = 0
  8442  0004  147E               	bsf	int$flags,0	;set compiler interrupt flag (level 1)
  8443                           
  8444                           ; Regs used in _INTERRUPT_InterruptManager: [wreg+fsr1l+fsr1h+status,2+status,0+pclath+c
      +                          stack]
  8445  0005  3180               	pagesel	$
  8446  0006                     i1l3038:
  8447                           
  8448                           ;mcc_generated_files/interrupt_manager.c: 55:     if(INTCONbits.IOCIE == 1 && INTCONbits
      +                          .IOCIF == 1)
  8449  0006  1D8B               	btfss	11,3	;volatile
  8450  0007  2809               	goto	u249_21
  8451  0008  280A               	goto	u249_20
  8452  0009                     u249_21:
  8453  0009  2812               	goto	i1l311
  8454  000A                     u249_20:
  8455  000A                     i1l3040:
  8456  000A  1C0B               	btfss	11,0	;volatile
  8457  000B  280D               	goto	u250_21
  8458  000C  280E               	goto	u250_20
  8459  000D                     u250_21:
  8460  000D  2812               	goto	i1l311
  8461  000E                     u250_20:
  8462  000E                     i1l3042:
  8463                           
  8464                           ;mcc_generated_files/interrupt_manager.c: 56:     {;mcc_generated_files/interrupt_manage
      +                          r.c: 57:         PIN_MANAGER_IOC();
  8465  000E  318E  2661  3180   	fcall	_PIN_MANAGER_IOC
  8466                           
  8467                           ;mcc_generated_files/interrupt_manager.c: 58:     }
  8468  0011  2840               	goto	i1l321
  8469  0012                     i1l311:	
  8470                           ;mcc_generated_files/interrupt_manager.c: 59:     else if(INTCONbits.PEIE == 1)
  8471                           
  8472  0012  1F0B               	btfss	11,6	;volatile
  8473  0013  2815               	goto	u251_21
  8474  0014  2816               	goto	u251_20
  8475  0015                     u251_21:
  8476  0015  2840               	goto	i1l321
  8477  0016                     u251_20:
  8478  0016                     i1l3044:
  8479                           
  8480                           ;mcc_generated_files/interrupt_manager.c: 60:     {;mcc_generated_files/interrupt_manage
      +                          r.c: 61:         if(PIE3bits.TMR6IE == 1 && PIR3bits.TMR6IF == 1)
  8481  0016  0021               	movlb	1	; select bank1
  8482  0017  1D93               	btfss	19,3	;volatile
  8483  0018  281A               	goto	u252_21
  8484  0019  281B               	goto	u252_20
  8485  001A                     u252_21:
  8486  001A  2824               	goto	i1l314
  8487  001B                     u252_20:
  8488  001B                     i1l3046:
  8489  001B  0020               	movlb	0	; select bank0
  8490  001C  1D93               	btfss	19,3	;volatile
  8491  001D  281F               	goto	u253_21
  8492  001E  2820               	goto	u253_20
  8493  001F                     u253_21:
  8494  001F  2824               	goto	i1l314
  8495  0020                     u253_20:
  8496  0020                     i1l3048:
  8497                           
  8498                           ;mcc_generated_files/interrupt_manager.c: 62:         {;mcc_generated_files/interrupt_ma
      +                          nager.c: 63:             TMR6_ISR();
  8499  0020  318D  2565  3180   	fcall	_TMR6_ISR
  8500                           
  8501                           ;mcc_generated_files/interrupt_manager.c: 64:         }
  8502  0023  2840               	goto	i1l321
  8503  0024                     i1l314:	
  8504                           ;mcc_generated_files/interrupt_manager.c: 65:         else if(PIE3bits.CCP4IE == 1 && PI
      +                          R3bits.CCP4IF == 1)
  8505                           
  8506  0024  0021               	movlb	1	; select bank1
  8507  0025  1E93               	btfss	19,5	;volatile
  8508  0026  2828               	goto	u254_21
  8509  0027  2829               	goto	u254_20
  8510  0028                     u254_21:
  8511  0028  2832               	goto	i1l316
  8512  0029                     u254_20:
  8513  0029                     i1l3050:
  8514  0029  0020               	movlb	0	; select bank0
  8515  002A  1E93               	btfss	19,5	;volatile
  8516  002B  282D               	goto	u255_21
  8517  002C  282E               	goto	u255_20
  8518  002D                     u255_21:
  8519  002D  2832               	goto	i1l316
  8520  002E                     u255_20:
  8521  002E                     i1l3052:
  8522                           
  8523                           ;mcc_generated_files/interrupt_manager.c: 66:         {;mcc_generated_files/interrupt_ma
      +                          nager.c: 67:             CCP4_CaptureISR();
  8524  002E  318D  25F3  3180   	fcall	_CCP4_CaptureISR
  8525                           
  8526                           ;mcc_generated_files/interrupt_manager.c: 68:         }
  8527  0031  2840               	goto	i1l321
  8528  0032                     i1l316:	
  8529                           ;mcc_generated_files/interrupt_manager.c: 69:         else if(PIE3bits.TMR4IE == 1 && PI
      +                          R3bits.TMR4IF == 1)
  8530                           
  8531  0032  0021               	movlb	1	; select bank1
  8532  0033  1C93               	btfss	19,1	;volatile
  8533  0034  2836               	goto	u256_21
  8534  0035  2837               	goto	u256_20
  8535  0036                     u256_21:
  8536  0036  2840               	goto	i1l315
  8537  0037                     u256_20:
  8538  0037                     i1l3054:
  8539  0037  0020               	movlb	0	; select bank0
  8540  0038  1C93               	btfss	19,1	;volatile
  8541  0039  283B               	goto	u257_21
  8542  003A  283C               	goto	u257_20
  8543  003B                     u257_21:
  8544  003B  2840               	goto	i1l315
  8545  003C                     u257_20:
  8546  003C                     i1l3056:
  8547                           
  8548                           ;mcc_generated_files/interrupt_manager.c: 70:         {;mcc_generated_files/interrupt_ma
      +                          nager.c: 71:             TMR4_ISR();
  8549  003C  318D  2556  3180   	fcall	_TMR4_ISR
  8550                           
  8551                           ;mcc_generated_files/interrupt_manager.c: 72:         }
  8552  003F  2840               	goto	i1l321
  8553  0040                     i1l315:
  8554  0040                     i1l321:	
  8555                           ;mcc_generated_files/interrupt_manager.c: 77:     }
  8556                           
  8557  0040  107E               	bcf	int$flags,0	;clear compiler interrupt flag (level 1)
  8558  0041  0009               	retfie
  8559  0042                     __end_of_INTERRUPT_InterruptManager:
  8560                           
  8561                           	psect	text41
  8562  0D65                     __ptext41:	
  8563 ;; *************** function _TMR6_ISR *****************
  8564 ;; Defined at:
  8565 ;;		line 119 in file "mcc_generated_files/tmr6.c"
  8566 ;; Parameters:    Size  Location     Type
  8567 ;;		None
  8568 ;; Auto vars:     Size  Location     Type
  8569 ;;		None
  8570 ;; Return value:  Size  Location     Type
  8571 ;;                  1    wreg      void 
  8572 ;; Registers used:
  8573 ;;		wreg, status,2, status,0, pclath, cstack
  8574 ;; Tracked objects:
  8575 ;;		On entry : 0/0
  8576 ;;		On exit  : 0/0
  8577 ;;		Unchanged: 0/0
  8578 ;; Data sizes:     COMMON   BANK0   BANK1   BANK2   BANK3   BANK4
  8579 ;;      Params:         0       0       0       0       0       0
  8580 ;;      Locals:         0       0       0       0       0       0
  8581 ;;      Temps:          0       0       0       0       0       0
  8582 ;;      Totals:         0       0       0       0       0       0
  8583 ;;Total ram usage:        0 bytes
  8584 ;; Hardware stack levels used:    1
  8585 ;; Hardware stack levels required when called:    1
  8586 ;; This function calls:
  8587 ;;		Absolute function
  8588 ;;		_TMR6_DefaultInterruptHandler
  8589 ;;		_delay_2s
  8590 ;; This function is called by:
  8591 ;;		_INTERRUPT_InterruptManager
  8592 ;; This function uses a non-reentrant model
  8593 ;;
  8594                           
  8595                           
  8596                           ;psect for function _TMR6_ISR
  8597  0D65                     _TMR6_ISR:
  8598  0D65                     i1l2988:	
  8599                           ;incstack = 0
  8600                           ; Regs used in _TMR6_ISR: [wreg+status,2+status,0+pclath+cstack]
  8601                           
  8602                           
  8603                           ;mcc_generated_files/tmr6.c: 123:     PIR3bits.TMR6IF = 0;
  8604  0D65  0020               	movlb	0	; select bank0
  8605  0D66  1193               	bcf	19,3	;volatile
  8606  0D67                     i1l2990:
  8607                           
  8608                           ;mcc_generated_files/tmr6.c: 125:     if(TMR6_InterruptHandler)
  8609  0D67  0021               	movlb	1	; select bank1
  8610  0D68  0820               	movf	_TMR6_InterruptHandler^(0+128),w
  8611  0D69  0421               	iorwf	(_TMR6_InterruptHandler+1)^(0+128),w
  8612  0D6A  1903               	btfsc	3,2
  8613  0D6B  2D6D               	goto	u247_21
  8614  0D6C  2D6E               	goto	u247_20
  8615  0D6D                     u247_21:
  8616  0D6D  2D73               	goto	i1l682
  8617  0D6E                     u247_20:
  8618  0D6E                     i1l2992:
  8619                           
  8620                           ;mcc_generated_files/tmr6.c: 126:     {;mcc_generated_files/tmr6.c: 127:         TMR6_In
      +                          terruptHandler();
  8621  0D6E  0821               	movf	(_TMR6_InterruptHandler+1)^(0+128),w
  8622  0D6F  008A               	movwf	10
  8623  0D70  0820               	movf	_TMR6_InterruptHandler^(0+128),w
  8624  0D71  000A               	callw
  8625  0D72  318D               	pagesel	$
  8626  0D73                     i1l682:
  8627  0D73  0008               	return
  8628  0D74                     __end_of_TMR6_ISR:
  8629                           
  8630                           	psect	text42
  8631  07FE                     __ptext42:	
  8632 ;; *************** function _TMR6_DefaultInterruptHandler *****************
  8633 ;; Defined at:
  8634 ;;		line 136 in file "mcc_generated_files/tmr6.c"
  8635 ;; Parameters:    Size  Location     Type
  8636 ;;		None
  8637 ;; Auto vars:     Size  Location     Type
  8638 ;;		None
  8639 ;; Return value:  Size  Location     Type
  8640 ;;                  1    wreg      void 
  8641 ;; Registers used:
  8642 ;;		None
  8643 ;; Tracked objects:
  8644 ;;		On entry : 0/0
  8645 ;;		On exit  : 0/0
  8646 ;;		Unchanged: 0/0
  8647 ;; Data sizes:     COMMON   BANK0   BANK1   BANK2   BANK3   BANK4
  8648 ;;      Params:         0       0       0       0       0       0
  8649 ;;      Locals:         0       0       0       0       0       0
  8650 ;;      Temps:          0       0       0       0       0       0
  8651 ;;      Totals:         0       0       0       0       0       0
  8652 ;;Total ram usage:        0 bytes
  8653 ;; Hardware stack levels used:    1
  8654 ;; This function calls:
  8655 ;;		Nothing
  8656 ;; This function is called by:
  8657 ;;		_TMR6_Initialize
  8658 ;;		_TMR6_ISR
  8659 ;; This function uses a non-reentrant model
  8660 ;;
  8661                           
  8662                           
  8663                           ;psect for function _TMR6_DefaultInterruptHandler
  8664  07FE                     _TMR6_DefaultInterruptHandler:
  8665  07FE                     i1l688:	
  8666                           ;incstack = 0
  8667                           ; Regs used in _TMR6_DefaultInterruptHandler: []
  8668                           
  8669  07FE  0008               	return
  8670  07FF                     __end_of_TMR6_DefaultInterruptHandler:
  8671                           
  8672                           	psect	text43
  8673  0DDE                     __ptext43:	
  8674 ;; *************** function _delay_2s *****************
  8675 ;; Defined at:
  8676 ;;		line 73 in file "main.c"
  8677 ;; Parameters:    Size  Location     Type
  8678 ;;		None
  8679 ;; Auto vars:     Size  Location     Type
  8680 ;;		None
  8681 ;; Return value:  Size  Location     Type
  8682 ;;                  1    wreg      void 
  8683 ;; Registers used:
  8684 ;;		wreg, status,2, status,0
  8685 ;; Tracked objects:
  8686 ;;		On entry : 0/0
  8687 ;;		On exit  : 0/0
  8688 ;;		Unchanged: 0/0
  8689 ;; Data sizes:     COMMON   BANK0   BANK1   BANK2   BANK3   BANK4
  8690 ;;      Params:         0       0       0       0       0       0
  8691 ;;      Locals:         0       0       0       0       0       0
  8692 ;;      Temps:          0       0       0       0       0       0
  8693 ;;      Totals:         0       0       0       0       0       0
  8694 ;;Total ram usage:        0 bytes
  8695 ;; Hardware stack levels used:    1
  8696 ;; This function calls:
  8697 ;;		Nothing
  8698 ;; This function is called by:
  8699 ;;		_main
  8700 ;;		_TMR6_ISR
  8701 ;; This function uses a non-reentrant model
  8702 ;;
  8703                           
  8704                           
  8705                           ;psect for function _delay_2s
  8706  0DDE                     _delay_2s:
  8707  0DDE                     i1l2512:	
  8708                           ;incstack = 0
  8709                           ; Regs used in _delay_2s: [wreg+status,2+status,0]
  8710                           
  8711                           
  8712                           ;main.c: 75:         aux_tempo_d2s++;
  8713  0DDE  3001               	movlw	1
  8714  0DDF  0020               	movlb	0	; select bank0
  8715  0DE0  07EA               	addwf	_aux_tempo_d2s,f
  8716  0DE1  3000               	movlw	0
  8717  0DE2  3DEB               	addwfc	_aux_tempo_d2s+1,f
  8718  0DE3                     i1l2514:
  8719                           
  8720                           ;main.c: 76:         if(aux_tempo_d2s == 280)
  8721  0DE3  3018               	movlw	24
  8722  0DE4  066A               	xorwf	_aux_tempo_d2s,w
  8723  0DE5  1D03               	skipz
  8724  0DE6  2DEB               	goto	u153_21
  8725  0DE7  036B               	decf	_aux_tempo_d2s+1,w
  8726  0DE8  1D03               	btfss	3,2
  8727  0DE9  2DEB               	goto	u153_21
  8728  0DEA  2DEC               	goto	u153_20
  8729  0DEB                     u153_21:
  8730  0DEB  2DF2               	goto	i1l567
  8731  0DEC                     u153_20:
  8732  0DEC                     i1l2516:
  8733                           
  8734                           ;main.c: 77:         {;main.c: 78:             acabou_delay=1;
  8735  0DEC  3001               	movlw	1
  8736  0DED  00E8               	movwf	_acabou_delay
  8737  0DEE  3000               	movlw	0
  8738  0DEF  00E9               	movwf	_acabou_delay+1
  8739  0DF0                     i1l2518:
  8740                           
  8741                           ;main.c: 79:             aux_tempo_d2s =0;
  8742  0DF0  01EA               	clrf	_aux_tempo_d2s
  8743  0DF1  01EB               	clrf	_aux_tempo_d2s+1
  8744  0DF2                     i1l567:
  8745  0DF2  0008               	return
  8746  0DF3                     __end_of_delay_2s:
  8747                           
  8748                           	psect	text44
  8749  0D56                     __ptext44:	
  8750 ;; *************** function _TMR4_ISR *****************
  8751 ;; Defined at:
  8752 ;;		line 119 in file "mcc_generated_files/tmr4.c"
  8753 ;; Parameters:    Size  Location     Type
  8754 ;;		None
  8755 ;; Auto vars:     Size  Location     Type
  8756 ;;		None
  8757 ;; Return value:  Size  Location     Type
  8758 ;;                  1    wreg      void 
  8759 ;; Registers used:
  8760 ;;		wreg, fsr1l, fsr1h, status,2, status,0, pclath, cstack
  8761 ;; Tracked objects:
  8762 ;;		On entry : 0/0
  8763 ;;		On exit  : 0/0
  8764 ;;		Unchanged: 0/0
  8765 ;; Data sizes:     COMMON   BANK0   BANK1   BANK2   BANK3   BANK4
  8766 ;;      Params:         0       0       0       0       0       0
  8767 ;;      Locals:         0       0       0       0       0       0
  8768 ;;      Temps:          0       0       0       0       0       0
  8769 ;;      Totals:         0       0       0       0       0       0
  8770 ;;Total ram usage:        0 bytes
  8771 ;; Hardware stack levels used:    1
  8772 ;; Hardware stack levels required when called:    2
  8773 ;; This function calls:
  8774 ;;		Absolute function
  8775 ;;		_TMR4_DefaultInterruptHandler
  8776 ;;		_send_data
  8777 ;; This function is called by:
  8778 ;;		_INTERRUPT_InterruptManager
  8779 ;; This function uses a non-reentrant model
  8780 ;;
  8781                           
  8782                           
  8783                           ;psect for function _TMR4_ISR
  8784  0D56                     _TMR4_ISR:
  8785  0D56                     i1l2966:	
  8786                           ;incstack = 0
  8787                           ; Regs used in _TMR4_ISR: [wreg+fsr1l+fsr1h+status,2+status,0+pclath+cstack]
  8788                           
  8789                           
  8790                           ;mcc_generated_files/tmr4.c: 123:     PIR3bits.TMR4IF = 0;
  8791  0D56  0020               	movlb	0	; select bank0
  8792  0D57  1093               	bcf	19,1	;volatile
  8793  0D58                     i1l2968:
  8794                           
  8795                           ;mcc_generated_files/tmr4.c: 125:     if(TMR4_InterruptHandler)
  8796  0D58  0021               	movlb	1	; select bank1
  8797  0D59  082C               	movf	_TMR4_InterruptHandler^(0+128),w
  8798  0D5A  042D               	iorwf	(_TMR4_InterruptHandler+1)^(0+128),w
  8799  0D5B  1903               	btfsc	3,2
  8800  0D5C  2D5E               	goto	u242_21
  8801  0D5D  2D5F               	goto	u242_20
  8802  0D5E                     u242_21:
  8803  0D5E  2D64               	goto	i1l248
  8804  0D5F                     u242_20:
  8805  0D5F                     i1l2970:
  8806                           
  8807                           ;mcc_generated_files/tmr4.c: 126:     {;mcc_generated_files/tmr4.c: 127:         TMR4_In
      +                          terruptHandler();
  8808  0D5F  082D               	movf	(_TMR4_InterruptHandler+1)^(0+128),w
  8809  0D60  008A               	movwf	10
  8810  0D61  082C               	movf	_TMR4_InterruptHandler^(0+128),w
  8811  0D62  000A               	callw
  8812  0D63  318D               	pagesel	$
  8813  0D64                     i1l248:
  8814  0D64  0008               	return
  8815  0D65                     __end_of_TMR4_ISR:
  8816                           
  8817                           	psect	text45
  8818  07FF                     __ptext45:	
  8819 ;; *************** function _TMR4_DefaultInterruptHandler *****************
  8820 ;; Defined at:
  8821 ;;		line 136 in file "mcc_generated_files/tmr4.c"
  8822 ;; Parameters:    Size  Location     Type
  8823 ;;		None
  8824 ;; Auto vars:     Size  Location     Type
  8825 ;;		None
  8826 ;; Return value:  Size  Location     Type
  8827 ;;                  1    wreg      void 
  8828 ;; Registers used:
  8829 ;;		None
  8830 ;; Tracked objects:
  8831 ;;		On entry : 0/0
  8832 ;;		On exit  : 0/0
  8833 ;;		Unchanged: 0/0
  8834 ;; Data sizes:     COMMON   BANK0   BANK1   BANK2   BANK3   BANK4
  8835 ;;      Params:         0       0       0       0       0       0
  8836 ;;      Locals:         0       0       0       0       0       0
  8837 ;;      Temps:          0       0       0       0       0       0
  8838 ;;      Totals:         0       0       0       0       0       0
  8839 ;;Total ram usage:        0 bytes
  8840 ;; Hardware stack levels used:    1
  8841 ;; This function calls:
  8842 ;;		Nothing
  8843 ;; This function is called by:
  8844 ;;		_TMR4_Initialize
  8845 ;;		_TMR4_ISR
  8846 ;; This function uses a non-reentrant model
  8847 ;;
  8848                           
  8849                           
  8850                           ;psect for function _TMR4_DefaultInterruptHandler
  8851  07FF                     _TMR4_DefaultInterruptHandler:
  8852  07FF                     i1l254:	
  8853                           ;incstack = 0
  8854                           ; Regs used in _TMR4_DefaultInterruptHandler: []
  8855                           
  8856  07FF  0008               	return
  8857  0800                     __end_of_TMR4_DefaultInterruptHandler:
  8858                           
  8859                           	psect	text46
  8860  0F14                     __ptext46:	
  8861 ;; *************** function _send_data *****************
  8862 ;; Defined at:
  8863 ;;		line 53 in file "main.c"
  8864 ;; Parameters:    Size  Location     Type
  8865 ;;		None
  8866 ;; Auto vars:     Size  Location     Type
  8867 ;;  i               2    2[COMMON] int 
  8868 ;; Return value:  Size  Location     Type
  8869 ;;                  1    wreg      void 
  8870 ;; Registers used:
  8871 ;;		wreg, fsr1l, fsr1h, status,2, status,0, pclath, cstack
  8872 ;; Tracked objects:
  8873 ;;		On entry : 0/0
  8874 ;;		On exit  : 0/0
  8875 ;;		Unchanged: 0/0
  8876 ;; Data sizes:     COMMON   BANK0   BANK1   BANK2   BANK3   BANK4
  8877 ;;      Params:         0       0       0       0       0       0
  8878 ;;      Locals:         2       0       0       0       0       0
  8879 ;;      Temps:          1       0       0       0       0       0
  8880 ;;      Totals:         3       0       0       0       0       0
  8881 ;;Total ram usage:        3 bytes
  8882 ;; Hardware stack levels used:    1
  8883 ;; Hardware stack levels required when called:    1
  8884 ;; This function calls:
  8885 ;;		_EUSART_Write
  8886 ;;		_EUSART_is_tx_ready
  8887 ;; This function is called by:
  8888 ;;		_main
  8889 ;;		_TMR4_ISR
  8890 ;; This function uses a non-reentrant model
  8891 ;;
  8892                           
  8893                           
  8894                           ;psect for function _send_data
  8895  0F14                     _send_data:
  8896  0F14                     i1l2496:	
  8897                           ;incstack = 0
  8898                           ; Regs used in _send_data: [wreg+fsr1l+fsr1h+status,2+status,0+pclath+cstack]
  8899                           
  8900                           
  8901                           ;main.c: 55:         aux_tempo++;
  8902  0F14  3001               	movlw	1
  8903  0F15  07F7               	addwf	_aux_tempo,f
  8904  0F16  3000               	movlw	0
  8905  0F17  3DF8               	addwfc	_aux_tempo+1,f
  8906  0F18                     i1l2498:
  8907                           
  8908                           ;main.c: 56:         if(aux_tempo == 14)
  8909  0F18  300E               	movlw	14
  8910  0F19  0677               	xorwf	_aux_tempo,w
  8911  0F1A  0478               	iorwf	_aux_tempo+1,w
  8912  0F1B  1D03               	btfss	3,2
  8913  0F1C  2F1E               	goto	u150_21
  8914  0F1D  2F1F               	goto	u150_20
  8915  0F1E                     u150_21:
  8916  0F1E  2F45               	goto	i1l563
  8917  0F1F                     u150_20:
  8918  0F1F                     i1l2500:
  8919                           
  8920                           ;main.c: 57:         {;main.c: 58:             int i=0;
  8921  0F1F  01F2               	clrf	send_data@i
  8922  0F20  01F3               	clrf	send_data@i+1
  8923                           
  8924                           ;main.c: 59:             while(i<5)
  8925  0F21  2F36               	goto	i1l2508
  8926  0F22                     i1l2502:
  8927                           
  8928                           ;main.c: 60:             {;main.c: 61:                 if(EUSART_is_tx_ready())
  8929  0F22  318D  2547  318F   	fcall	_EUSART_is_tx_ready
  8930  0F25  3A00               	xorlw	0
  8931  0F26  1903               	skipnz
  8932  0F27  2F29               	goto	u151_21
  8933  0F28  2F2A               	goto	u151_20
  8934  0F29                     u151_21:
  8935  0F29  2F36               	goto	i1l2508
  8936  0F2A                     u151_20:
  8937  0F2A                     i1l2504:
  8938                           
  8939                           ;main.c: 62:                     {;main.c: 63:                         EUSART_Write(byte
      +                          [i]);
  8940  0F2A  0872               	movf	send_data@i,w
  8941  0F2B  3EB6               	addlw	(low (_byte| 0))& (0+255)
  8942  0F2C  0086               	movwf	6
  8943  0F2D  0187               	clrf	7
  8944  0F2E  0801               	movf	1,w
  8945  0F2F  318C  24F3  318F   	fcall	_EUSART_Write
  8946  0F32                     i1l2506:
  8947                           
  8948                           ;main.c: 64:                         i++;
  8949  0F32  3001               	movlw	1
  8950  0F33  07F2               	addwf	send_data@i,f
  8951  0F34  3000               	movlw	0
  8952  0F35  3DF3               	addwfc	send_data@i+1,f
  8953  0F36                     i1l2508:
  8954                           
  8955                           ;main.c: 59:             while(i<5)
  8956  0F36  0873               	movf	send_data@i+1,w
  8957  0F37  3A80               	xorlw	128
  8958  0F38  00F1               	movwf	??_send_data
  8959  0F39  3080               	movlw	128
  8960  0F3A  0271               	subwf	??_send_data,w
  8961  0F3B  1D03               	skipz
  8962  0F3C  2F3F               	goto	u152_25
  8963  0F3D  3005               	movlw	5
  8964  0F3E  0272               	subwf	send_data@i,w
  8965  0F3F                     u152_25:
  8966  0F3F  1C03               	skipc
  8967  0F40  2F42               	goto	u152_21
  8968  0F41  2F43               	goto	u152_20
  8969  0F42                     u152_21:
  8970  0F42  2F22               	goto	i1l2502
  8971  0F43                     u152_20:
  8972  0F43                     i1l2510:
  8973                           
  8974                           ;main.c: 68:             aux_tempo =0;
  8975  0F43  01F7               	clrf	_aux_tempo
  8976  0F44  01F8               	clrf	_aux_tempo+1
  8977  0F45                     i1l563:
  8978  0F45  0008               	return
  8979  0F46                     __end_of_send_data:
  8980                           
  8981                           	psect	text47
  8982  0D47                     __ptext47:	
  8983 ;; *************** function _EUSART_is_tx_ready *****************
  8984 ;; Defined at:
  8985 ;;		line 94 in file "mcc_generated_files/eusart.c"
  8986 ;; Parameters:    Size  Location     Type
  8987 ;;		None
  8988 ;; Auto vars:     Size  Location     Type
  8989 ;;		None
  8990 ;; Return value:  Size  Location     Type
  8991 ;;                  1    wreg      _Bool 
  8992 ;; Registers used:
  8993 ;;		wreg, status,2
  8994 ;; Tracked objects:
  8995 ;;		On entry : 0/0
  8996 ;;		On exit  : 0/0
  8997 ;;		Unchanged: 0/0
  8998 ;; Data sizes:     COMMON   BANK0   BANK1   BANK2   BANK3   BANK4
  8999 ;;      Params:         0       0       0       0       0       0
  9000 ;;      Locals:         1       0       0       0       0       0
  9001 ;;      Temps:          0       0       0       0       0       0
  9002 ;;      Totals:         1       0       0       0       0       0
  9003 ;;Total ram usage:        1 bytes
  9004 ;; Hardware stack levels used:    1
  9005 ;; This function calls:
  9006 ;;		Nothing
  9007 ;; This function is called by:
  9008 ;;		_send_data
  9009 ;; This function uses a non-reentrant model
  9010 ;;
  9011                           
  9012                           
  9013                           ;psect for function _EUSART_is_tx_ready
  9014  0D47                     _EUSART_is_tx_ready:
  9015  0D47                     i1l2252:	
  9016                           ;incstack = 0
  9017                           ; Regs used in _EUSART_is_tx_ready: [wreg+status,2]
  9018                           
  9019                           
  9020                           ;mcc_generated_files/eusart.c: 96:     return (_Bool)(PIR1bits.TXIF && TXSTAbits.TXEN);
  9021  0D47  01F0               	clrf	_EUSART_is_tx_ready$167
  9022  0D48                     i1l2254:
  9023  0D48  0020               	movlb	0	; select bank0
  9024  0D49  1E11               	btfss	17,4	;volatile
  9025  0D4A  2D4C               	goto	u130_21
  9026  0D4B  2D4D               	goto	u130_20
  9027  0D4C                     u130_21:
  9028  0D4C  2D54               	goto	i1l2260
  9029  0D4D                     u130_20:
  9030  0D4D                     i1l2256:
  9031  0D4D  0023               	movlb	3	; select bank3
  9032  0D4E  1E9E               	btfss	30,5	;volatile
  9033  0D4F  2D51               	goto	u131_21
  9034  0D50  2D52               	goto	u131_20
  9035  0D51                     u131_21:
  9036  0D51  2D54               	goto	i1l2260
  9037  0D52                     u131_20:
  9038  0D52                     i1l2258:
  9039  0D52  01F0               	clrf	_EUSART_is_tx_ready$167
  9040  0D53  0AF0               	incf	_EUSART_is_tx_ready$167,f
  9041  0D54                     i1l2260:
  9042  0D54  0870               	movf	_EUSART_is_tx_ready$167,w
  9043  0D55                     i1l48:
  9044  0D55  0008               	return
  9045  0D56                     __end_of_EUSART_is_tx_ready:
  9046                           
  9047                           	psect	text48
  9048  0CF3                     __ptext48:	
  9049 ;; *************** function _EUSART_Write *****************
  9050 ;; Defined at:
  9051 ;;		line 132 in file "mcc_generated_files/eusart.c"
  9052 ;; Parameters:    Size  Location     Type
  9053 ;;  txData          1    wreg     unsigned char 
  9054 ;; Auto vars:     Size  Location     Type
  9055 ;;  txData          1    0[COMMON] unsigned char 
  9056 ;; Return value:  Size  Location     Type
  9057 ;;                  1    wreg      void 
  9058 ;; Registers used:
  9059 ;;		wreg
  9060 ;; Tracked objects:
  9061 ;;		On entry : 0/0
  9062 ;;		On exit  : 0/0
  9063 ;;		Unchanged: 0/0
  9064 ;; Data sizes:     COMMON   BANK0   BANK1   BANK2   BANK3   BANK4
  9065 ;;      Params:         0       0       0       0       0       0
  9066 ;;      Locals:         1       0       0       0       0       0
  9067 ;;      Temps:          0       0       0       0       0       0
  9068 ;;      Totals:         1       0       0       0       0       0
  9069 ;;Total ram usage:        1 bytes
  9070 ;; Hardware stack levels used:    1
  9071 ;; This function calls:
  9072 ;;		Nothing
  9073 ;; This function is called by:
  9074 ;;		_send_data
  9075 ;; This function uses a non-reentrant model
  9076 ;;
  9077                           
  9078                           
  9079                           ;psect for function _EUSART_Write
  9080  0CF3                     _EUSART_Write:
  9081                           
  9082                           ;incstack = 0
  9083                           ; Regs used in _EUSART_Write: [wreg]
  9084                           ;EUSART_Write@txData stored from wreg
  9085  0CF3  00F0               	movwf	EUSART_Write@txData
  9086  0CF4                     i1l2264:
  9087  0CF4                     i1l67:	
  9088                           ;mcc_generated_files/eusart.c: 135:     {;mcc_generated_files/eusart.c: 136:     }
  9089                           
  9090                           
  9091                           ;mcc_generated_files/eusart.c: 134:     while(0 == PIR1bits.TXIF)
  9092  0CF4  0020               	movlb	0	; select bank0
  9093  0CF5  1E11               	btfss	17,4	;volatile
  9094  0CF6  2CF8               	goto	u132_21
  9095  0CF7  2CF9               	goto	u132_20
  9096  0CF8                     u132_21:
  9097  0CF8  2CF4               	goto	i1l67
  9098  0CF9                     u132_20:
  9099  0CF9                     i1l2266:
  9100                           
  9101                           ;mcc_generated_files/eusart.c: 138:     TXREG = txData;
  9102  0CF9  0870               	movf	EUSART_Write@txData,w
  9103  0CFA  0023               	movlb	3	; select bank3
  9104  0CFB  009A               	movwf	26	;volatile
  9105  0CFC                     i1l70:
  9106  0CFC  0008               	return
  9107  0CFD                     __end_of_EUSART_Write:
  9108                           
  9109                           	psect	text49
  9110  0E61                     __ptext49:	
  9111 ;; *************** function _PIN_MANAGER_IOC *****************
  9112 ;; Defined at:
  9113 ;;		line 135 in file "mcc_generated_files/pin_manager.c"
  9114 ;; Parameters:    Size  Location     Type
  9115 ;;		None
  9116 ;; Auto vars:     Size  Location     Type
  9117 ;;		None
  9118 ;; Return value:  Size  Location     Type
  9119 ;;                  1    wreg      void 
  9120 ;; Registers used:
  9121 ;;		wreg, status,2, status,0, pclath, cstack
  9122 ;; Tracked objects:
  9123 ;;		On entry : 0/0
  9124 ;;		On exit  : 0/0
  9125 ;;		Unchanged: 0/0
  9126 ;; Data sizes:     COMMON   BANK0   BANK1   BANK2   BANK3   BANK4
  9127 ;;      Params:         0       0       0       0       0       0
  9128 ;;      Locals:         0       0       0       0       0       0
  9129 ;;      Temps:          0       0       0       0       0       0
  9130 ;;      Totals:         0       0       0       0       0       0
  9131 ;;Total ram usage:        0 bytes
  9132 ;; Hardware stack levels used:    1
  9133 ;; Hardware stack levels required when called:    2
  9134 ;; This function calls:
  9135 ;;		_IOCBF0_ISR
  9136 ;;		_IOCBF3_ISR
  9137 ;;		_IOCBF4_ISR
  9138 ;;		_IOCBF5_ISR
  9139 ;; This function is called by:
  9140 ;;		_INTERRUPT_InterruptManager
  9141 ;; This function uses a non-reentrant model
  9142 ;;
  9143                           
  9144                           
  9145                           ;psect for function _PIN_MANAGER_IOC
  9146  0E61                     _PIN_MANAGER_IOC:
  9147  0E61                     i1l2972:	
  9148                           ;incstack = 0
  9149                           ; Regs used in _PIN_MANAGER_IOC: [wreg+status,2+status,0+pclath+cstack]
  9150                           
  9151                           
  9152                           ;mcc_generated_files/pin_manager.c: 138:     if(IOCBFbits.IOCBF0 == 1)
  9153  0E61  0027               	movlb	7	; select bank7
  9154  0E62  1C16               	btfss	22,0	;volatile
  9155  0E63  2E65               	goto	u243_21
  9156  0E64  2E66               	goto	u243_20
  9157  0E65                     u243_21:
  9158  0E65  2E69               	goto	i1l2976
  9159  0E66                     u243_20:
  9160  0E66                     i1l2974:
  9161                           
  9162                           ;mcc_generated_files/pin_manager.c: 139:     {;mcc_generated_files/pin_manager.c: 140:  
      +                                 IOCBF0_ISR();
  9163  0E66  318D  250B  318E   	fcall	_IOCBF0_ISR
  9164  0E69                     i1l2976:
  9165                           
  9166                           ;mcc_generated_files/pin_manager.c: 143:     if(IOCBFbits.IOCBF3 == 1)
  9167  0E69  0027               	movlb	7	; select bank7
  9168  0E6A  1D96               	btfss	22,3	;volatile
  9169  0E6B  2E6D               	goto	u244_21
  9170  0E6C  2E6E               	goto	u244_20
  9171  0E6D                     u244_21:
  9172  0E6D  2E71               	goto	i1l2980
  9173  0E6E                     u244_20:
  9174  0E6E                     i1l2978:
  9175                           
  9176                           ;mcc_generated_files/pin_manager.c: 144:     {;mcc_generated_files/pin_manager.c: 145:  
      +                                 IOCBF3_ISR();
  9177  0E6E  318D  251A  318E   	fcall	_IOCBF3_ISR
  9178  0E71                     i1l2980:
  9179                           
  9180                           ;mcc_generated_files/pin_manager.c: 148:     if(IOCBFbits.IOCBF4 == 1)
  9181  0E71  0027               	movlb	7	; select bank7
  9182  0E72  1E16               	btfss	22,4	;volatile
  9183  0E73  2E75               	goto	u245_21
  9184  0E74  2E76               	goto	u245_20
  9185  0E75                     u245_21:
  9186  0E75  2E79               	goto	i1l2984
  9187  0E76                     u245_20:
  9188  0E76                     i1l2982:
  9189                           
  9190                           ;mcc_generated_files/pin_manager.c: 149:     {;mcc_generated_files/pin_manager.c: 150:  
      +                                 IOCBF4_ISR();
  9191  0E76  318D  2529  318E   	fcall	_IOCBF4_ISR
  9192  0E79                     i1l2984:
  9193                           
  9194                           ;mcc_generated_files/pin_manager.c: 153:     if(IOCBFbits.IOCBF5 == 1)
  9195  0E79  0027               	movlb	7	; select bank7
  9196  0E7A  1E96               	btfss	22,5	;volatile
  9197  0E7B  2E7D               	goto	u246_21
  9198  0E7C  2E7E               	goto	u246_20
  9199  0E7D                     u246_21:
  9200  0E7D  2E81               	goto	i1l429
  9201  0E7E                     u246_20:
  9202  0E7E                     i1l2986:
  9203                           
  9204                           ;mcc_generated_files/pin_manager.c: 154:     {;mcc_generated_files/pin_manager.c: 155:  
      +                                 IOCBF5_ISR();
  9205  0E7E  318D  2538  318E   	fcall	_IOCBF5_ISR
  9206  0E81                     i1l429:
  9207  0E81  0008               	return
  9208  0E82                     __end_of_PIN_MANAGER_IOC:
  9209                           
  9210                           	psect	text50
  9211  0D38                     __ptext50:	
  9212 ;; *************** function _IOCBF5_ISR *****************
  9213 ;; Defined at:
  9214 ;;		line 252 in file "mcc_generated_files/pin_manager.c"
  9215 ;; Parameters:    Size  Location     Type
  9216 ;;		None
  9217 ;; Auto vars:     Size  Location     Type
  9218 ;;		None
  9219 ;; Return value:  Size  Location     Type
  9220 ;;                  1    wreg      void 
  9221 ;; Registers used:
  9222 ;;		wreg, status,2, status,0, pclath, cstack
  9223 ;; Tracked objects:
  9224 ;;		On entry : 0/0
  9225 ;;		On exit  : 0/0
  9226 ;;		Unchanged: 0/0
  9227 ;; Data sizes:     COMMON   BANK0   BANK1   BANK2   BANK3   BANK4
  9228 ;;      Params:         0       0       0       0       0       0
  9229 ;;      Locals:         0       0       0       0       0       0
  9230 ;;      Temps:          0       0       0       0       0       0
  9231 ;;      Totals:         0       0       0       0       0       0
  9232 ;;Total ram usage:        0 bytes
  9233 ;; Hardware stack levels used:    1
  9234 ;; Hardware stack levels required when called:    1
  9235 ;; This function calls:
  9236 ;;		Absolute function
  9237 ;;		_IOCBF5_DefaultInterruptHandler
  9238 ;;		_sensor4
  9239 ;; This function is called by:
  9240 ;;		_PIN_MANAGER_IOC
  9241 ;; This function uses a non-reentrant model
  9242 ;;
  9243                           
  9244                           
  9245                           ;psect for function _IOCBF5_ISR
  9246  0D38                     _IOCBF5_ISR:
  9247  0D38                     i1l2490:	
  9248                           ;incstack = 0
  9249                           ; Regs used in _IOCBF5_ISR: [wreg+status,2+status,0+pclath+cstack]
  9250                           
  9251                           
  9252                           ;mcc_generated_files/pin_manager.c: 257:     if(IOCBF5_InterruptHandler)
  9253  0D38  0021               	movlb	1	; select bank1
  9254  0D39  0822               	movf	_IOCBF5_InterruptHandler^(0+128),w
  9255  0D3A  0423               	iorwf	(_IOCBF5_InterruptHandler+1)^(0+128),w
  9256  0D3B  1903               	btfsc	3,2
  9257  0D3C  2D3E               	goto	u149_21
  9258  0D3D  2D3F               	goto	u149_20
  9259  0D3E                     u149_21:
  9260  0D3E  2D44               	goto	i1l2494
  9261  0D3F                     u149_20:
  9262  0D3F                     i1l2492:
  9263                           
  9264                           ;mcc_generated_files/pin_manager.c: 258:     {;mcc_generated_files/pin_manager.c: 259:  
      +                                 IOCBF5_InterruptHandler();
  9265  0D3F  0823               	movf	(_IOCBF5_InterruptHandler+1)^(0+128),w
  9266  0D40  008A               	movwf	10
  9267  0D41  0822               	movf	_IOCBF5_InterruptHandler^(0+128),w
  9268  0D42  000A               	callw
  9269  0D43  318D               	pagesel	$
  9270  0D44                     i1l2494:
  9271                           
  9272                           ;mcc_generated_files/pin_manager.c: 261:     IOCBFbits.IOCBF5 = 0;
  9273  0D44  0027               	movlb	7	; select bank7
  9274  0D45  1296               	bcf	22,5	;volatile
  9275  0D46                     i1l463:
  9276  0D46  0008               	return
  9277  0D47                     __end_of_IOCBF5_ISR:
  9278                           
  9279                           	psect	text51
  9280  0003                     __ptext51:	
  9281 ;; *************** function _IOCBF5_DefaultInterruptHandler *****************
  9282 ;; Defined at:
  9283 ;;		line 274 in file "mcc_generated_files/pin_manager.c"
  9284 ;; Parameters:    Size  Location     Type
  9285 ;;		None
  9286 ;; Auto vars:     Size  Location     Type
  9287 ;;		None
  9288 ;; Return value:  Size  Location     Type
  9289 ;;                  1    wreg      void 
  9290 ;; Registers used:
  9291 ;;		None
  9292 ;; Tracked objects:
  9293 ;;		On entry : 0/0
  9294 ;;		On exit  : 0/0
  9295 ;;		Unchanged: 0/0
  9296 ;; Data sizes:     COMMON   BANK0   BANK1   BANK2   BANK3   BANK4
  9297 ;;      Params:         0       0       0       0       0       0
  9298 ;;      Locals:         0       0       0       0       0       0
  9299 ;;      Temps:          0       0       0       0       0       0
  9300 ;;      Totals:         0       0       0       0       0       0
  9301 ;;Total ram usage:        0 bytes
  9302 ;; Hardware stack levels used:    1
  9303 ;; This function calls:
  9304 ;;		Nothing
  9305 ;; This function is called by:
  9306 ;;		_PIN_MANAGER_Initialize
  9307 ;;		_IOCBF5_ISR
  9308 ;; This function uses a non-reentrant model
  9309 ;;
  9310                           
  9311                           
  9312                           ;psect for function _IOCBF5_DefaultInterruptHandler
  9313  0003                     _IOCBF5_DefaultInterruptHandler:
  9314  0003                     i1l469:	
  9315                           ;incstack = 0
  9316                           ; Regs used in _IOCBF5_DefaultInterruptHandler: []
  9317                           
  9318  0003  0008               	return
  9319  0004                     __end_of_IOCBF5_DefaultInterruptHandler:
  9320                           
  9321                           	psect	text52
  9322  0C67                     __ptext52:	
  9323 ;; *************** function _sensor4 *****************
  9324 ;; Defined at:
  9325 ;;		line 98 in file "main.c"
  9326 ;; Parameters:    Size  Location     Type
  9327 ;;		None
  9328 ;; Auto vars:     Size  Location     Type
  9329 ;;		None
  9330 ;; Return value:  Size  Location     Type
  9331 ;;                  1    wreg      void 
  9332 ;; Registers used:
  9333 ;;		wreg
  9334 ;; Tracked objects:
  9335 ;;		On entry : 0/0
  9336 ;;		On exit  : 0/0
  9337 ;;		Unchanged: 0/0
  9338 ;; Data sizes:     COMMON   BANK0   BANK1   BANK2   BANK3   BANK4
  9339 ;;      Params:         0       0       0       0       0       0
  9340 ;;      Locals:         0       0       0       0       0       0
  9341 ;;      Temps:          1       0       0       0       0       0
  9342 ;;      Totals:         1       0       0       0       0       0
  9343 ;;Total ram usage:        1 bytes
  9344 ;; Hardware stack levels used:    1
  9345 ;; This function calls:
  9346 ;;		Nothing
  9347 ;; This function is called by:
  9348 ;;		_main
  9349 ;;		_IOCBF5_ISR
  9350 ;; This function uses a non-reentrant model
  9351 ;;
  9352                           
  9353                           
  9354                           ;psect for function _sensor4
  9355  0C67                     _sensor4:
  9356  0C67                     i1l2302:	
  9357                           ;incstack = 0
  9358                           ; Regs used in _sensor4: [wreg]
  9359                           
  9360                           
  9361                           ;main.c: 100:         and_ating=3;
  9362  0C67  3003               	movlw	3
  9363  0C68  00F0               	movwf	??_sensor4
  9364  0C69  0870               	movf	??_sensor4,w
  9365  0C6A  0021               	movlb	1	; select bank1
  9366  0C6B  00BF               	movwf	_and_ating^(0+128)
  9367  0C6C                     i1l579:
  9368  0C6C  0008               	return
  9369  0C6D                     __end_of_sensor4:
  9370                           
  9371                           	psect	text53
  9372  0D29                     __ptext53:	
  9373 ;; *************** function _IOCBF4_ISR *****************
  9374 ;; Defined at:
  9375 ;;		line 222 in file "mcc_generated_files/pin_manager.c"
  9376 ;; Parameters:    Size  Location     Type
  9377 ;;		None
  9378 ;; Auto vars:     Size  Location     Type
  9379 ;;		None
  9380 ;; Return value:  Size  Location     Type
  9381 ;;                  1    wreg      void 
  9382 ;; Registers used:
  9383 ;;		wreg, status,2, status,0, pclath, cstack
  9384 ;; Tracked objects:
  9385 ;;		On entry : 0/0
  9386 ;;		On exit  : 0/0
  9387 ;;		Unchanged: 0/0
  9388 ;; Data sizes:     COMMON   BANK0   BANK1   BANK2   BANK3   BANK4
  9389 ;;      Params:         0       0       0       0       0       0
  9390 ;;      Locals:         0       0       0       0       0       0
  9391 ;;      Temps:          0       0       0       0       0       0
  9392 ;;      Totals:         0       0       0       0       0       0
  9393 ;;Total ram usage:        0 bytes
  9394 ;; Hardware stack levels used:    1
  9395 ;; Hardware stack levels required when called:    1
  9396 ;; This function calls:
  9397 ;;		Absolute function
  9398 ;;		_IOCBF4_DefaultInterruptHandler
  9399 ;;		_sensor3
  9400 ;; This function is called by:
  9401 ;;		_PIN_MANAGER_IOC
  9402 ;; This function uses a non-reentrant model
  9403 ;;
  9404                           
  9405                           
  9406                           ;psect for function _IOCBF4_ISR
  9407  0D29                     _IOCBF4_ISR:
  9408  0D29                     i1l2484:	
  9409                           ;incstack = 0
  9410                           ; Regs used in _IOCBF4_ISR: [wreg+status,2+status,0+pclath+cstack]
  9411                           
  9412                           
  9413                           ;mcc_generated_files/pin_manager.c: 227:     if(IOCBF4_InterruptHandler)
  9414  0D29  0021               	movlb	1	; select bank1
  9415  0D2A  0824               	movf	_IOCBF4_InterruptHandler^(0+128),w
  9416  0D2B  0425               	iorwf	(_IOCBF4_InterruptHandler+1)^(0+128),w
  9417  0D2C  1903               	btfsc	3,2
  9418  0D2D  2D2F               	goto	u148_21
  9419  0D2E  2D30               	goto	u148_20
  9420  0D2F                     u148_21:
  9421  0D2F  2D35               	goto	i1l2488
  9422  0D30                     u148_20:
  9423  0D30                     i1l2486:
  9424                           
  9425                           ;mcc_generated_files/pin_manager.c: 228:     {;mcc_generated_files/pin_manager.c: 229:  
      +                                 IOCBF4_InterruptHandler();
  9426  0D30  0825               	movf	(_IOCBF4_InterruptHandler+1)^(0+128),w
  9427  0D31  008A               	movwf	10
  9428  0D32  0824               	movf	_IOCBF4_InterruptHandler^(0+128),w
  9429  0D33  000A               	callw
  9430  0D34  318D               	pagesel	$
  9431  0D35                     i1l2488:
  9432                           
  9433                           ;mcc_generated_files/pin_manager.c: 231:     IOCBFbits.IOCBF4 = 0;
  9434  0D35  0027               	movlb	7	; select bank7
  9435  0D36  1216               	bcf	22,4	;volatile
  9436  0D37                     i1l453:
  9437  0D37  0008               	return
  9438  0D38                     __end_of_IOCBF4_ISR:
  9439                           
  9440                           	psect	text54
  9441  0002                     __ptext54:	
  9442 ;; *************** function _IOCBF4_DefaultInterruptHandler *****************
  9443 ;; Defined at:
  9444 ;;		line 244 in file "mcc_generated_files/pin_manager.c"
  9445 ;; Parameters:    Size  Location     Type
  9446 ;;		None
  9447 ;; Auto vars:     Size  Location     Type
  9448 ;;		None
  9449 ;; Return value:  Size  Location     Type
  9450 ;;                  1    wreg      void 
  9451 ;; Registers used:
  9452 ;;		None
  9453 ;; Tracked objects:
  9454 ;;		On entry : 0/0
  9455 ;;		On exit  : 0/0
  9456 ;;		Unchanged: 0/0
  9457 ;; Data sizes:     COMMON   BANK0   BANK1   BANK2   BANK3   BANK4
  9458 ;;      Params:         0       0       0       0       0       0
  9459 ;;      Locals:         0       0       0       0       0       0
  9460 ;;      Temps:          0       0       0       0       0       0
  9461 ;;      Totals:         0       0       0       0       0       0
  9462 ;;Total ram usage:        0 bytes
  9463 ;; Hardware stack levels used:    1
  9464 ;; This function calls:
  9465 ;;		Nothing
  9466 ;; This function is called by:
  9467 ;;		_PIN_MANAGER_Initialize
  9468 ;;		_IOCBF4_ISR
  9469 ;; This function uses a non-reentrant model
  9470 ;;
  9471                           
  9472                           
  9473                           ;psect for function _IOCBF4_DefaultInterruptHandler
  9474  0002                     _IOCBF4_DefaultInterruptHandler:
  9475  0002                     i1l459:	
  9476                           ;incstack = 0
  9477                           ; Regs used in _IOCBF4_DefaultInterruptHandler: []
  9478                           
  9479  0002  0008               	return
  9480  0003                     __end_of_IOCBF4_DefaultInterruptHandler:
  9481                           
  9482                           	psect	text55
  9483  0C61                     __ptext55:	
  9484 ;; *************** function _sensor3 *****************
  9485 ;; Defined at:
  9486 ;;		line 93 in file "main.c"
  9487 ;; Parameters:    Size  Location     Type
  9488 ;;		None
  9489 ;; Auto vars:     Size  Location     Type
  9490 ;;		None
  9491 ;; Return value:  Size  Location     Type
  9492 ;;                  1    wreg      void 
  9493 ;; Registers used:
  9494 ;;		wreg
  9495 ;; Tracked objects:
  9496 ;;		On entry : 0/0
  9497 ;;		On exit  : 0/0
  9498 ;;		Unchanged: 0/0
  9499 ;; Data sizes:     COMMON   BANK0   BANK1   BANK2   BANK3   BANK4
  9500 ;;      Params:         0       0       0       0       0       0
  9501 ;;      Locals:         0       0       0       0       0       0
  9502 ;;      Temps:          1       0       0       0       0       0
  9503 ;;      Totals:         1       0       0       0       0       0
  9504 ;;Total ram usage:        1 bytes
  9505 ;; Hardware stack levels used:    1
  9506 ;; This function calls:
  9507 ;;		Nothing
  9508 ;; This function is called by:
  9509 ;;		_main
  9510 ;;		_IOCBF4_ISR
  9511 ;; This function uses a non-reentrant model
  9512 ;;
  9513                           
  9514                           
  9515                           ;psect for function _sensor3
  9516  0C61                     _sensor3:
  9517  0C61                     i1l2300:	
  9518                           ;incstack = 0
  9519                           ; Regs used in _sensor3: [wreg]
  9520                           
  9521                           
  9522                           ;main.c: 95:         and_ating=2;
  9523  0C61  3002               	movlw	2
  9524  0C62  00F0               	movwf	??_sensor3
  9525  0C63  0870               	movf	??_sensor3,w
  9526  0C64  0021               	movlb	1	; select bank1
  9527  0C65  00BF               	movwf	_and_ating^(0+128)
  9528  0C66                     i1l576:
  9529  0C66  0008               	return
  9530  0C67                     __end_of_sensor3:
  9531                           
  9532                           	psect	text56
  9533  0D1A                     __ptext56:	
  9534 ;; *************** function _IOCBF3_ISR *****************
  9535 ;; Defined at:
  9536 ;;		line 192 in file "mcc_generated_files/pin_manager.c"
  9537 ;; Parameters:    Size  Location     Type
  9538 ;;		None
  9539 ;; Auto vars:     Size  Location     Type
  9540 ;;		None
  9541 ;; Return value:  Size  Location     Type
  9542 ;;                  1    wreg      void 
  9543 ;; Registers used:
  9544 ;;		wreg, status,2, status,0, pclath, cstack
  9545 ;; Tracked objects:
  9546 ;;		On entry : 0/0
  9547 ;;		On exit  : 0/0
  9548 ;;		Unchanged: 0/0
  9549 ;; Data sizes:     COMMON   BANK0   BANK1   BANK2   BANK3   BANK4
  9550 ;;      Params:         0       0       0       0       0       0
  9551 ;;      Locals:         0       0       0       0       0       0
  9552 ;;      Temps:          0       0       0       0       0       0
  9553 ;;      Totals:         0       0       0       0       0       0
  9554 ;;Total ram usage:        0 bytes
  9555 ;; Hardware stack levels used:    1
  9556 ;; Hardware stack levels required when called:    1
  9557 ;; This function calls:
  9558 ;;		Absolute function
  9559 ;;		_IOCBF3_DefaultInterruptHandler
  9560 ;;		_sensor2
  9561 ;; This function is called by:
  9562 ;;		_PIN_MANAGER_IOC
  9563 ;; This function uses a non-reentrant model
  9564 ;;
  9565                           
  9566                           
  9567                           ;psect for function _IOCBF3_ISR
  9568  0D1A                     _IOCBF3_ISR:
  9569  0D1A                     i1l2478:	
  9570                           ;incstack = 0
  9571                           ; Regs used in _IOCBF3_ISR: [wreg+status,2+status,0+pclath+cstack]
  9572                           
  9573                           
  9574                           ;mcc_generated_files/pin_manager.c: 197:     if(IOCBF3_InterruptHandler)
  9575  0D1A  0021               	movlb	1	; select bank1
  9576  0D1B  0826               	movf	_IOCBF3_InterruptHandler^(0+128),w
  9577  0D1C  0427               	iorwf	(_IOCBF3_InterruptHandler+1)^(0+128),w
  9578  0D1D  1903               	btfsc	3,2
  9579  0D1E  2D20               	goto	u147_21
  9580  0D1F  2D21               	goto	u147_20
  9581  0D20                     u147_21:
  9582  0D20  2D26               	goto	i1l2482
  9583  0D21                     u147_20:
  9584  0D21                     i1l2480:
  9585                           
  9586                           ;mcc_generated_files/pin_manager.c: 198:     {;mcc_generated_files/pin_manager.c: 199:  
      +                                 IOCBF3_InterruptHandler();
  9587  0D21  0827               	movf	(_IOCBF3_InterruptHandler+1)^(0+128),w
  9588  0D22  008A               	movwf	10
  9589  0D23  0826               	movf	_IOCBF3_InterruptHandler^(0+128),w
  9590  0D24  000A               	callw
  9591  0D25  318D               	pagesel	$
  9592  0D26                     i1l2482:
  9593                           
  9594                           ;mcc_generated_files/pin_manager.c: 201:     IOCBFbits.IOCBF3 = 0;
  9595  0D26  0027               	movlb	7	; select bank7
  9596  0D27  1196               	bcf	22,3	;volatile
  9597  0D28                     i1l443:
  9598  0D28  0008               	return
  9599  0D29                     __end_of_IOCBF3_ISR:
  9600                           
  9601                           	psect	text57
  9602  0C4C                     __ptext57:	
  9603 ;; *************** function _IOCBF3_DefaultInterruptHandler *****************
  9604 ;; Defined at:
  9605 ;;		line 214 in file "mcc_generated_files/pin_manager.c"
  9606 ;; Parameters:    Size  Location     Type
  9607 ;;		None
  9608 ;; Auto vars:     Size  Location     Type
  9609 ;;		None
  9610 ;; Return value:  Size  Location     Type
  9611 ;;                  1    wreg      void 
  9612 ;; Registers used:
  9613 ;;		None
  9614 ;; Tracked objects:
  9615 ;;		On entry : 0/0
  9616 ;;		On exit  : 0/0
  9617 ;;		Unchanged: 0/0
  9618 ;; Data sizes:     COMMON   BANK0   BANK1   BANK2   BANK3   BANK4
  9619 ;;      Params:         0       0       0       0       0       0
  9620 ;;      Locals:         0       0       0       0       0       0
  9621 ;;      Temps:          0       0       0       0       0       0
  9622 ;;      Totals:         0       0       0       0       0       0
  9623 ;;Total ram usage:        0 bytes
  9624 ;; Hardware stack levels used:    1
  9625 ;; This function calls:
  9626 ;;		Nothing
  9627 ;; This function is called by:
  9628 ;;		_PIN_MANAGER_Initialize
  9629 ;;		_IOCBF3_ISR
  9630 ;; This function uses a non-reentrant model
  9631 ;;
  9632                           
  9633                           
  9634                           ;psect for function _IOCBF3_DefaultInterruptHandler
  9635  0C4C                     _IOCBF3_DefaultInterruptHandler:
  9636  0C4C                     i1l449:	
  9637                           ;incstack = 0
  9638                           ; Regs used in _IOCBF3_DefaultInterruptHandler: []
  9639                           
  9640  0C4C  0008               	return
  9641  0C4D                     __end_of_IOCBF3_DefaultInterruptHandler:
  9642                           
  9643                           	psect	text58
  9644  0C50                     __ptext58:	
  9645 ;; *************** function _sensor2 *****************
  9646 ;; Defined at:
  9647 ;;		line 88 in file "main.c"
  9648 ;; Parameters:    Size  Location     Type
  9649 ;;		None
  9650 ;; Auto vars:     Size  Location     Type
  9651 ;;		None
  9652 ;; Return value:  Size  Location     Type
  9653 ;;                  1    wreg      void 
  9654 ;; Registers used:
  9655 ;;		None
  9656 ;; Tracked objects:
  9657 ;;		On entry : 0/0
  9658 ;;		On exit  : 0/0
  9659 ;;		Unchanged: 0/0
  9660 ;; Data sizes:     COMMON   BANK0   BANK1   BANK2   BANK3   BANK4
  9661 ;;      Params:         0       0       0       0       0       0
  9662 ;;      Locals:         0       0       0       0       0       0
  9663 ;;      Temps:          0       0       0       0       0       0
  9664 ;;      Totals:         0       0       0       0       0       0
  9665 ;;Total ram usage:        0 bytes
  9666 ;; Hardware stack levels used:    1
  9667 ;; This function calls:
  9668 ;;		Nothing
  9669 ;; This function is called by:
  9670 ;;		_main
  9671 ;;		_IOCBF3_ISR
  9672 ;; This function uses a non-reentrant model
  9673 ;;
  9674                           
  9675                           
  9676                           ;psect for function _sensor2
  9677  0C50                     _sensor2:
  9678  0C50                     i1l2298:	
  9679                           ;incstack = 0
  9680                           ; Regs used in _sensor2: []
  9681                           
  9682                           
  9683                           ;main.c: 90:         and_ating=1;
  9684  0C50  0021               	movlb	1	; select bank1
  9685  0C51  01BF               	clrf	_and_ating^(0+128)
  9686  0C52  0ABF               	incf	_and_ating^(0+128),f
  9687  0C53                     i1l573:
  9688  0C53  0008               	return
  9689  0C54                     __end_of_sensor2:
  9690                           
  9691                           	psect	text59
  9692  0D0B                     __ptext59:	
  9693 ;; *************** function _IOCBF0_ISR *****************
  9694 ;; Defined at:
  9695 ;;		line 162 in file "mcc_generated_files/pin_manager.c"
  9696 ;; Parameters:    Size  Location     Type
  9697 ;;		None
  9698 ;; Auto vars:     Size  Location     Type
  9699 ;;		None
  9700 ;; Return value:  Size  Location     Type
  9701 ;;                  1    wreg      void 
  9702 ;; Registers used:
  9703 ;;		wreg, status,2, status,0, pclath, cstack
  9704 ;; Tracked objects:
  9705 ;;		On entry : 0/0
  9706 ;;		On exit  : 0/0
  9707 ;;		Unchanged: 0/0
  9708 ;; Data sizes:     COMMON   BANK0   BANK1   BANK2   BANK3   BANK4
  9709 ;;      Params:         0       0       0       0       0       0
  9710 ;;      Locals:         0       0       0       0       0       0
  9711 ;;      Temps:          0       0       0       0       0       0
  9712 ;;      Totals:         0       0       0       0       0       0
  9713 ;;Total ram usage:        0 bytes
  9714 ;; Hardware stack levels used:    1
  9715 ;; Hardware stack levels required when called:    1
  9716 ;; This function calls:
  9717 ;;		Absolute function
  9718 ;;		_IOCBF0_DefaultInterruptHandler
  9719 ;;		_sensor1
  9720 ;; This function is called by:
  9721 ;;		_PIN_MANAGER_IOC
  9722 ;; This function uses a non-reentrant model
  9723 ;;
  9724                           
  9725                           
  9726                           ;psect for function _IOCBF0_ISR
  9727  0D0B                     _IOCBF0_ISR:
  9728  0D0B                     i1l2472:	
  9729                           ;incstack = 0
  9730                           ; Regs used in _IOCBF0_ISR: [wreg+status,2+status,0+pclath+cstack]
  9731                           
  9732                           
  9733                           ;mcc_generated_files/pin_manager.c: 167:     if(IOCBF0_InterruptHandler)
  9734  0D0B  0021               	movlb	1	; select bank1
  9735  0D0C  0828               	movf	_IOCBF0_InterruptHandler^(0+128),w
  9736  0D0D  0429               	iorwf	(_IOCBF0_InterruptHandler+1)^(0+128),w
  9737  0D0E  1903               	btfsc	3,2
  9738  0D0F  2D11               	goto	u146_21
  9739  0D10  2D12               	goto	u146_20
  9740  0D11                     u146_21:
  9741  0D11  2D17               	goto	i1l2476
  9742  0D12                     u146_20:
  9743  0D12                     i1l2474:
  9744                           
  9745                           ;mcc_generated_files/pin_manager.c: 168:     {;mcc_generated_files/pin_manager.c: 169:  
      +                                 IOCBF0_InterruptHandler();
  9746  0D12  0829               	movf	(_IOCBF0_InterruptHandler+1)^(0+128),w
  9747  0D13  008A               	movwf	10
  9748  0D14  0828               	movf	_IOCBF0_InterruptHandler^(0+128),w
  9749  0D15  000A               	callw
  9750  0D16  318D               	pagesel	$
  9751  0D17                     i1l2476:
  9752                           
  9753                           ;mcc_generated_files/pin_manager.c: 171:     IOCBFbits.IOCBF0 = 0;
  9754  0D17  0027               	movlb	7	; select bank7
  9755  0D18  1016               	bcf	22,0	;volatile
  9756  0D19                     i1l433:
  9757  0D19  0008               	return
  9758  0D1A                     __end_of_IOCBF0_ISR:
  9759                           
  9760                           	psect	text60
  9761  0C4B                     __ptext60:	
  9762 ;; *************** function _IOCBF0_DefaultInterruptHandler *****************
  9763 ;; Defined at:
  9764 ;;		line 184 in file "mcc_generated_files/pin_manager.c"
  9765 ;; Parameters:    Size  Location     Type
  9766 ;;		None
  9767 ;; Auto vars:     Size  Location     Type
  9768 ;;		None
  9769 ;; Return value:  Size  Location     Type
  9770 ;;                  1    wreg      void 
  9771 ;; Registers used:
  9772 ;;		None
  9773 ;; Tracked objects:
  9774 ;;		On entry : 0/0
  9775 ;;		On exit  : 0/0
  9776 ;;		Unchanged: 0/0
  9777 ;; Data sizes:     COMMON   BANK0   BANK1   BANK2   BANK3   BANK4
  9778 ;;      Params:         0       0       0       0       0       0
  9779 ;;      Locals:         0       0       0       0       0       0
  9780 ;;      Temps:          0       0       0       0       0       0
  9781 ;;      Totals:         0       0       0       0       0       0
  9782 ;;Total ram usage:        0 bytes
  9783 ;; Hardware stack levels used:    1
  9784 ;; This function calls:
  9785 ;;		Nothing
  9786 ;; This function is called by:
  9787 ;;		_PIN_MANAGER_Initialize
  9788 ;;		_IOCBF0_ISR
  9789 ;; This function uses a non-reentrant model
  9790 ;;
  9791                           
  9792                           
  9793                           ;psect for function _IOCBF0_DefaultInterruptHandler
  9794  0C4B                     _IOCBF0_DefaultInterruptHandler:
  9795  0C4B                     i1l439:	
  9796                           ;incstack = 0
  9797                           ; Regs used in _IOCBF0_DefaultInterruptHandler: []
  9798                           
  9799  0C4B  0008               	return
  9800  0C4C                     __end_of_IOCBF0_DefaultInterruptHandler:
  9801                           
  9802                           	psect	text61
  9803  0C4D                     __ptext61:	
  9804 ;; *************** function _sensor1 *****************
  9805 ;; Defined at:
  9806 ;;		line 83 in file "main.c"
  9807 ;; Parameters:    Size  Location     Type
  9808 ;;		None
  9809 ;; Auto vars:     Size  Location     Type
  9810 ;;		None
  9811 ;; Return value:  Size  Location     Type
  9812 ;;                  1    wreg      void 
  9813 ;; Registers used:
  9814 ;;		status,2
  9815 ;; Tracked objects:
  9816 ;;		On entry : 0/0
  9817 ;;		On exit  : 0/0
  9818 ;;		Unchanged: 0/0
  9819 ;; Data sizes:     COMMON   BANK0   BANK1   BANK2   BANK3   BANK4
  9820 ;;      Params:         0       0       0       0       0       0
  9821 ;;      Locals:         0       0       0       0       0       0
  9822 ;;      Temps:          0       0       0       0       0       0
  9823 ;;      Totals:         0       0       0       0       0       0
  9824 ;;Total ram usage:        0 bytes
  9825 ;; Hardware stack levels used:    1
  9826 ;; This function calls:
  9827 ;;		Nothing
  9828 ;; This function is called by:
  9829 ;;		_main
  9830 ;;		_IOCBF0_ISR
  9831 ;; This function uses a non-reentrant model
  9832 ;;
  9833                           
  9834                           
  9835                           ;psect for function _sensor1
  9836  0C4D                     _sensor1:
  9837  0C4D                     i1l2296:	
  9838                           ;incstack = 0
  9839                           ; Regs used in _sensor1: [status,2]
  9840                           
  9841                           
  9842                           ;main.c: 85:         and_ating=0;
  9843  0C4D  0021               	movlb	1	; select bank1
  9844  0C4E  01BF               	clrf	_and_ating^(0+128)
  9845  0C4F                     i1l570:
  9846  0C4F  0008               	return
  9847  0C50                     __end_of_sensor1:
  9848                           
  9849                           	psect	text62
  9850  0DF3                     __ptext62:	
  9851 ;; *************** function _CCP4_CaptureISR *****************
  9852 ;; Defined at:
  9853 ;;		line 89 in file "mcc_generated_files/ccp4.c"
  9854 ;; Parameters:    Size  Location     Type
  9855 ;;		None
  9856 ;; Auto vars:     Size  Location     Type
  9857 ;;  module          2    5[COMMON] struct CCPR4Reg_tag
  9858 ;; Return value:  Size  Location     Type
  9859 ;;                  1    wreg      void 
  9860 ;; Registers used:
  9861 ;;		wreg, status,2, status,0, pclath, cstack
  9862 ;; Tracked objects:
  9863 ;;		On entry : 0/0
  9864 ;;		On exit  : 0/0
  9865 ;;		Unchanged: 0/0
  9866 ;; Data sizes:     COMMON   BANK0   BANK1   BANK2   BANK3   BANK4
  9867 ;;      Params:         0       0       0       0       0       0
  9868 ;;      Locals:         2       0       0       0       0       0
  9869 ;;      Temps:          1       0       0       0       0       0
  9870 ;;      Totals:         3       0       0       0       0       0
  9871 ;;Total ram usage:        3 bytes
  9872 ;; Hardware stack levels used:    1
  9873 ;; Hardware stack levels required when called:    2
  9874 ;; This function calls:
  9875 ;;		Absolute function
  9876 ;;		_CCP4_DefaultCallBack
  9877 ;;		_get_pulse
  9878 ;; This function is called by:
  9879 ;;		_INTERRUPT_InterruptManager
  9880 ;; This function uses a non-reentrant model
  9881 ;;
  9882                           
  9883                           
  9884                           ;psect for function _CCP4_CaptureISR
  9885  0DF3                     _CCP4_CaptureISR:
  9886  0DF3                     i1l2994:	
  9887                           ;incstack = 0
  9888                           ; Regs used in _CCP4_CaptureISR: [wreg+status,2+status,0+pclath+cstack]
  9889                           
  9890                           
  9891                           ;mcc_generated_files/ccp4.c: 91:     CCP4_PERIOD_REG_T module;;mcc_generated_files/ccp4.
      +                          c: 94:     PIR3bits.CCP4IF = 0;
  9892  0DF3  0020               	movlb	0	; select bank0
  9893  0DF4  1293               	bcf	19,5	;volatile
  9894  0DF5                     i1l2996:
  9895                           
  9896                           ;mcc_generated_files/ccp4.c: 97:     module.ccpr4l = CCPR4L;
  9897  0DF5  0026               	movlb	6	; select bank6
  9898  0DF6  0818               	movf	24,w	;volatile
  9899  0DF7  00F4               	movwf	??_CCP4_CaptureISR
  9900  0DF8  0874               	movf	??_CCP4_CaptureISR,w
  9901  0DF9  00F5               	movwf	CCP4_CaptureISR@module
  9902                           
  9903                           ;mcc_generated_files/ccp4.c: 98:     module.ccpr4h = CCPR4H;
  9904  0DFA  0819               	movf	25,w	;volatile
  9905  0DFB  00F4               	movwf	??_CCP4_CaptureISR
  9906  0DFC  0874               	movf	??_CCP4_CaptureISR,w
  9907  0DFD  00F6               	movwf	CCP4_CaptureISR@module+1
  9908  0DFE                     i1l2998:
  9909                           
  9910                           ;mcc_generated_files/ccp4.c: 101:     CCP4_CallBack(module.ccpr4_16Bit);
  9911  0DFE  0876               	movf	CCP4_CaptureISR@module+1,w
  9912  0DFF  00F3               	movwf	get_pulse@capturedValue+1
  9913  0E00  0875               	movf	CCP4_CaptureISR@module,w
  9914  0E01  00F2               	movwf	get_pulse@capturedValue
  9915  0E02  0021               	movlb	1	; select bank1
  9916  0E03  082B               	movf	(_CCP4_CallBack+1)^(0+128),w
  9917  0E04  008A               	movwf	10
  9918  0E05  082A               	movf	_CCP4_CallBack^(0+128),w
  9919  0E06  000A               	callw
  9920  0E07  318D               	pagesel	$
  9921  0E08                     i1l354:
  9922  0E08  0008               	return
  9923  0E09                     __end_of_CCP4_CaptureISR:
  9924                           
  9925                           	psect	text63
  9926  0C4A                     __ptext63:	
  9927 ;; *************** function _CCP4_DefaultCallBack *****************
  9928 ;; Defined at:
  9929 ;;		line 60 in file "mcc_generated_files/ccp4.c"
  9930 ;; Parameters:    Size  Location     Type
  9931 ;;  capturedValu    2    2[COMMON] unsigned short 
  9932 ;; Auto vars:     Size  Location     Type
  9933 ;;		None
  9934 ;; Return value:  Size  Location     Type
  9935 ;;                  1    wreg      void 
  9936 ;; Registers used:
  9937 ;;		None
  9938 ;; Tracked objects:
  9939 ;;		On entry : 0/0
  9940 ;;		On exit  : 0/0
  9941 ;;		Unchanged: 0/0
  9942 ;; Data sizes:     COMMON   BANK0   BANK1   BANK2   BANK3   BANK4
  9943 ;;      Params:         2       0       0       0       0       0
  9944 ;;      Locals:         0       0       0       0       0       0
  9945 ;;      Temps:          0       0       0       0       0       0
  9946 ;;      Totals:         2       0       0       0       0       0
  9947 ;;Total ram usage:        2 bytes
  9948 ;; Hardware stack levels used:    1
  9949 ;; This function calls:
  9950 ;;		Nothing
  9951 ;; This function is called by:
  9952 ;;		_CCP4_Initialize
  9953 ;;		_CCP4_CaptureISR
  9954 ;; This function uses a non-reentrant model
  9955 ;;
  9956                           
  9957                           
  9958                           ;psect for function _CCP4_DefaultCallBack
  9959  0C4A                     _CCP4_DefaultCallBack:
  9960  0C4A                     i1l348:	
  9961                           ;incstack = 0
  9962                           ; Regs used in _CCP4_DefaultCallBack: []
  9963                           
  9964  0C4A  0008               	return
  9965  0C4B                     __end_of_CCP4_DefaultCallBack:
  9966                           
  9967                           	psect	text64
  9968  0EC7                     __ptext64:	
  9969 ;; *************** function _get_pulse *****************
  9970 ;; Defined at:
  9971 ;;		line 103 in file "main.c"
  9972 ;; Parameters:    Size  Location     Type
  9973 ;;  capturedValu    2    2[COMMON] unsigned short 
  9974 ;; Auto vars:     Size  Location     Type
  9975 ;;		None
  9976 ;; Return value:  Size  Location     Type
  9977 ;;                  1    wreg      void 
  9978 ;; Registers used:
  9979 ;;		wreg, status,2, status,0, pclath, cstack
  9980 ;; Tracked objects:
  9981 ;;		On entry : 0/0
  9982 ;;		On exit  : 0/0
  9983 ;;		Unchanged: 0/0
  9984 ;; Data sizes:     COMMON   BANK0   BANK1   BANK2   BANK3   BANK4
  9985 ;;      Params:         2       0       0       0       0       0
  9986 ;;      Locals:         0       0       0       0       0       0
  9987 ;;      Temps:          0       0       0       0       0       0
  9988 ;;      Totals:         2       0       0       0       0       0
  9989 ;;Total ram usage:        2 bytes
  9990 ;; Hardware stack levels used:    1
  9991 ;; Hardware stack levels required when called:    1
  9992 ;; This function calls:
  9993 ;;		_TMR1_WriteTimer
  9994 ;; This function is called by:
  9995 ;;		_main
  9996 ;;		_CCP4_CaptureISR
  9997 ;; This function uses a non-reentrant model
  9998 ;;
  9999                           
 10000                           
 10001                           ;psect for function _get_pulse
 10002  0EC7                     _get_pulse:
 10003  0EC7                     i1l2520:	
 10004                           ;incstack = 0
 10005                           ; Regs used in _get_pulse: [wreg+status,2+status,0+pclath+cstack]
 10006                           
 10007                           
 10008                           ;main.c: 103: void get_pulse(uint16_t capturedValue);main.c: 104:     {;main.c: 105:    
      +                               TMR1_WriteTimer(0);
 10009  0EC7  3000               	movlw	0
 10010  0EC8  00F0               	movwf	TMR1_WriteTimer@timerVal
 10011  0EC9  00F1               	movwf	TMR1_WriteTimer@timerVal+1
 10012  0ECA  318D  2593  318E   	fcall	_TMR1_WriteTimer
 10013  0ECD                     i1l2522:
 10014                           
 10015                           ;main.c: 106:         ccp_value = capturedValue;
 10016  0ECD  0873               	movf	get_pulse@capturedValue+1,w
 10017  0ECE  0021               	movlb	1	; select bank1
 10018  0ECF  00CA               	movwf	(_ccp_value+1)^(0+128)
 10019  0ED0  0872               	movf	get_pulse@capturedValue,w
 10020  0ED1  00C9               	movwf	_ccp_value^(0+128)
 10021  0ED2                     i1l2524:
 10022                           
 10023                           ;main.c: 107:         if(sentido == 1){
 10024  0ED2  0379               	decf	_sentido,w
 10025  0ED3  047A               	iorwf	_sentido+1,w
 10026  0ED4  1D03               	btfss	3,2
 10027  0ED5  2ED7               	goto	u154_21
 10028  0ED6  2ED8               	goto	u154_20
 10029  0ED7                     u154_21:
 10030  0ED7  2EDD               	goto	i1l2528
 10031  0ED8                     u154_20:
 10032  0ED8                     i1l2526:
 10033                           
 10034                           ;main.c: 108:             pulses++;
 10035  0ED8  3001               	movlw	1
 10036  0ED9  07FB               	addwf	_pulses,f
 10037  0EDA  3000               	movlw	0
 10038  0EDB  3DFC               	addwfc	_pulses+1,f
 10039                           
 10040                           ;main.c: 109:         }else if(sentido == 0 && pulses >= 0){
 10041  0EDC  2EEB               	goto	i1l585
 10042  0EDD                     i1l2528:
 10043  0EDD  0879               	movf	_sentido,w
 10044  0EDE  047A               	iorwf	_sentido+1,w
 10045  0EDF  1D03               	btfss	3,2
 10046  0EE0  2EE2               	goto	u155_21
 10047  0EE1  2EE3               	goto	u155_20
 10048  0EE2                     u155_21:
 10049  0EE2  2EEB               	goto	i1l585
 10050  0EE3                     u155_20:
 10051  0EE3                     i1l2530:
 10052  0EE3  1BFC               	btfsc	_pulses+1,7
 10053  0EE4  2EE6               	goto	u156_21
 10054  0EE5  2EE7               	goto	u156_20
 10055  0EE6                     u156_21:
 10056  0EE6  2EEB               	goto	i1l585
 10057  0EE7                     u156_20:
 10058  0EE7                     i1l2532:
 10059                           
 10060                           ;main.c: 110:             pulses--;
 10061  0EE7  30FF               	movlw	255
 10062  0EE8  07FB               	addwf	_pulses,f
 10063  0EE9  30FF               	movlw	255
 10064  0EEA  3DFC               	addwfc	_pulses+1,f
 10065  0EEB                     i1l585:
 10066  0EEB  0008               	return
 10067  0EEC                     __end_of_get_pulse:
 10068                           
 10069                           	psect	text65
 10070  0D93                     __ptext65:	
 10071 ;; *************** function _TMR1_WriteTimer *****************
 10072 ;; Defined at:
 10073 ;;		line 113 in file "mcc_generated_files/tmr1.c"
 10074 ;; Parameters:    Size  Location     Type
 10075 ;;  timerVal        2    0[COMMON] unsigned short 
 10076 ;; Auto vars:     Size  Location     Type
 10077 ;;		None
 10078 ;; Return value:  Size  Location     Type
 10079 ;;                  1    wreg      void 
 10080 ;; Registers used:
 10081 ;;		wreg, status,2
 10082 ;; Tracked objects:
 10083 ;;		On entry : 0/0
 10084 ;;		On exit  : 0/0
 10085 ;;		Unchanged: 0/0
 10086 ;; Data sizes:     COMMON   BANK0   BANK1   BANK2   BANK3   BANK4
 10087 ;;      Params:         2       0       0       0       0       0
 10088 ;;      Locals:         0       0       0       0       0       0
 10089 ;;      Temps:          0       0       0       0       0       0
 10090 ;;      Totals:         2       0       0       0       0       0
 10091 ;;Total ram usage:        2 bytes
 10092 ;; Hardware stack levels used:    1
 10093 ;; This function calls:
 10094 ;;		Nothing
 10095 ;; This function is called by:
 10096 ;;		_get_pulse
 10097 ;;		_TMR1_Reload
 10098 ;; This function uses a non-reentrant model
 10099 ;;
 10100                           
 10101                           
 10102                           ;psect for function _TMR1_WriteTimer
 10103  0D93                     _TMR1_WriteTimer:
 10104  0D93                     i1l2268:	
 10105                           ;incstack = 0
 10106                           ; Regs used in _TMR1_WriteTimer: [wreg+status,2]
 10107                           
 10108                           
 10109                           ;mcc_generated_files/tmr1.c: 113: void TMR1_WriteTimer(uint16_t timerVal);mcc_generated_
      +                          files/tmr1.c: 114: {;mcc_generated_files/tmr1.c: 115:     if (T1CONbits.nT1SYNC == 1)
 10110  0D93  0020               	movlb	0	; select bank0
 10111  0D94  1D18               	btfss	24,2	;volatile
 10112  0D95  2D97               	goto	u133_21
 10113  0D96  2D98               	goto	u133_20
 10114  0D97                     u133_21:
 10115  0D97  2D9F               	goto	i1l2278
 10116  0D98                     u133_20:
 10117  0D98                     i1l2270:
 10118                           
 10119                           ;mcc_generated_files/tmr1.c: 116:     {;mcc_generated_files/tmr1.c: 118:         T1CONbi
      +                          ts.TMR1ON = 0;
 10120  0D98  1018               	bcf	24,0	;volatile
 10121  0D99                     i1l2272:
 10122                           
 10123                           ;mcc_generated_files/tmr1.c: 121:         TMR1H = (timerVal >> 8);
 10124  0D99  0871               	movf	TMR1_WriteTimer@timerVal+1,w
 10125  0D9A  0097               	movwf	23	;volatile
 10126  0D9B                     i1l2274:
 10127                           
 10128                           ;mcc_generated_files/tmr1.c: 122:         TMR1L = timerVal;
 10129  0D9B  0870               	movf	TMR1_WriteTimer@timerVal,w
 10130  0D9C  0096               	movwf	22	;volatile
 10131  0D9D                     i1l2276:
 10132                           
 10133                           ;mcc_generated_files/tmr1.c: 125:         T1CONbits.TMR1ON =1;
 10134  0D9D  1418               	bsf	24,0	;volatile
 10135                           
 10136                           ;mcc_generated_files/tmr1.c: 126:     }
 10137  0D9E  2DA3               	goto	i1l164
 10138  0D9F                     i1l2278:
 10139                           
 10140                           ;mcc_generated_files/tmr1.c: 128:     {;mcc_generated_files/tmr1.c: 130:         TMR1H =
      +                           (timerVal >> 8);
 10141  0D9F  0871               	movf	TMR1_WriteTimer@timerVal+1,w
 10142  0DA0  0097               	movwf	23	;volatile
 10143  0DA1                     i1l2280:
 10144                           
 10145                           ;mcc_generated_files/tmr1.c: 131:         TMR1L = timerVal;
 10146  0DA1  0870               	movf	TMR1_WriteTimer@timerVal,w
 10147  0DA2  0096               	movwf	22	;volatile
 10148  0DA3                     i1l164:
 10149  0DA3  0008               	return
 10150  0DA4                     __end_of_TMR1_WriteTimer:
 10151  007E                     btemp	set	126	;btemp
 10152  007E                     int$flags	set	126
 10153  007E                     wtemp0	set	126
 10154                           
 10155                           	psect	config
 10156                           
 10157                           ;Config register CONFIG1 @ 0x8007
 10158                           ;	Oscillator Selection
 10159                           ;	FOSC = INTOSC, INTOSC oscillator: I/O function on CLKIN pin
 10160                           ;	Watchdog Timer Enable
 10161                           ;	WDTE = OFF, WDT disabled
 10162                           ;	Power-up Timer Enable
 10163                           ;	PWRTE = OFF, PWRT disabled
 10164                           ;	MCLR Pin Function Select
 10165                           ;	MCLRE = ON, MCLR/VPP pin function is MCLR
 10166                           ;	Flash Program Memory Code Protection
 10167                           ;	CP = OFF, Program memory code protection is disabled
 10168                           ;	Data Memory Code Protection
 10169                           ;	CPD = OFF, Data memory code protection is disabled
 10170                           ;	Brown-out Reset Enable
 10171                           ;	BOREN = ON, Brown-out Reset enabled
 10172                           ;	Clock Out Enable
 10173                           ;	CLKOUTEN = OFF, CLKOUT function is disabled. I/O or oscillator function on the CLKOUT 
      +                          pin
 10174                           ;	Internal/External Switchover
 10175                           ;	IESO = ON, Internal/External Switchover mode is enabled
 10176                           ;	Fail-Safe Clock Monitor Enable
 10177                           ;	FCMEN = ON, Fail-Safe Clock Monitor is enabled
 10178  8007                     	org	32775
 10179  8007  3FE4               	dw	16356
 10180                           
 10181                           ;Config register CONFIG2 @ 0x8008
 10182                           ;	Flash Memory Self-Write Protection
 10183                           ;	WRT = OFF, Write protection off
 10184                           ;	PLL Enable
 10185                           ;	PLLEN = OFF, 4x PLL disabled
 10186                           ;	Stack Overflow/Underflow Reset Enable
 10187                           ;	STVREN = ON, Stack Overflow or Underflow will cause a Reset
 10188                           ;	Brown-out Reset Voltage Selection
 10189                           ;	BORV = LO, Brown-out Reset Voltage (Vbor), low trip point selected.
 10190                           ;	Low-Voltage Programming Enable
 10191                           ;	LVP = ON, Low-voltage programming enabled
 10192  8008                     	org	32776
 10193  8008  3EFF               	dw	16127

Data Sizes:
    Strings     0
    Constant    0
    Data        0
    BSS         34
    Persistent  54
    Stack       0

Auto Spaces:
    Space          Size  Autos    Used
    COMMON           14      7      13
    BANK0            80     72      79
    BANK1            80      9      52
    BANK2            80      0       0
    BANK3            80      0       0
    BANK4            48      0       0

Pointer List with Targets:

    ADC_InterruptHandler	PTR FTN()void  size(2) Largest target is 1
		 -> Absolute function(), 

    TMR6_SetInterruptHandler@InterruptHandler	PTR FTN()void  size(2) Largest target is 1
		 -> TMR6_DefaultInterruptHandler(), delay_2s(), 

    TMR6_InterruptHandler	PTR FTN()void  size(2) Largest target is 1
		 -> TMR6_DefaultInterruptHandler(), delay_2s(), Absolute function(), 

    IOCBF5_SetInterruptHandler@InterruptHandler	PTR FTN()void  size(2) Largest target is 1
		 -> sensor4(), IOCBF5_DefaultInterruptHandler(), 

    IOCBF5_InterruptHandler	PTR FTN()void  size(2) Largest target is 1
		 -> sensor4(), IOCBF5_DefaultInterruptHandler(), Absolute function(), 

    IOCBF4_SetInterruptHandler@InterruptHandler	PTR FTN()void  size(2) Largest target is 1
		 -> sensor3(), IOCBF4_DefaultInterruptHandler(), 

    IOCBF4_InterruptHandler	PTR FTN()void  size(2) Largest target is 1
		 -> sensor3(), IOCBF4_DefaultInterruptHandler(), Absolute function(), 

    IOCBF3_SetInterruptHandler@InterruptHandler	PTR FTN()void  size(2) Largest target is 1
		 -> sensor2(), IOCBF3_DefaultInterruptHandler(), 

    IOCBF3_InterruptHandler	PTR FTN()void  size(2) Largest target is 1
		 -> sensor2(), IOCBF3_DefaultInterruptHandler(), Absolute function(), 

    IOCBF0_SetInterruptHandler@InterruptHandler	PTR FTN()void  size(2) Largest target is 1
		 -> sensor1(), IOCBF0_DefaultInterruptHandler(), 

    IOCBF0_InterruptHandler	PTR FTN()void  size(2) Largest target is 1
		 -> sensor1(), IOCBF0_DefaultInterruptHandler(), Absolute function(), 

    CCP4_SetCallBack@customCallBack	PTR FTN(unsigned short ,)void  size(2) Largest target is 1
		 -> get_pulse(), CCP4_DefaultCallBack(), 

    CCP4_CallBack	PTR FTN(unsigned short ,)void  size(2) Largest target is 1
		 -> get_pulse(), CCP4_DefaultCallBack(), Absolute function(), 

    TMR4_SetInterruptHandler@InterruptHandler	PTR FTN()void  size(2) Largest target is 1
		 -> send_data(), TMR4_DefaultInterruptHandler(), 

    TMR4_InterruptHandler	PTR FTN()void  size(2) Largest target is 1
		 -> send_data(), Absolute function(), TMR4_DefaultInterruptHandler(), 

    EUSART_SetErrorHandler@interruptHandler	PTR FTN()void  size(2) Largest target is 1
		 -> EUSART_DefaultErrorHandler(), 

    EUSART_ErrorHandler	PTR FTN()void  size(2) Largest target is 1
		 -> Absolute function(), EUSART_DefaultErrorHandler(), 

    EUSART_SetOverrunErrorHandler@interruptHandler	PTR FTN()void  size(2) Largest target is 1
		 -> EUSART_DefaultOverrunErrorHandler(), 

    EUSART_OverrunErrorHandler	PTR FTN()void  size(2) Largest target is 1
		 -> Absolute function(), EUSART_DefaultOverrunErrorHandler(), 

    EUSART_SetFramingErrorHandler@interruptHandler	PTR FTN()void  size(2) Largest target is 1
		 -> EUSART_DefaultFramingErrorHandler(), 

    EUSART_FramingErrorHandler	PTR FTN()void  size(2) Largest target is 1
		 -> Absolute function(), EUSART_DefaultFramingErrorHandler(), 


Critical Paths under _main in COMMON

    None.

Critical Paths under _INTERRUPT_InterruptManager in COMMON

    _INTERRUPT_InterruptManager->_CCP4_CaptureISR
    _TMR4_ISR->_send_data
    _send_data->_EUSART_Write
    _send_data->_EUSART_is_tx_ready
    _IOCBF5_ISR->_sensor4
    _IOCBF4_ISR->_sensor3
    _CCP4_CaptureISR->_CCP4_DefaultCallBack
    _CCP4_CaptureISR->_get_pulse
    _get_pulse->_TMR1_WriteTimer

Critical Paths under _main in BANK0

    _main->_comunicacao
    _controle->___flmul
    _movimento->___wmul
    _comunicacao->___fldiv
    ___xxtofl->_ADC_GetConversion
    ___flmul->___xxtofl
    ___fldiv->___flmul
    _TMR6_Initialize->_TMR6_SetInterruptHandler
    _TMR4_Initialize->_TMR4_SetInterruptHandler
    _PIN_MANAGER_Initialize->_IOCBF0_SetInterruptHandler
    _PIN_MANAGER_Initialize->_IOCBF3_SetInterruptHandler
    _PIN_MANAGER_Initialize->_IOCBF4_SetInterruptHandler
    _PIN_MANAGER_Initialize->_IOCBF5_SetInterruptHandler
    _EUSART_Initialize->_EUSART_SetErrorHandler
    _EUSART_Initialize->_EUSART_SetFramingErrorHandler
    _EUSART_Initialize->_EUSART_SetOverrunErrorHandler
    _CCP4_Initialize->_CCP4_SetCallBack

Critical Paths under _INTERRUPT_InterruptManager in BANK0

    None.

Critical Paths under _main in BANK1

    _main->_comunicacao

Critical Paths under _INTERRUPT_InterruptManager in BANK1

    None.

Critical Paths under _main in BANK2

    None.

Critical Paths under _INTERRUPT_InterruptManager in BANK2

    None.

Critical Paths under _main in BANK3

    None.

Critical Paths under _INTERRUPT_InterruptManager in BANK3

    None.

Critical Paths under _main in BANK4

    None.

Critical Paths under _INTERRUPT_InterruptManager in BANK4

    None.

Call Graph Tables:

 ---------------------------------------------------------------------------------
 (Depth) Function   	        Calls       Base Space   Used Autos Params    Refs
 ---------------------------------------------------------------------------------
 (0) _main                                                 0     0      0   13836
                   _CCP4_SetCallBack
         _IOCBF0_SetInterruptHandler
         _IOCBF3_SetInterruptHandler
         _IOCBF4_SetInterruptHandler
         _IOCBF5_SetInterruptHandler
                  _SYSTEM_Initialize
           _TMR4_SetInterruptHandler
           _TMR6_SetInterruptHandler
                        _comunicacao
                           _controle
 ---------------------------------------------------------------------------------
 (1) _controle                                             8     8      0    5112
                                             44 BANK0      8     8      0
                  _ADC_GetConversion
                            ___flmul
                           ___xxtofl
                          _movimento
 ---------------------------------------------------------------------------------
 (2) _movimento                                           17    17      0    1585
                                              6 BANK0     17    17      0
                _EPWM1_LoadDutyValue
                 _PWM3_LoadDutyValue
                    _TMR6_WriteTimer
                             ___wmul
 ---------------------------------------------------------------------------------
 (3) ___wmul                                               6     2      4     316
                                              0 BANK0      6     2      4
 ---------------------------------------------------------------------------------
 (3) _TMR6_WriteTimer                                      1     1      0      31
                                              0 BANK0      1     1      0
 ---------------------------------------------------------------------------------
 (3) _PWM3_LoadDutyValue                                   4     2      2     424
                                              0 BANK0      4     2      2
 ---------------------------------------------------------------------------------
 (3) _EPWM1_LoadDutyValue                                  4     2      2     196
                                              0 BANK0      4     2      2
 ---------------------------------------------------------------------------------
 (2) _ADC_GetConversion                                    4     2      2      22
                                              0 BANK0      4     2      2
 ---------------------------------------------------------------------------------
 (1) _comunicacao                                         11    11      0    5407
                                             70 BANK0      2     2      0
                                              0 BANK1      9     9      0
                        _EUSART_Read
                 _EUSART_is_rx_ready
                            ___fldiv
                            ___flmul
                            ___fltol
                           ___xxtofl
 ---------------------------------------------------------------------------------
 (2) ___xxtofl                                            14    10      4     626
                                              4 BANK0     14    10      4
                  _ADC_GetConversion (ARG)
 ---------------------------------------------------------------------------------
 (2) ___fltol                                             11     7      4     533
                                              0 BANK0     11     7      4
 ---------------------------------------------------------------------------------
 (2) ___flmul                                             26    18      8    2873
                                             18 BANK0     26    18      8
                  _ADC_GetConversion (ARG)
                          __Umul8_16
                           ___xxtofl (ARG)
 ---------------------------------------------------------------------------------
 (3) __Umul8_16                                            9     7      2     799
                                              0 BANK0      9     7      2
 ---------------------------------------------------------------------------------
 (2) ___fldiv                                             26    18      8    1273
                                             44 BANK0     26    18      8
                            ___flmul (ARG)
                           ___xxtofl (ARG)
 ---------------------------------------------------------------------------------
 (2) _EUSART_is_rx_ready                                   0     0      0       0
 ---------------------------------------------------------------------------------
 (2) _EUSART_Read                                          0     0      0       0
 ---------------------------------------------------------------------------------
 (1) _SYSTEM_Initialize                                    0     0      0    1840
                     _ADC_Initialize
                    _CCP4_Initialize
                   _EPWM1_Initialize
                  _EUSART_Initialize
                     _FVR_Initialize
              _OSCILLATOR_Initialize
             _PIN_MANAGER_Initialize
                    _PWM3_Initialize
                    _TMR1_Initialize
                    _TMR2_Initialize
                    _TMR4_Initialize
                    _TMR6_Initialize
                     _WDT_Initialize
 ---------------------------------------------------------------------------------
 (2) _WDT_Initialize                                       0     0      0       0
 ---------------------------------------------------------------------------------
 (2) _TMR6_Initialize                                      0     0      0     211
           _TMR6_SetInterruptHandler
 ---------------------------------------------------------------------------------
 (1) _TMR6_SetInterruptHandler                             2     0      2     211
                                              0 BANK0      2     0      2
 ---------------------------------------------------------------------------------
 (2) _TMR4_Initialize                                      0     0      0     211
           _TMR4_SetInterruptHandler
 ---------------------------------------------------------------------------------
 (1) _TMR4_SetInterruptHandler                             2     0      2     211
                                              0 BANK0      2     0      2
 ---------------------------------------------------------------------------------
 (2) _TMR2_Initialize                                      0     0      0       0
 ---------------------------------------------------------------------------------
 (2) _TMR1_Initialize                                      0     0      0       0
 ---------------------------------------------------------------------------------
 (2) _PWM3_Initialize                                      0     0      0       0
 ---------------------------------------------------------------------------------
 (2) _PIN_MANAGER_Initialize                               0     0      0     844
         _IOCBF0_SetInterruptHandler
         _IOCBF3_SetInterruptHandler
         _IOCBF4_SetInterruptHandler
         _IOCBF5_SetInterruptHandler
 ---------------------------------------------------------------------------------
 (3) _IOCBF5_SetInterruptHandler                           2     0      2     211
                                              0 BANK0      2     0      2
 ---------------------------------------------------------------------------------
 (3) _IOCBF4_SetInterruptHandler                           2     0      2     211
                                              0 BANK0      2     0      2
 ---------------------------------------------------------------------------------
 (3) _IOCBF3_SetInterruptHandler                           2     0      2     211
                                              0 BANK0      2     0      2
 ---------------------------------------------------------------------------------
 (3) _IOCBF0_SetInterruptHandler                           2     0      2     211
                                              0 BANK0      2     0      2
 ---------------------------------------------------------------------------------
 (2) _OSCILLATOR_Initialize                                0     0      0       0
 ---------------------------------------------------------------------------------
 (2) _FVR_Initialize                                       0     0      0       0
 ---------------------------------------------------------------------------------
 (2) _EUSART_Initialize                                    0     0      0     363
             _EUSART_SetErrorHandler
      _EUSART_SetFramingErrorHandler
      _EUSART_SetOverrunErrorHandler
 ---------------------------------------------------------------------------------
 (3) _EUSART_SetOverrunErrorHandler                        2     0      2     121
                                              0 BANK0      2     0      2
 ---------------------------------------------------------------------------------
 (3) _EUSART_SetFramingErrorHandler                        2     0      2     121
                                              0 BANK0      2     0      2
 ---------------------------------------------------------------------------------
 (3) _EUSART_SetErrorHandler                               2     0      2     121
                                              0 BANK0      2     0      2
 ---------------------------------------------------------------------------------
 (2) _EPWM1_Initialize                                     0     0      0       0
 ---------------------------------------------------------------------------------
 (2) _CCP4_Initialize                                      0     0      0     211
                   _CCP4_SetCallBack
 ---------------------------------------------------------------------------------
 (3) _CCP4_SetCallBack                                     2     0      2     211
                                              0 BANK0      2     0      2
 ---------------------------------------------------------------------------------
 (2) _ADC_Initialize                                       0     0      0       0
 ---------------------------------------------------------------------------------
 Estimated maximum stack depth 3
 ---------------------------------------------------------------------------------
 (Depth) Function   	        Calls       Base Space   Used Autos Params    Refs
 ---------------------------------------------------------------------------------
 (4) _INTERRUPT_InterruptManager                           0     0      0     454
                    _CCP4_CaptureISR
                    _PIN_MANAGER_IOC
                           _TMR4_ISR
                           _TMR6_ISR
 ---------------------------------------------------------------------------------
 (5) _TMR6_ISR                                             0     0      0       0
                   Absolute function *
       _TMR6_DefaultInterruptHandler *
                           _delay_2s *
 ---------------------------------------------------------------------------------
 (6) _delay_2s                                             0     0      0       0
 ---------------------------------------------------------------------------------
 (6) _TMR6_DefaultInterruptHandler                         0     0      0       0
 ---------------------------------------------------------------------------------
 (5) _TMR4_ISR                                             0     0      0      92
                   Absolute function *
       _TMR4_DefaultInterruptHandler *
                          _send_data *
 ---------------------------------------------------------------------------------
 (6) _send_data                                            3     3      0      92
                                              1 COMMON     3     3      0
                       _EUSART_Write
                 _EUSART_is_tx_ready
 ---------------------------------------------------------------------------------
 (7) _EUSART_is_tx_ready                                   1     1      0      24
                                              0 COMMON     1     1      0
 ---------------------------------------------------------------------------------
 (7) _EUSART_Write                                         1     1      0      22
                                              0 COMMON     1     1      0
 ---------------------------------------------------------------------------------
 (6) _TMR4_DefaultInterruptHandler                         0     0      0       0
 ---------------------------------------------------------------------------------
 (5) _PIN_MANAGER_IOC                                      0     0      0       0
                         _IOCBF0_ISR
                         _IOCBF3_ISR
                         _IOCBF4_ISR
                         _IOCBF5_ISR
 ---------------------------------------------------------------------------------
 (6) _IOCBF5_ISR                                           0     0      0       0
                   Absolute function *
     _IOCBF5_DefaultInterruptHandler *
                            _sensor4 *
 ---------------------------------------------------------------------------------
 (7) _sensor4                                              1     1      0       0
                                              0 COMMON     1     1      0
 ---------------------------------------------------------------------------------
 (7) _IOCBF5_DefaultInterruptHandler                       0     0      0       0
 ---------------------------------------------------------------------------------
 (6) _IOCBF4_ISR                                           0     0      0       0
                   Absolute function *
     _IOCBF4_DefaultInterruptHandler *
                            _sensor3 *
 ---------------------------------------------------------------------------------
 (7) _sensor3                                              1     1      0       0
                                              0 COMMON     1     1      0
 ---------------------------------------------------------------------------------
 (7) _IOCBF4_DefaultInterruptHandler                       0     0      0       0
 ---------------------------------------------------------------------------------
 (6) _IOCBF3_ISR                                           0     0      0       0
                   Absolute function *
     _IOCBF3_DefaultInterruptHandler *
                            _sensor2 *
 ---------------------------------------------------------------------------------
 (7) _sensor2                                              0     0      0       0
 ---------------------------------------------------------------------------------
 (7) _IOCBF3_DefaultInterruptHandler                       0     0      0       0
 ---------------------------------------------------------------------------------
 (6) _IOCBF0_ISR                                           0     0      0       0
                   Absolute function *
     _IOCBF0_DefaultInterruptHandler *
                            _sensor1 *
 ---------------------------------------------------------------------------------
 (7) _sensor1                                              0     0      0       0
 ---------------------------------------------------------------------------------
 (7) _IOCBF0_DefaultInterruptHandler                       0     0      0       0
 ---------------------------------------------------------------------------------
 (5) _CCP4_CaptureISR                                      3     3      0     362
                                              4 COMMON     3     3      0
                   Absolute function *
               _CCP4_DefaultCallBack *
                          _get_pulse *
 ---------------------------------------------------------------------------------
 (6) _get_pulse                                            2     0      2     315
                                              2 COMMON     2     0      2
                    _TMR1_WriteTimer
 ---------------------------------------------------------------------------------
 (7) _TMR1_WriteTimer                                      2     0      2     240
                                              0 COMMON     2     0      2
 ---------------------------------------------------------------------------------
 (6) _CCP4_DefaultCallBack                                 2     0      2       0
                                              2 COMMON     2     0      2
 ---------------------------------------------------------------------------------
 (6) Absolute function(Fake)                               0     0      0       0
 ---------------------------------------------------------------------------------
 Estimated maximum stack depth 7
 ---------------------------------------------------------------------------------

 Call Graph Graphs:

 _main (ROOT)
   _CCP4_SetCallBack
   _IOCBF0_SetInterruptHandler
   _IOCBF3_SetInterruptHandler
   _IOCBF4_SetInterruptHandler
   _IOCBF5_SetInterruptHandler
   _SYSTEM_Initialize
     _ADC_Initialize
     _CCP4_Initialize
       _CCP4_SetCallBack
     _EPWM1_Initialize
     _EUSART_Initialize
       _EUSART_SetErrorHandler
       _EUSART_SetFramingErrorHandler
       _EUSART_SetOverrunErrorHandler
     _FVR_Initialize
     _OSCILLATOR_Initialize
     _PIN_MANAGER_Initialize
       _IOCBF0_SetInterruptHandler
       _IOCBF3_SetInterruptHandler
       _IOCBF4_SetInterruptHandler
       _IOCBF5_SetInterruptHandler
     _PWM3_Initialize
     _TMR1_Initialize
     _TMR2_Initialize
     _TMR4_Initialize
       _TMR4_SetInterruptHandler
     _TMR6_Initialize
       _TMR6_SetInterruptHandler
     _WDT_Initialize
   _TMR4_SetInterruptHandler
   _TMR6_SetInterruptHandler
   _comunicacao
     _EUSART_Read
     _EUSART_is_rx_ready
     ___fldiv
       ___flmul (ARG)
         _ADC_GetConversion (ARG)
         __Umul8_16 (ARG)
         ___xxtofl (ARG)
           _ADC_GetConversion (ARG)
       ___xxtofl (ARG)
         _ADC_GetConversion (ARG)
     ___flmul
       _ADC_GetConversion (ARG)
       __Umul8_16 (ARG)
       ___xxtofl (ARG)
         _ADC_GetConversion (ARG)
     ___fltol
     ___xxtofl
       _ADC_GetConversion (ARG)
   _controle
     _ADC_GetConversion
     ___flmul
       _ADC_GetConversion (ARG)
       __Umul8_16 (ARG)
       ___xxtofl (ARG)
         _ADC_GetConversion (ARG)
     ___xxtofl
       _ADC_GetConversion (ARG)
     _movimento
       _EPWM1_LoadDutyValue
       _PWM3_LoadDutyValue
       _TMR6_WriteTimer
       ___wmul

 _INTERRUPT_InterruptManager (ROOT)
   _CCP4_CaptureISR
     Absolute function(Fake) *
     _CCP4_DefaultCallBack *
     _get_pulse *
       _TMR1_WriteTimer
   _PIN_MANAGER_IOC
     _IOCBF0_ISR
       Absolute function(Fake) *
       _IOCBF0_DefaultInterruptHandler *
       _sensor1 *
     _IOCBF3_ISR
       Absolute function(Fake) *
       _IOCBF3_DefaultInterruptHandler *
       _sensor2 *
     _IOCBF4_ISR
       Absolute function(Fake) *
       _IOCBF4_DefaultInterruptHandler *
       _sensor3 *
     _IOCBF5_ISR
       Absolute function(Fake) *
       _IOCBF5_DefaultInterruptHandler *
       _sensor4 *
   _TMR4_ISR
     Absolute function(Fake) *
     _TMR4_DefaultInterruptHandler *
     _send_data *
       _EUSART_Write
       _EUSART_is_tx_ready
   _TMR6_ISR
     Absolute function(Fake) *
     _TMR6_DefaultInterruptHandler *
     _delay_2s *

 Address spaces:
Name               Size   Autos  Total    Cost      Usage
BIGRAM             170      0       0       0        0.0%
EEDATA             100      0       0       0        0.0%
NULL                 0      0       0       0        0.0%
CODE                 0      0       0       0        0.0%
BITCOMMON            E      0       0       1        0.0%
BITSFR0              0      0       0       1        0.0%
SFR0                 0      0       0       1        0.0%
COMMON               E      7       D       2       92.9%
BITSFR1              0      0       0       2        0.0%
SFR1                 0      0       0       2        0.0%
BITSFR2              0      0       0       3        0.0%
SFR2                 0      0       0       3        0.0%
STACK                0      0       0       3        0.0%
BITSFR3              0      0       0       4        0.0%
SFR3                 0      0       0       4        0.0%
ABS                  0      0      90       4        0.0%
BITBANK0            50      0       0       5        0.0%
BITSFR4              0      0       0       5        0.0%
SFR4                 0      0       0       5        0.0%
BANK0               50     48      4F       6       98.8%
BITSFR5              0      0       0       6        0.0%
SFR5                 0      0       0       6        0.0%
BITBANK1            50      0       0       7        0.0%
BITSFR6              0      0       0       7        0.0%
SFR6                 0      0       0       7        0.0%
BANK1               50      9      34       8       65.0%
BITSFR7              0      0       0       8        0.0%
SFR7                 0      0       0       8        0.0%
BITBANK2            50      0       0       9        0.0%
BITSFR8              0      0       0       9        0.0%
SFR8                 0      0       0       9        0.0%
BANK2               50      0       0      10        0.0%
BITSFR9              0      0       0      10        0.0%
SFR9                 0      0       0      10        0.0%
BITBANK3            50      0       0      11        0.0%
BITSFR10             0      0       0      11        0.0%
SFR10                0      0       0      11        0.0%
BANK3               50      0       0      12        0.0%
BITSFR11             0      0       0      12        0.0%
SFR11                0      0       0      12        0.0%
BITBANK4            30      0       0      13        0.0%
BITSFR12             0      0       0      13        0.0%
SFR12                0      0       0      13        0.0%
BANK4               30      0       0      14        0.0%
BITSFR13             0      0       0      14        0.0%
SFR13                0      0       0      14        0.0%
BITSFR14             0      0       0      15        0.0%
SFR14                0      0       0      15        0.0%
DATA                 0      0      90      15        0.0%
BITSFR15             0      0       0      16        0.0%
SFR15                0      0       0      16        0.0%
BITSFR16             0      0       0      17        0.0%
SFR16                0      0       0      17        0.0%
BITSFR17             0      0       0      18        0.0%
SFR17                0      0       0      18        0.0%
BITSFR18             0      0       0      19        0.0%
SFR18                0      0       0      19        0.0%
BITSFR19             0      0       0      20        0.0%
SFR19                0      0       0      20        0.0%
BITSFR20             0      0       0      21        0.0%
SFR20                0      0       0      21        0.0%
BITSFR21             0      0       0      22        0.0%
SFR21                0      0       0      22        0.0%
BITSFR22             0      0       0      23        0.0%
SFR22                0      0       0      23        0.0%
BITSFR23             0      0       0      24        0.0%
SFR23                0      0       0      24        0.0%
BITSFR24             0      0       0      25        0.0%
SFR24                0      0       0      25        0.0%
BITSFR25             0      0       0      26        0.0%
SFR25                0      0       0      26        0.0%
BITSFR26             0      0       0      27        0.0%
SFR26                0      0       0      27        0.0%
BITSFR27             0      0       0      28        0.0%
SFR27                0      0       0      28        0.0%
BITSFR28             0      0       0      29        0.0%
SFR28                0      0       0      29        0.0%
BITSFR29             0      0       0      30        0.0%
SFR29                0      0       0      30        0.0%
BITSFR30             0      0       0      31        0.0%
SFR30                0      0       0      31        0.0%
BITSFR31             0      0       0      32        0.0%
SFR31                0      0       0      32        0.0%


Microchip Technology PIC Macro Assembler V2.30 build 20200825195618 
Symbol Table                                                                                   Mon Dec 14 23:32:09 2020

                              _CCP4_Initialize 0DA4                                   ___fldiv@aexp 0065  
                                 ___fldiv@bexp 0064               ??_IOCBF3_DefaultInterruptHandler 0070  
              ?_IOCBF3_DefaultInterruptHandler 0070                                   ___fldiv@sign 005D  
                                           l43 07FD                                             l51 0C60  
                                           l60 0D74                                             l64 0D82  
                                           l82 0CAA                                             l85 0CB3  
                                           l88 0CA1                         __end_of_FVR_Initialize 0C58  
                          ___wmul@multiplicand 0022                                    _state_motor 00C0  
                          __Umul8_16@word_mpld 0026                                            l131 0C5B  
                                          l125 0F13                                            l150 0D92  
                                          l128 0C7F                                            l251 0CE9  
                                          l229 0DC9                                            l422 0F8A  
                                          l271 0C87                                            l351 0DB5  
                                          l328 0C57                                            l436 0CBC  
                                          l620 0651                                            l604 0790  
                                          l357 0C98                                            l189 0C8F  
                                          l446 0CC5                                            l286 0E97  
                                          l622 0653                                            l456 0CCE  
                                          l480 0CE0                                            l289 0EA2  
                                          l466 0CD7                                            l642 0E24  
                                          l483 0E40                                            l590 07D0  
                                          l639 0D0A                                            l663 0DDD  
                                          l840 0E60                                            l675 0C72  
                                          l685 0CF2                                            l597 056B  
                                          l838 0E4C                                            _PR2 001B  
                                          _PR4 0416                                            _PR6 041D  
                                          _I_m 00C5                                _timer1ReloadVal 00AE  
               ?_EUSART_SetFramingErrorHandler 0020                                _TMR2_Initialize 0C88  
               CCP4_SetCallBack@customCallBack 0020                                            wreg 0009  
                                 ?_comunicacao 0070                               _CCP4_SetCallBack 0C90  
                                 ___flmul@aexp 0044                                   ___flmul@bexp 0045  
           __end_of_IOCBF4_SetInterruptHandler 0CCF                     _IOCBF4_SetInterruptHandler 0CC6  
                                 ___flmul@sign 003F                                   ___flmul@temp 004A  
                                 ___flmul@prod 0046                        __end_of_CCP4_CaptureISR 0E09  
                                 ?_EUSART_Read 0070                                   ___fltol@exp1 002A  
                                         l1032 0FFF                                           l1042 0FFF  
                                         l1211 03EA                                           l1039 0FEA  
                                         l1216 0436                                           l1217 0450  
                                         l1241 0230                                           l1219 045F  
                                         l1235 02B4                                           l3110 07F3  
                                         l3102 07D9                                           l1254 0EB6  
                                         l1247 02A8                                           l3112 07FB  
                                         l3104 07E2                                           l3200 0DC6  
                                         l3120 0D79                                           l1256 0EC6  
                                         l1281 0700                                           l3106 07E3  
                                         l3130 0F46                                           l3202 0C88  
                                         l3210 0DCA                                           l3122 0D7A  
                                         l3114 0C5C                                           l2330 0EB2  
                                         l2306 0E09                                           l1195 030C  
                                         l3108 07EB                                           l3140 0F56  
                                         l3132 0F49                                           l3204 0C8B  
                                         l3220 0DDA                                           l3212 0DCD  
                                         l3124 0D7F                                           l2332 0EBD  
                                         l2324 0EA5                                           l1292 06CC  
                                         l3300 05D5                                           l1197 0468  
                                         l1293 06D8                                           l1285 06B2  
                                         l3230 0DB1                                           l3222 0DA4  
                                         l3070 0C99                                           l3150 0F5F  
                                         l3142 0F58                                           l3134 0F4C  
                                         l3206 0C8C                                           l3214 0DCE  
                                         l3126 0D81                                           l3118 0D74  
                                         l2334 0EC2                                           l2326 0EA7  
                                         l3302 05DB                                           l1279 0677  
                                         l3232 0DB3                                           l3224 0DA7  
                                         l3240 0CFD                                           l3080 0CC6  
                                         l3160 0F64                                           l3152 0F60  
                                         l3144 0F5B                                           l3136 0F4E  
                                         l3208 0C8D                                           l3072 0CE1  
                                         l3216 0DD0                                           l2328 0EAE  
                                         l3320 061A                                           l3304 05E3  
                                         l3234 0C80                                           l3074 0C90  
                                         l3226 0DA8                                           l3250 0D08  
                                         l3242 0D00                                           l3066 0CA2  
                                         l3082 0CCF                                           l3170 0F69  
                                         l3162 0F65                                           l3154 0F61  
                                         l3146 0F5C                                           l3138 0F51  
                                         l3218 0DD2                                           l2610 0FA0  
                                         l3090 0E44                                           l3330 0640  
                                         l3322 0623                                           l3314 05FB  
                                         l3306 05E8                                           l3236 0C83  
                                         l3228 0DA9                                           l3244 0D01  
                                         l3068 0CAB                                           l3180 0C79  
                                         l3076 0CB4                                           l3172 0F71  
                                         l3164 0F66                                           l3156 0F62  
                                         l3148 0F5E                                           l3252 0CD8  
                                         l3260 0D83                                           l3084 0CEA  
                                         l2700 035B                                           l2620 0FC2  
                                         l2612 0FB3                                           l2604 0F8B  
                                         l3340 0469                                           l2460 0E84  
                                         l3092 0E48                                           l3332 0644  
                                         l3324 062B                                           l3316 0600  
                                         l3308 05F6                                           l3238 0C84  
                                         l3246 0D03                                           l3182 0C7C  
                                         l3078 0CBD                                           l3174 0F79  
                                         l3166 0F67                                           l3158 0F63  
                                         l3254 0CDB                                           l3262 0D87  
                                         l3190 0DB6                                           l2710 037C  
                                         l2702 0363                                           l2614 0FB4  
                                         l2606 0F97                                           l3350 051D  
                                         l3342 04EA                                           l2462 0E90  
                                         l2294 0E25                                           l3086 0C6F  
                                         l3094 0E51                                           l3334 0648  
                                         l3326 0630                                           l3318 060B  
                                         l3270 0579                                           l3248 0D05  
                                         l3184 0C7D                                           l3176 0F81  
                                         l3168 0F68                                           l3256 0CDC  
                                         l3264 0D88                                           l3192 0DB9  
                                         l2720 039F                                           l2712 037D  
                                         l2704 0365                                           l2640 02B5  
                                         l2800 008E                                           l2616 0FBC  
                                         l3352 0537                                           l3344 04F2  
                                         l2464 0E91                                           l3096 0E56  
                                         l3088 0E41                                           l3336 064F  
                                         l3328 063D                                           l3280 0591  
                                         l3272 0589                                           l3360 0779  
                                         l3178 0F89                                           l3258 0CDD  
                                         l3266 0D8F                                           l3194 0DBA  
                                         l3186 0C58                                           l3338 0EEC  
                                         l2730 03BA                                           l2706 036A  
                                         l2714 0384                                           l2722 03A3  
                                         l2650 02C9                                           l2642 02BB  
                                         l2810 00A1                                           l2802 0092  
                                         l2634 0FE1                                           l2626 0FCA  
                                         l2618 0FBE                                           l3354 0551  
                                         l3346 04FB                                           l2466 0E95  
                                         l3098 0E5C                                           l3290 05A3  
                                         l3274 058F                                           l3370 0785  
                                         l3362 0779                                           l3188 0C54  
                                         l3196 0DBC                                           l2740 03CE  
                                         l2732 03BE                                           l2724 03A9  
                                         l2716 0396                                           l2708 0378  
                                         l2660 02E1                                           l2652 02CE  
                                         l2644 02BF                                           l2900 026F  
                                         l2820 00BD                                           l2812 00A9  
                                         l2804 0096                                           l2636 0FEF  
                                         l2628 0FDA                                           l3348 0503  
                                         l2468 0E9B                                           l3292 05B2  
                                         l3276 0591                                           l3268 056C  
                                         l3372 078A                                           l3364 077B  
                                         l3356 0701                                           l3380 0795  
                                         l3198 0DBE                                           l2750 03EF  
                                         l2742 03CF                                           l2734 03BF  
                                         l2726 03B1                                           l2718 0397  
                                         l2670 02F4                                           l2662 02E6  
                                         l2654 02D6                                           l2646 02C3  
                                         l2910 029F                                           l2902 0279  
                                         l2830 00FA                                           l2814 00AB  
                                         l2806 0097                                           l2638 0FF4  
                                         l3294 05BB                                           l3286 0593  
                                         l3278 0591                                           l3374 078D  
                                         l3366 0780                                           l3358 0779  
                                         l3382 07CE                                           l2752 03F4  
                                         l2760 041C                                           l2744 03D3  
                                         l2736 03C6                                           l2728 03B3  
                                         l2680 0314                                           l2672 02F9  
                                         l2664 02EA                                           l2656 02D7  
                                         l2648 02C4                                           l2912 02A3  
                                         l2904 0287                                           l2840 0142  
                                         l2832 0107                                           l2824 00C6  
                                         l2816 00B3                                           l2808 009C  
                                         l2920 0656                                           l3296 05C3  
                                         l3288 0598                                           l3368 0783  
                                         l3376 0791                                           l2770 0455  
                                         l2762 0429                                           l2754 03FC  
                                         l2746 03E7                                           l2738 03CA  
                                         l2690 0332                                           l2682 0320  
                                         l2674 0301                                           l2666 02EE  
                                         l2658 02D9                                           l2914 02A4  
                                         l2906 0290                                           l2850 017E  
                                         l2842 014F                                           l2834 0121  
                                         l2826 00D3                                           l2818 00B8  
                                         l2922 065B                                           l3298 05C8  
                                         l3378 0794                                           l2772 0459  
                                         l2764 0444                                           l2756 0400  
                                         l2684 0324                                           l2676 0302  
                                         l2668 02EF                                           l2916 02AC  
                                         l2908 0292                                           l2860 01CF  
                                         l2852 0185                                           l2844 0156  
                                         l2836 012E                                           l2828 00E0  
                                         l2780 005E                                           l2940 06A3  
                                         l2932 0688                                           l2924 065F  
                                         l2774 045B                                           l2766 0447  
                                         l2758 0418                                           l2694 033B  
                                         l2678 0304                                           l2870 0204  
                                         l2862 01E6                                           l2854 0199  
                                         l2846 0163                                           l2838 013B  
                                         l2790 0072                                           l2782 0064  
                                         l2950 06D0                                           l2942 06AB  
                                         l2934 068D                                           l2926 066F  
                                         l2768 044F                                           l2696 034B  
                                         l2688 032D                                           l2880 0215  
                                         l2872 0205                                           l2864 01ED  
                                         l2856 01A6                                           l2848 016A  
                                         l2792 0077                                           l2784 0068  
                                         l2960 06F8                                           l2952 06DA  
                                         l2944 06B9                                           l2936 0698  
                                         l2928 067F                                           l2698 0353  
                                         l2890 023A                                           l2882 0219  
                                         l2874 020C                                           l2866 01F9  
                                         l2858 01BA                                           l2794 007F  
                                         l2786 006C                                           l2954 06EE  
                                         l2946 06C2                                           l2938 069F  
                                         l2892 0242                                           l2884 022D  
                                         l2868 0200                                           l2876 0210  
                                         l2796 0081                                           l2788 006D  
                                         l2956 06F3                                           l2948 06C6  
                                         l2894 0246                                           l2878 0214  
                                         l2798 0089                                           l2958 06F7  
                                         l2896 025E                                           l2888 0235  
                                         l2898 0262                                           u2000 0444  
                                         u2001 0443                                           u2010 0459  
                                         u2011 0458                                           u2020 006C  
                                         u2005 0440                                           u2021 006B  
                                         u2030 0072                                           u2031 0071  
                                         u1400 0EB2                                           u2200 022D  
                                         u2120 01C5                                           u2040 0077  
                                         u1401 0EB1                                           u2201 022C  
                                         u2105 013C                                           u2041 0076  
                                         u2210 0234                                           u2130 01DC  
                                         u2050 0096                                           u2211 0233  
                                         u2115 016B                                           u2051 0095  
                                         u1420 0EC2                                           u2220 023A  
                                         u2060 009C                                           u2300 067F  
                                         u1421 0EC1                                           u2221 0239  
                                         u2125 01C1                                           u2061 009B  
                                         u2301 067E                                           _LATA 010C  
                                         u2230 0246                                           u2070 00A1  
                                         _LATB 010D                                           u1415 0EB7  
                                         u2231 0245                                           u2135 01D8  
                                         u2071 00A0                                           u2240 0254  
                                         u2160 0204                                           u2080 00B8  
                                         u2400 06F3                                           u2320 069E  
                                         u2161 0203                                           u2145 01E7  
                                         u2081 00B7                                           u2401 06F2  
                                         u2321 069D                                           u1345 0E36  
                                         u2250 026F                                           u2090 00BD  
                                         u2410 06F7                                           u1450 0E9B  
                                         u2251 026E                                           u2155 01FA  
                                         u2091 00BC                                           u2411 06F6  
                                         u2315 0692                                           u1451 0E9A  
                                         u1355 0E1A                                           u2260 0287  
                                         u2180 0214                                           u2340 06B8  
                                         u2261 0286                                           u2245 0250  
                                         u2181 0213                                           u2341 06B7  
                                         u2270 02A3                                           u2190 0219  
                                         u1710 0FEF                                           u1630 0F97  
                                         u2271 02A2                                           u2255 026B  
                                         u2191 0218                                           u2175 0206  
                                         u1711 0FEE                                           u1631 0F96  
                                         u2335 06AC                                           u1800 0332  
                                         u1720 0FF4                                           u1640 0FAD  
                                         u2360 06C6                                           u2280 065B  
                                         u1801 0331                                           u2265 0283  
                                         u1721 0FF3                                           u1705 0FE2  
                                         u2361 06C5                                           u2281 065A  
                                         u1810 036A                                           u1730 02C3  
                                         u1650 0FC2                                           u2370 06CC  
                                         u2290 065F                                           u2610 0E5C  
                                         u1811 0369                                           u1731 02C2  
                                         u1651 0FC1                                           u2371 06CB  
                                         u2355 06BC                                           u2291 065E  
                                         u2611 0E5B                                           u2620 0D79  
                                         u1900 03BE                                           u1740 02C9  
                                         u1660 0FC9                                           u2380 06D0  
                                         u2700 04EA                                           u2621 0D78  
                                         u1901 03BD                                           u1741 02C8  
                                         u1661 0FC8                                           u1645 0FA9  
                                         u2381 06CF                                           u2701 04E9  
                                         u2605 0E52                                           u2630 0D7F  
                                         u1750 02CE                                           u2390 06E4  
                                         u2631 0D7E                                           u1751 02CD  
                                         u1920 03CE                                           u1840 037C  
                                         u1760 02EE                                           u1680 0FD9  
                                         u2640 05B2                                           u1921 03CD  
                                         u1841 037B                                           u1825 036B  
                                         u1761 02ED                                           u1681 0FD8  
                                         u2641 05B1                                           u1930 03D3  
                                         u1770 02F4                                           u1690 0FE0  
                                         u2650 05D5                                           u1931 03D2  
                                         u1915 03C0                                           u1835 0372  
                                         u1771 02F3                                           u1691 0FDF  
                                         u1675 0FCB                                           u2395 06E0  
                                         u2651 05D4                                           u1940 03E7  
                                         u1860 0396                                           u1780 02F9  
                                         u2580 0E48                                           u2660 05F6  
                                         u1941 03E6                                           u1861 0395  
                                         u1781 02F8                                           u2717 0E92  
                                         u2581 0E47                                           u2661 05F5  
                                         u2645 05AE                                           u1950 03EE  
                                         u1870 03A9                                           u1790 0314  
                                         u2670 061A                                           u1951 03ED  
                                         u1871 03A8                                           u1855 037E  
                                         u1791 0313                                           u2671 0619  
                                         u2655 05D1                                           u1960 03F4  
                                         u1880 03B1                                           u2680 063D  
                                         u1961 03F3                                           u1881 03B0  
                                         u1865 0392                                           u2681 063C  
                                         u2665 05F2                                           u1970 0400  
                                         u2690 064F                                           u1971 03FF  
                                         u2595 0E4D                                           u2691 064E  
                                         u2675 0616                                           u1980 040E  
                                         u2685 0639                                           u1990 0429  
                       get_pulse@capturedValue 0072                                           u1991 0428  
                                         u1895 03B4                                           u1985 040A  
                                         u1995 0425                                           i1l70 0CFC  
                                         i1l48 0D55                                           i1l67 0CF4  
                                         _TMR2 001A                                           _TMR4 0415  
                                         _TMR6 041C                                           _WPUA 020C  
                                         _WPUB 020D                              ??_TMR6_WriteTimer 0020  
                                         _main 0791                                           _byte 00B6  
                                         fsr0h 0005                                           fsr1h 0007  
                                         indf0 0000                                           fsr0l 0004  
                                         indf1 0001                                           fsr1l 0006  
                                         btemp 007E                                           start 0042  
                              ___fldiv@new_exp 005E                          ??_EPWM1_LoadDutyValue 0022  
                   ??_TMR4_SetInterruptHandler 0022                               comunicacao@speed 00CB  
                              ?_FVR_Initialize 0070                                  ?_EUSART_Write 0070  
               __size_of_OSCILLATOR_Initialize 0007                            __size_of_IOCBF0_ISR 000F  
                          __size_of_IOCBF3_ISR 000F                  __end_of_OSCILLATOR_Initialize 0C80  
                          __size_of_IOCBF4_ISR 000F                            __size_of_IOCBF5_ISR 000F  
                                ___fltol@sign1 0029                                          ?_main 0070  
                              __end_of___fldiv 0469                         ??_CCP4_DefaultCallBack 0074  
                              __end_of___flmul 02B5                                __end_of___fltol 1000  
                                        _T1CON 0018                                          _T2CON 001C  
                                        _T4CON 0417                                          _T6CON 041E  
                                        i1l311 0012                                          i1l321 0040  
                                        i1l314 0024                                          i1l315 0040  
                                        i1l164 0DA3                                          i1l316 0032  
                                        i1l254 07FF                                          i1l248 0D64  
                                        i1l433 0D19                                          i1l354 0E08  
                                        i1l443 0D28                                          i1l348 0C4A  
                                        i1l453 0D37                                          i1l429 0E81  
                                        i1l439 0C4B                                          i1l463 0D46  
                                        i1l449 0C4C                                          i1l570 0C4F  
                                        i1l459 0002                                          i1l563 0F45  
                                        i1l573 0C53                                          i1l469 0003  
                                        i1l567 0DF2                                          i1l576 0C66  
                                        i1l585 0EEB                                          i1l682 0D73  
                                 _acabou_delay 0068                                          i1l579 0C6C  
                                        i1l688 07FE                                          _RCREG 0199  
                                        _RCSTA 019D                                          _TMR1H 0017  
                                        _TMR1L 0016                                          _TRISA 008C  
                                        _TRISB 008D                                          _TXREG 019A  
                                        _TXSTA 019E                                _TMR4_Initialize 0DB6  
            __size_of_TMR6_SetInterruptHandler 0009                      ?_TMR6_SetInterruptHandler 0020  
                             __end_of_TMR4_ISR 0D65                               __end_of_TMR6_ISR 0D74  
                      __end_of_PIN_MANAGER_IOC 0E82                                 _WDT_Initialize 0C58  
                      __end_of_PWM3_Initialize 0CE1                        __end_of_TMR1_Initialize 0D93  
                                        pclath 000A                                __end_of_sensor1 0C50  
                              __end_of_sensor2 0C54                                __end_of_sensor3 0C67  
                              __end_of_sensor4 0C6D                                          status 0003  
                      __end_of_CCP4_Initialize 0DB6                                          wtemp0 007E  
                              _TMR1_WriteTimer 0D93                 ??_TMR6_DefaultInterruptHandler 0070  
                              __initialization 0044                                   __end_of_main 07D9  
                               ??_EUSART_Write 0070                        __end_of_TMR2_Initialize 0C90  
                  ?_INTERRUPT_InterruptManager 0070                                         ??_main 0068  
                      _IOCBF0_InterruptHandler 00A8                                  _aux_tempo_d2s 006A  
                       __end_of_WDT_Initialize 0C5C                                _TMR6_Initialize 0DCA  
                             ?_CCP4_CaptureISR 0070              _EUSART_DefaultFramingErrorHandler 0000  
                                       _ADCON0 009D                                         _ADCON1 009E  
                   _EUSART_OverrunErrorHandler 00B2                   ??_IOCBF5_SetInterruptHandler 0022  
                                       _ADRESH 009C                                         _ADRESL 009B  
                                       _CCPR1H 0292                                         _CCPR3H 0312  
                                       _CCPR1L 0291                                         _CCPR4H 0319  
                                       _CCPR3L 0311                                         _CCPR4L 0318  
                                       _ANSELA 018C                                         _ANSELB 018D  
                   __end_of_EUSART_is_rx_ready 0C61                                         _BORCON 0116  
                                       _T1GCON 0019                        TMR1_WriteTimer@timerVal 0070  
                                       i1l2300 0C61                                         i1l2302 0C67  
                                       i1l3040 000A                                         i1l3050 0029  
                                       i1l3042 000E                                         i1l2260 0D54  
                                       i1l2252 0D47                                         i1l2500 0F1F  
                                       i1l3052 002E                                         i1l3044 0016  
                                       i1l2270 0D98                                         i1l2254 0D48  
                                       i1l2510 0F43                                         i1l2502 0F22  
                                       i1l3054 0037                                         i1l3046 001B  
                                       i1l3038 0006                                         i1l2280 0DA1  
                                       i1l2272 0D99                                         i1l2520 0EC7  
                                       i1l2264 0CF4                                         i1l2256 0D4D  
                                       i1l2504 0F2A                                         i1l2512 0DDE  
                                       i1l3056 003C                                         i1l3048 0020  
                                       i1l2274 0D9B                                         i1l2530 0EE3  
                                       i1l2522 0ECD                                         i1l2266 0CF9  
                                       i1l2258 0D52                                         i1l2506 0F32  
                                       i1l2514 0DE3                                         i1l2276 0D9D  
                                       i1l2268 0D93                                         i1l2532 0EE7  
                                       i1l2524 0ED2                                         i1l2508 0F36  
                                       i1l2516 0DEC                                         i1l2278 0D9F  
                                       i1l2526 0ED8                                         i1l2518 0DF0  
                                       i1l2528 0EDD                                         i1l2296 0C4D  
                                       i1l2472 0D0B                                         i1l2480 0D21  
                                       u130_20 0D4D                                         u130_21 0D4C  
                                       i1l2474 0D12                                         i1l2298 0C50  
                                       i1l2482 0D26                                         i1l2490 0D38  
                                       i1l2476 0D17                                         i1l2484 0D29  
                                       i1l2492 0D3F                                         i1l2478 0D1A  
                                       i1l2486 0D30                                         i1l2494 0D44  
                                       i1l2488 0D35                                         u131_20 0D52  
                                       i1l2496 0F14                                         u131_21 0D51  
                                       i1l2498 0F18                                         u132_20 0CF9  
                                       u132_21 0CF8                                         i1l2970 0D5F  
                                       i1l2980 0E71                                         i1l2972 0E61  
                                       i1l2982 0E76                                         i1l2974 0E66  
                                       i1l2966 0D56                                         i1l2990 0D67  
                                       u133_20 0D98                                         i1l2984 0E79  
                                       i1l2976 0E69                                         i1l2968 0D58  
                                       i1l2992 0D6E                                         u133_21 0D97  
                                       i1l2994 0DF3                                         i1l2986 0E7E  
                                       i1l2978 0E6E                                         i1l2996 0DF5  
                                       i1l2988 0D65                                         i1l2998 0DFE  
                                       u150_20 0F1F                                         u150_21 0F1E  
                                       u151_20 0F2A                                         u151_21 0F29  
                                       u152_20 0F43                                         u152_21 0F42  
                                       u152_25 0F3F                                         u153_20 0DEC  
                                       u153_21 0DEB                                         u154_20 0ED8  
                                       u146_20 0D12                                         u242_20 0D5F  
                                       u250_20 000E                                         u154_21 0ED7  
                                       u146_21 0D11                                         u242_21 0D5E  
                                       u250_21 000D                                         u155_20 0EE3  
                                       u147_20 0D21                                         u243_20 0E66  
                                       u251_20 0016                                         _FVRCON 0117  
                                       u155_21 0EE2                                         u147_21 0D20  
                                       u243_21 0E65                                         u251_21 0015  
                                       u156_20 0EE7                                         u148_20 0D30  
                                       u244_20 0E6E                                         u252_20 001B  
                                       u156_21 0EE6                                         u148_21 0D2F  
                                       u244_21 0E6D                                         u252_21 001A  
                   __end_of_EUSART_is_tx_ready 0D56                                         u149_20 0D3F  
                                       u245_20 0E76                                         u253_20 0020  
                                       u149_21 0D3E                                         u245_21 0E75  
                                       u253_21 001F                                         u246_20 0E7E  
                                       u254_20 0029                                         u246_21 0E7D  
                                       u254_21 0028                                         u247_20 0D6E  
                                       u255_20 002E                                         u247_21 0D6D  
                                       u255_21 002D                                         u256_20 0037  
                                       u256_21 0036                                         u257_20 003C  
                                       u249_20 000A                                         u257_21 003B  
                                       u249_21 0009                                         _OSCCON 0099  
                                       _SPBRGH 019C                                         _SPBRGL 019B  
                                       _WDTCON 0097                               __end_of___xxtofl 0701  
                             __end_of_delay_2s 0DF3                                   _CCPTMRS0bits 029E  
                  __size_of_PWM3_LoadDutyValue 001C                                         ___wmul 0E41  
                                    ??___fldiv 0054                                      ??___flmul 003A  
                             __end_of_controle 0791                                      ??___fltol 0024  
                                       _estado 00BB                        __end_of_TMR4_Initialize 0DCA  
                                _CCP4_CallBack 00AA                                         _pulses 007B  
          __size_of_IOCBF5_SetInterruptHandler 0009           __end_of_TMR4_DefaultInterruptHandler 0800  
        __size_of_TMR4_DefaultInterruptHandler 0001                   _TMR4_DefaultInterruptHandler 07FF  
                           __size_of__Umul8_16 0024                                ?_WDT_Initialize 0070  
                                    ??_sensor1 0070                                      ??_sensor2 0070  
                                    ??_sensor3 0070                                      ??_sensor4 0070  
                     ADC_GetConversion@channel 0023       TMR6_SetInterruptHandler@InterruptHandler 0020  
   IOCBF5_SetInterruptHandler@InterruptHandler 0020     IOCBF4_SetInterruptHandler@InterruptHandler 0020  
   IOCBF3_SetInterruptHandler@InterruptHandler 0020     IOCBF0_SetInterruptHandler@InterruptHandler 0020  
     TMR4_SetInterruptHandler@InterruptHandler 0020                               ?_PIN_MANAGER_IOC 0070  
                         __size_of_comunicacao 0103                        __end_of_TMR1_WriteTimer 0DA4  
                                 ??_IOCBF0_ISR 0070                                   ??_IOCBF3_ISR 0070  
                                 ??_IOCBF4_ISR 0071                                   ??_IOCBF5_ISR 0071  
                             ?_TMR1_Initialize 0070                               ?_PWM3_Initialize 0070  
                                 ___xxtofl@arg 002E                           __size_of_EUSART_Read 000F  
                                 ___xxtofl@exp 002D                              _SYSTEM_Initialize 0EEC  
                                 ___xxtofl@val 0024                        __end_of__initialization 005A  
                             ?_CCP4_Initialize 0070                             ?_SYSTEM_Initialize 0070  
                                   ___fltol@f1 0020                       __end_of_CCP4_SetCallBack 0C99  
                            ?_EPWM1_Initialize 0070                                 __pcstackCOMMON 0070  
                          ??_SYSTEM_Initialize 0022                                      ?_TMR4_ISR 0070  
                                    ?_TMR6_ISR 0070                             ??_EPWM1_Initialize 0020  
       __end_of_IOCBF0_DefaultInterruptHandler 0C4C        __size_of_IOCBF0_DefaultInterruptHandler 0001  
               _IOCBF0_DefaultInterruptHandler 0C4B                               ?_TMR2_Initialize 0070  
                      __end_of_TMR6_Initialize 0DDE                             __end_of_IOCBF0_ISR 0D1A  
                           __end_of_IOCBF3_ISR 0D29                             __end_of_IOCBF4_ISR 0D38  
                           __end_of_IOCBF5_ISR 0D47                                 _OPTION_REGbits 0095  
                              _TMR6_WriteTimer 0C6D                  ?_TMR4_DefaultInterruptHandler 0070  
              ??_EUSART_SetOverrunErrorHandler 0022         __end_of_IOCBF3_DefaultInterruptHandler 0C4D  
      __size_of_IOCBF3_DefaultInterruptHandler 0001                 _IOCBF3_DefaultInterruptHandler 0C4C  
                  ?_IOCBF4_SetInterruptHandler 0020                             __size_of_get_pulse 0025  
                    __end_of_SYSTEM_Initialize 0F14                                     __pbssBANK0 0068  
                                   __pbssBANK1 00B6                           __end_of_EUSART_Write 0CFD  
                        _TMR4_InterruptHandler 00AC                              __end_of__Umul8_16 0EC7  
                             ??_FVR_Initialize 0020                                     __pmaintext 0791  
                                      ?___wmul 0020               __end_of_TMR6_SetInterruptHandler 0CF3  
                                   ??_TMR4_ISR 0074                                     ??_TMR6_ISR 0070  
                                   __pintentry 0004                             __size_of_send_data 0032  
                                      _CCP1CON 0293                                        _CCP3CON 0313  
                                      _CCP4CON 031A                                        _ECCP1AS 0295  
                                      _BAUDCON 019F                               ?_TMR4_Initialize 0070  
             ??_IOCBF4_DefaultInterruptHandler 0070                ?_IOCBF4_DefaultInterruptHandler 0070  
                                      _APFCON0 011D                                        _APFCON1 011E  
                      __size_of_ADC_Initialize 0008                             __size_of_movimento 00E8  
                                    ?___xxtofl 0024                                      ?_delay_2s 0070  
           __end_of_IOCBF5_SetInterruptHandler 0CD8                     _IOCBF5_SetInterruptHandler 0CCF  
                                      _OSCTUNE 0098                                        _PWM1CON 0294  
                     ??_EUSART_SetErrorHandler 0022                               ?_TMR1_WriteTimer 0070  
                                    ?_controle 0070                    __end_of_EPWM1_LoadDutyValue 0E25  
                         _ADC_InterruptHandler 00BD                              __end_of_get_pulse 0EEC  
                                      ___fldiv 02B5                                        ___flmul 005E  
                                      ___fltol 0F8B                                __size_of___wmul 0020  
                      __end_of_TMR6_WriteTimer 0C73                                        _and_dst 006C  
                       movimento@max_dutyValue 0031                               ?_TMR6_Initialize 0070  
                                      __ptext1 0701                                        __ptext2 056C  
                                      __ptext3 0E41                                        __ptext4 0C6D  
                                      __ptext5 0E25                                        __ptext6 0E09  
                                      __ptext7 0E82                                        __ptext8 0469  
                                      __ptext9 0654                                      _T1CONbits 0018  
                        _OSCILLATOR_Initialize 0C79                                      _T2CONbits 001C  
                                   ??___xxtofl 0028                  __size_of_CCP4_DefaultCallBack 0001  
                                    _T4CONbits 0417                                     ??_delay_2s 0070  
                     ??_PIN_MANAGER_Initialize 0022              __size_of_TMR4_SetInterruptHandler 0009  
                                    _IOCBFbits 0396                      ?_TMR4_SetInterruptHandler 0020  
                                    _IOCBNbits 0395                                        _sensor1 0C4D  
                                      _sensor2 0C50                                        _sensor3 0C61  
                                      _sensor4 0C67                                        _temp_mt 00C1  
                                      _sentido 0079                                      _T6CONbits 041E  
                                    _IOCBPbits 0394                     __size_of_SYSTEM_Initialize 0028  
                                      clrloop0 0C74                           end_of_initialization 005A  
                            __end_of_send_data 0F46                 ??_TMR4_DefaultInterruptHandler 0070  
                                   ??_controle 004C          __end_of_EUSART_SetOverrunErrorHandler 0CB4  
       __size_of_EUSART_SetOverrunErrorHandler 0009                  _EUSART_SetOverrunErrorHandler 0CAB  
                            __end_of_movimento 0654                              _EUSART_Initialize 07D9  
                           ?_EUSART_Initialize 0070                                      _RCSTAbits 019D  
                           _EUSART_is_rx_ready 0C5C                             movimento@dutyValue 0033  
                           _EUSART_is_tx_ready 0D47                            ??_EUSART_Initialize 0022  
                             ??_WDT_Initialize 0020                            ?_EUSART_is_rx_ready 0070  
                     _TMR6_SetInterruptHandler 0CEA                            ?_EUSART_is_tx_ready 0070  
                                ___xxtofl@sign 002C                          __size_of_EUSART_Write 000A  
                                  ___fldiv@grs 0060                                    ___fldiv@rem 0059  
                 ??_IOCBF0_SetInterruptHandler 0022                   ??_IOCBF3_SetInterruptHandler 0022  
              __size_of_EUSART_SetErrorHandler 0009                                    ___flmul@grs 0040  
                    __end_of_EUSART_Initialize 07FE                           ??_EUSART_is_rx_ready 0020  
                       movimento@min_dutyValue 002F                           ??_EUSART_is_tx_ready 0070  
                                    _TXSTAbits 019E                       __size_of_CCP4_CaptureISR 0016  
            CCP4_DefaultCallBack@capturedValue 0072                     __end_of_PWM3_LoadDutyValue 0E41  
                            ?_CCP4_SetCallBack 0020                             ??_CCP4_SetCallBack 0022  
                   _EUSART_DefaultErrorHandler 0000                               ?_TMR6_WriteTimer 0070  
                               __end_of___wmul 0E61                                   _EUSART_Write 0CF3  
                            __size_of_TMR4_ISR 000F                                 _ADC_Initialize 0C80  
          __size_of_IOCBF0_SetInterruptHandler 0009                              __size_of_TMR6_ISR 000F  
          __size_of_IOCBF3_SetInterruptHandler 0009                         ?_OSCILLATOR_Initialize 0070  
                                ??_comunicacao 0066                            start_initialization 0044  
                    __size_of_EPWM1_Initialize 000E                __size_of_PIN_MANAGER_Initialize 0045  
                                ??_EUSART_Read 0020                         _EUSART_is_tx_ready$167 0070  
                 EPWM1_LoadDutyValue@dutyValue 0020                       __size_of_PIN_MANAGER_IOC 0021  
               ?_EUSART_SetOverrunErrorHandler 0020                       __size_of_PWM3_Initialize 0009  
                     __size_of_TMR1_Initialize 0010                     _EUSART_FramingErrorHandler 00B4  
                                     ??___wmul 0024                         _EUSART_SetErrorHandler 0C99  
                     __size_of_CCP4_Initialize 0012                         __end_of_ADC_Initialize 0C88  
                                    __Umul8_16 0EA3                          CCP4_CaptureISR@module 0075  
                                    ___fldiv@a 004C                                      ___fldiv@b 0050  
                                    ___flmul@a 0036                                      ___flmul@b 0032  
                                  __pbssCOMMON 0077                                      ___latbits 0001  
                                __pcstackBANK0 0020                                  __pcstackBANK1 00CB  
                     __size_of_TMR2_Initialize 0008                    ?_IOCBF5_SetInterruptHandler 0020  
                            __size_of___xxtofl 00AD                              __size_of_delay_2s 0015  
                          comunicacao@position 00CF         __end_of_IOCBF4_DefaultInterruptHandler 0003  
      __size_of_IOCBF4_DefaultInterruptHandler 0001                 _IOCBF4_DefaultInterruptHandler 0002  
                          __end_of_comunicacao 056C                     __size_of_EUSART_Initialize 0025  
                          __end_of_EUSART_Read 0D83                              __size_of_controle 0090  
                        _TMR6_InterruptHandler 00A0                                      __pnvBANK1 00A0  
                                    _and_ating 00BF                                      _ccp_value 00C9  
                      _IOCBF3_InterruptHandler 00A6                         _PIN_MANAGER_Initialize 0F46  
             __end_of_TMR4_SetInterruptHandler 0CEA                                       ?___fldiv 004C  
                            ??_CCP4_CaptureISR 0074                                       ?___flmul 0032  
                                     ?___fltol 0020                                     ?__Umul8_16 0020  
                              ?_ADC_Initialize 0070                   ??_INTERRUPT_InterruptManager 0077  
                                   send_data@i 0072                                      _get_pulse 0EC7  
             ??_IOCBF5_DefaultInterruptHandler 0070                ?_IOCBF5_DefaultInterruptHandler 0070  
                                    _aux_tempo 0077             __end_of_IOCBF0_SetInterruptHandler 0CBD  
                   _IOCBF0_SetInterruptHandler 0CB4             __end_of_IOCBF3_SetInterruptHandler 0CC6  
                   _IOCBF3_SetInterruptHandler 0CBD                                       ?_sensor1 0070  
                                     ?_sensor2 0070                                       ?_sensor3 0070  
                                     ?_sensor4 0070                       __size_of_TMR4_Initialize 0014  
                               movimento@count 0035                                 movimento@route 002B  
                               ___wmul@product 0024                                       _LATAbits 010C  
       EUSART_SetErrorHandler@interruptHandler 0020                                      clear_ram0 0C73  
                 __end_of_CCP4_DefaultCallBack 0C4B                                      _send_data 0F14  
                                     _PIE3bits 0093                              _eusartRxLastError 006E  
                     __size_of_TMR1_WriteTimer 0011            __size_of_INTERRUPT_InterruptManager 003E  
                                   movimento@a 002D                                       _PIR1bits 0011  
              ??_EUSART_SetFramingErrorHandler 0022                                       _PIR3bits 0013  
                 __size_of_EPWM1_LoadDutyValue 001C                     ??_TMR6_SetInterruptHandler 0022  
                                    _movimento 056C              _EUSART_DefaultOverrunErrorHandler 0000  
                                     _TMR4_ISR 0D56                                       _PSTR1CON 0296  
                                     _TMR6_ISR 0D65                              ??_PIN_MANAGER_IOC 0071  
                            ??_TMR1_Initialize 0020                              ??_PWM3_Initialize 0020  
                                   ?_get_pulse 0072                                     _ADCON0bits 009D  
                            ___wmul@multiplier 0020                        __size_of_FVR_Initialize 0004  
                            ??_CCP4_Initialize 0022                               _EPWM1_Initialize 0CFD  
                                  _comunicacao 0469                                 comunicacao@aux 00D3  
                     __size_of_TMR6_Initialize 0014                                    _EUSART_Read 0D74  
                            ??_TMR2_Initialize 0020                                     ?_send_data 0070  
                            _ADC_GetConversion 0E82                                     ?_movimento 0070  
                      ??_OSCILLATOR_Initialize 0020                                    ??__Umul8_16 0022  
                          _EUSART_ErrorHandler 00B0                             ?_ADC_GetConversion 0020  
                             __size_of___fldiv 01B4                               __size_of___flmul 0257  
                             __size_of___fltol 0075                       _TMR4_SetInterruptHandler 0CE1  
                           _PWM3_LoadDutyValue 0E25                            ??_ADC_GetConversion 0022  
                      _IOCBF4_InterruptHandler 00A4                                       ___xxtofl 0654  
                                     _delay_2s 0DDE                      __size_of_CCP4_SetCallBack 0009  
                                     __ptext10 0F8B                                       __ptext11 005E  
                                     __ptext20 0DB6                                       __ptext12 0EA3  
                                     __ptext21 0CE1                                       __ptext13 02B5  
                                   _T1GCONbits 0019                                       __ptext30 0C79  
                                     __ptext22 0C88                                       __ptext14 0C5C  
                                     __ptext31 0C54                                       __ptext23 0D83  
                                     __ptext15 0D74                                       __ptext32 07D9  
                                     __ptext24 0CD8                                       __ptext16 0EEC  
                                     __ptext41 0D65                                       __ptext33 0CAB  
                                     __ptext25 0F46                                       __ptext17 0C58  
                                     __ptext50 0D38                                       __ptext42 07FE  
                                     __ptext34 0CA2                                       __ptext26 0CCF  
                                     __ptext18 0DCA                                       __ptext51 0003  
                                     __ptext43 0DDE                                       __ptext35 0C99  
                                     __ptext27 0CC6                                       __ptext19 0CEA  
                                     __ptext60 0C4B                                       __ptext52 0C67  
                                     __ptext44 0D56                                       __ptext36 0CFD  
                                     __ptext28 0CBD                                       __ptext61 0C4D  
                                     __ptext53 0D29                                       __ptext45 07FF  
                                     __ptext37 0DA4                                       __ptext29 0CB4  
                                     __ptext62 0DF3                                       __ptext54 0002  
                                     __ptext46 0F14                                       __ptext38 0C90  
                                     __ptext63 0C4A                                       __ptext55 0C61  
                                     __ptext47 0D47                                       __ptext39 0C80  
                                     __ptext64 0EC7                                       __ptext56 0D1A  
                                     __ptext48 0CF3                                       __ptext65 0D93  
                                     __ptext57 0C4C                                       __ptext49 0E61  
                                     __ptext58 0C50                            ?_PWM3_LoadDutyValue 0020  
                                     __ptext59 0D0B                               __size_of_sensor1 0003  
                             __size_of_sensor2 0004                               __size_of_sensor3 0006  
                             __size_of_sensor4 0006                   ??_IOCBF4_SetInterruptHandler 0022  
                                   _IOCBF0_ISR 0D0B                                     _IOCBF3_ISR 0D1A  
                                   _IOCBF4_ISR 0D29                                     _IOCBF5_ISR 0D38  
                                     _controle 0701                        TMR6_WriteTimer@timerVal 0020  
                            ??_TMR4_Initialize 0022                    __size_of_EUSART_is_rx_ready 0005  
                                __size_of_main 0048                    __size_of_EUSART_is_tx_ready 000F  
                                movimento@ilum 0027                               movimento@destiny 0029  
                    __end_of_ADC_GetConversion 0EA3                        ?_EUSART_SetErrorHandler 0020  
EUSART_SetOverrunErrorHandler@interruptHandler 0020                           ??_PWM3_LoadDutyValue 0022  
                                     int$flags 007E             __end_of_INTERRUPT_InterruptManager 0042  
                   _INTERRUPT_InterruptManager 0004          __end_of_EUSART_SetFramingErrorHandler 0CAB  
       __size_of_EUSART_SetFramingErrorHandler 0009                  _EUSART_SetFramingErrorHandler 0CA2  
                            ??_TMR1_WriteTimer 0072                                    ??_get_pulse 0074  
          __size_of_IOCBF4_SetInterruptHandler 0009                                     _INTCONbits 000B  
                         _CCP4_DefaultCallBack 0C4A                                     _FVRCONbits 0117  
                     __size_of_TMR6_WriteTimer 0006           __end_of_TMR6_DefaultInterruptHandler 07FF  
        __size_of_TMR6_DefaultInterruptHandler 0001                   _TMR6_DefaultInterruptHandler 07FE  
                      __size_of_WDT_Initialize 0004                                       intlevel1 0000  
                              _CCP4_CaptureISR 0DF3                        ?_PIN_MANAGER_Initialize 0070  
                            ??_TMR6_Initialize 0022                 __end_of_EUSART_SetErrorHandler 0CA2  
                                  ??_send_data 0071                               ??_ADC_Initialize 0020  
                                  ??_movimento 0026  EUSART_SetFramingErrorHandler@interruptHandler 0020  
                  PWM3_LoadDutyValue@dutyValue 0020                                 _FVR_Initialize 0C54  
                       __Umul8_16@multiplicand 0020                          ?_CCP4_DefaultCallBack 0072  
                  ?_IOCBF0_SetInterruptHandler 0020                            _EPWM1_LoadDutyValue 0E09  
                  ?_IOCBF3_SetInterruptHandler 0020                                    ?_IOCBF0_ISR 0070  
                           EUSART_Write@txData 0070                                    ?_IOCBF3_ISR 0070  
                                  ?_IOCBF4_ISR 0070                                    ?_IOCBF5_ISR 0070  
               __end_of_PIN_MANAGER_Initialize 0F8B                  ?_TMR6_DefaultInterruptHandler 0070  
             ??_IOCBF0_DefaultInterruptHandler 0070                ?_IOCBF0_DefaultInterruptHandler 0070  
       __end_of_IOCBF5_DefaultInterruptHandler 0004        __size_of_IOCBF5_DefaultInterruptHandler 0001  
               _IOCBF5_DefaultInterruptHandler 0003                                _PIN_MANAGER_IOC 0E61  
                         __Umul8_16@multiplier 0028                     __size_of_ADC_GetConversion 0021  
                      _IOCBF5_InterruptHandler 00A2                                _TMR1_Initialize 0D83  
                              _PWM3_Initialize 0CD8                       __end_of_EPWM1_Initialize 0D0B  
                         ?_EPWM1_LoadDutyValue 0020                              __Umul8_16@product 0024  
